
bench/coremark/coremark.elf:     file format elf32-littleriscv


Disassembly of section .startup:

00000000 <_mystart>:
   0:	00000013          	nop
   4:	00000033          	add	zero,zero,zero
   8:	000000b3          	add	ra,zero,zero
   c:	00000133          	add	sp,zero,zero
  10:	000001b3          	add	gp,zero,zero
  14:	00000233          	add	tp,zero,zero
  18:	000002b3          	add	t0,zero,zero
  1c:	00000333          	add	t1,zero,zero
  20:	000003b3          	add	t2,zero,zero
  24:	00000433          	add	s0,zero,zero
  28:	000004b3          	add	s1,zero,zero
  2c:	00000533          	add	a0,zero,zero
  30:	000005b3          	add	a1,zero,zero
  34:	00000633          	add	a2,zero,zero
  38:	000006b3          	add	a3,zero,zero
  3c:	00000733          	add	a4,zero,zero
  40:	000007b3          	add	a5,zero,zero
  44:	00000833          	add	a6,zero,zero
  48:	000008b3          	add	a7,zero,zero
  4c:	00000933          	add	s2,zero,zero
  50:	000009b3          	add	s3,zero,zero
  54:	00000a33          	add	s4,zero,zero
  58:	00000ab3          	add	s5,zero,zero
  5c:	00000b33          	add	s6,zero,zero
  60:	00000bb3          	add	s7,zero,zero
  64:	00000c33          	add	s8,zero,zero
  68:	00000cb3          	add	s9,zero,zero
  6c:	00000d33          	add	s10,zero,zero
  70:	00000db3          	add	s11,zero,zero
  74:	00000e33          	add	t3,zero,zero
  78:	00000eb3          	add	t4,zero,zero
  7c:	00000f33          	add	t5,zero,zero
  80:	00000fb3          	add	t6,zero,zero
  84:	00001137          	lui	sp,0x1
  88:	63d0706f          	j	7ec4 <main>
  8c:	00000013          	nop

Disassembly of section .text:

00000090 <cmp_idx>:
      90:	00060a63          	beqz	a2,a4 <cmp_idx+0x14>
      94:	00251503          	lh	a0,2(a0)
      98:	00259783          	lh	a5,2(a1)
      9c:	40f50533          	sub	a0,a0,a5
      a0:	00008067          	ret
      a4:	00051783          	lh	a5,0(a0)
      a8:	01079713          	slli	a4,a5,0x10
      ac:	01075713          	srli	a4,a4,0x10
      b0:	00875713          	srli	a4,a4,0x8
      b4:	f007f793          	andi	a5,a5,-256
      b8:	00e7e7b3          	or	a5,a5,a4
      bc:	00f51023          	sh	a5,0(a0)
      c0:	00059783          	lh	a5,0(a1)
      c4:	00251503          	lh	a0,2(a0)
      c8:	01079713          	slli	a4,a5,0x10
      cc:	01075713          	srli	a4,a4,0x10
      d0:	00875713          	srli	a4,a4,0x8
      d4:	f007f793          	andi	a5,a5,-256
      d8:	00e7e7b3          	or	a5,a5,a4
      dc:	00f59023          	sh	a5,0(a1)
      e0:	00259783          	lh	a5,2(a1)
      e4:	40f50533          	sub	a0,a0,a5
      e8:	00008067          	ret

000000ec <calc_func>:
      ec:	fe010113          	addi	sp,sp,-32 # fe0 <matrix_mul_matrix+0xec>
      f0:	00812c23          	sw	s0,24(sp)
      f4:	00051403          	lh	s0,0(a0)
      f8:	00112e23          	sw	ra,28(sp)
      fc:	40745793          	srai	a5,s0,0x7
     100:	0017f793          	andi	a5,a5,1
     104:	00078c63          	beqz	a5,11c <calc_func+0x30>
     108:	01c12083          	lw	ra,28(sp)
     10c:	07f47513          	andi	a0,s0,127
     110:	01812403          	lw	s0,24(sp)
     114:	02010113          	addi	sp,sp,32
     118:	00008067          	ret
     11c:	40345713          	srai	a4,s0,0x3
     120:	00f77713          	andi	a4,a4,15
     124:	00471793          	slli	a5,a4,0x4
     128:	00f70633          	add	a2,a4,a5
     12c:	00912a23          	sw	s1,20(sp)
     130:	01312623          	sw	s3,12(sp)
     134:	01212823          	sw	s2,16(sp)
     138:	00747693          	andi	a3,s0,7
     13c:	0385d783          	lhu	a5,56(a1)
     140:	00050993          	mv	s3,a0
     144:	00058493          	mv	s1,a1
     148:	00060713          	mv	a4,a2
     14c:	08068263          	beqz	a3,1d0 <calc_func+0xe4>
     150:	00100613          	li	a2,1
     154:	06c69663          	bne	a3,a2,1c0 <calc_func+0xd4>
     158:	00078613          	mv	a2,a5
     15c:	00070593          	mv	a1,a4
     160:	02848513          	addi	a0,s1,40
     164:	42c010ef          	jal	1590 <core_bench_matrix>
     168:	03c4d783          	lhu	a5,60(s1)
     16c:	01051913          	slli	s2,a0,0x10
     170:	41095913          	srai	s2,s2,0x10
     174:	08079863          	bnez	a5,204 <calc_func+0x118>
     178:	0384d783          	lhu	a5,56(s1)
     17c:	02a49e23          	sh	a0,60(s1)
     180:	00078593          	mv	a1,a5
     184:	2f5010ef          	jal	1c78 <crcu16>
     188:	00050793          	mv	a5,a0
     18c:	f0047413          	andi	s0,s0,-256
     190:	07f97513          	andi	a0,s2,127
     194:	00856433          	or	s0,a0,s0
     198:	02f49c23          	sh	a5,56(s1)
     19c:	08046413          	ori	s0,s0,128
     1a0:	00899023          	sh	s0,0(s3)
     1a4:	01c12083          	lw	ra,28(sp)
     1a8:	01812403          	lw	s0,24(sp)
     1ac:	01412483          	lw	s1,20(sp)
     1b0:	01012903          	lw	s2,16(sp)
     1b4:	00c12983          	lw	s3,12(sp)
     1b8:	02010113          	addi	sp,sp,32
     1bc:	00008067          	ret
     1c0:	01041513          	slli	a0,s0,0x10
     1c4:	01055513          	srli	a0,a0,0x10
     1c8:	00040913          	mv	s2,s0
     1cc:	fb5ff06f          	j	180 <calc_func+0x94>
     1d0:	02100693          	li	a3,33
     1d4:	00c6e463          	bltu	a3,a2,1dc <calc_func+0xf0>
     1d8:	02200713          	li	a4,34
     1dc:	00249683          	lh	a3,2(s1)
     1e0:	00049603          	lh	a2,0(s1)
     1e4:	0144a583          	lw	a1,20(s1)
     1e8:	0184a503          	lw	a0,24(s1)
     1ec:	029010ef          	jal	1a14 <core_bench_state>
     1f0:	03e4d783          	lhu	a5,62(s1)
     1f4:	01051913          	slli	s2,a0,0x10
     1f8:	41095913          	srai	s2,s2,0x10
     1fc:	00079463          	bnez	a5,204 <calc_func+0x118>
     200:	02a49f23          	sh	a0,62(s1)
     204:	0384d783          	lhu	a5,56(s1)
     208:	f79ff06f          	j	180 <calc_func+0x94>

0000020c <cmp_complex>:
     20c:	ff010113          	addi	sp,sp,-16
     210:	00912223          	sw	s1,4(sp)
     214:	00058493          	mv	s1,a1
     218:	00060593          	mv	a1,a2
     21c:	00112623          	sw	ra,12(sp)
     220:	00812423          	sw	s0,8(sp)
     224:	00060413          	mv	s0,a2
     228:	ec5ff0ef          	jal	ec <calc_func>
     22c:	00050793          	mv	a5,a0
     230:	00040593          	mv	a1,s0
     234:	00048513          	mv	a0,s1
     238:	00078413          	mv	s0,a5
     23c:	eb1ff0ef          	jal	ec <calc_func>
     240:	00c12083          	lw	ra,12(sp)
     244:	40a40533          	sub	a0,s0,a0
     248:	00812403          	lw	s0,8(sp)
     24c:	00412483          	lw	s1,4(sp)
     250:	01010113          	addi	sp,sp,16
     254:	00008067          	ret

00000258 <copy_info>:
     258:	00059703          	lh	a4,0(a1)
     25c:	00259783          	lh	a5,2(a1)
     260:	00e51023          	sh	a4,0(a0)
     264:	00f51123          	sh	a5,2(a0)
     268:	00008067          	ret

0000026c <core_list_insert_new>:
     26c:	00062803          	lw	a6,0(a2)
     270:	00880893          	addi	a7,a6,8
     274:	04e8f663          	bgeu	a7,a4,2c0 <core_list_insert_new+0x54>
     278:	0006a703          	lw	a4,0(a3)
     27c:	00470313          	addi	t1,a4,4
     280:	04f37063          	bgeu	t1,a5,2c0 <core_list_insert_new+0x54>
     284:	01162023          	sw	a7,0(a2)
     288:	00052783          	lw	a5,0(a0)
     28c:	00059883          	lh	a7,0(a1)
     290:	00259603          	lh	a2,2(a1)
     294:	00f82023          	sw	a5,0(a6)
     298:	01052023          	sw	a6,0(a0)
     29c:	00e82223          	sw	a4,4(a6)
     2a0:	0006a783          	lw	a5,0(a3)
     2a4:	00080513          	mv	a0,a6
     2a8:	00478793          	addi	a5,a5,4
     2ac:	00f6a023          	sw	a5,0(a3)
     2b0:	00482783          	lw	a5,4(a6)
     2b4:	01179023          	sh	a7,0(a5)
     2b8:	00c79123          	sh	a2,2(a5)
     2bc:	00008067          	ret
     2c0:	00000813          	li	a6,0
     2c4:	00080513          	mv	a0,a6
     2c8:	00008067          	ret

000002cc <core_list_remove>:
     2cc:	00050793          	mv	a5,a0
     2d0:	00052503          	lw	a0,0(a0)
     2d4:	0047a683          	lw	a3,4(a5)
     2d8:	00452603          	lw	a2,4(a0)
     2dc:	00052703          	lw	a4,0(a0)
     2e0:	00c7a223          	sw	a2,4(a5)
     2e4:	00d52223          	sw	a3,4(a0)
     2e8:	00e7a023          	sw	a4,0(a5)
     2ec:	00052023          	sw	zero,0(a0)
     2f0:	00008067          	ret

000002f4 <core_list_undo_remove>:
     2f4:	0045a603          	lw	a2,4(a1)
     2f8:	00452683          	lw	a3,4(a0)
     2fc:	0005a703          	lw	a4,0(a1)
     300:	00c52223          	sw	a2,4(a0)
     304:	00d5a223          	sw	a3,4(a1)
     308:	00e52023          	sw	a4,0(a0)
     30c:	00a5a023          	sw	a0,0(a1)
     310:	00008067          	ret

00000314 <core_list_find>:
     314:	00259703          	lh	a4,2(a1)
     318:	02074263          	bltz	a4,33c <core_list_find+0x28>
     31c:	00051863          	bnez	a0,32c <core_list_find+0x18>
     320:	00008067          	ret
     324:	00052503          	lw	a0,0(a0)
     328:	02050c63          	beqz	a0,360 <core_list_find+0x4c>
     32c:	00452783          	lw	a5,4(a0)
     330:	00279783          	lh	a5,2(a5)
     334:	fee798e3          	bne	a5,a4,324 <core_list_find+0x10>
     338:	00008067          	ret
     33c:	02050263          	beqz	a0,360 <core_list_find+0x4c>
     340:	00059703          	lh	a4,0(a1)
     344:	00c0006f          	j	350 <core_list_find+0x3c>
     348:	00052503          	lw	a0,0(a0)
     34c:	00050c63          	beqz	a0,364 <core_list_find+0x50>
     350:	00452783          	lw	a5,4(a0)
     354:	0007c783          	lbu	a5,0(a5)
     358:	fee798e3          	bne	a5,a4,348 <core_list_find+0x34>
     35c:	00008067          	ret
     360:	00000513          	li	a0,0
     364:	00008067          	ret

00000368 <core_list_reverse>:
     368:	02050063          	beqz	a0,388 <core_list_reverse+0x20>
     36c:	00000713          	li	a4,0
     370:	0080006f          	j	378 <core_list_reverse+0x10>
     374:	00078513          	mv	a0,a5
     378:	00052783          	lw	a5,0(a0)
     37c:	00e52023          	sw	a4,0(a0)
     380:	00050713          	mv	a4,a0
     384:	fe0798e3          	bnez	a5,374 <core_list_reverse+0xc>
     388:	00008067          	ret

0000038c <core_list_mergesort>:
     38c:	fd010113          	addi	sp,sp,-48
     390:	01312e23          	sw	s3,28(sp)
     394:	01512a23          	sw	s5,20(sp)
     398:	01712623          	sw	s7,12(sp)
     39c:	01812423          	sw	s8,8(sp)
     3a0:	01a12023          	sw	s10,0(sp)
     3a4:	00100a93          	li	s5,1
     3a8:	02112623          	sw	ra,44(sp)
     3ac:	02812423          	sw	s0,40(sp)
     3b0:	02912223          	sw	s1,36(sp)
     3b4:	03212023          	sw	s2,32(sp)
     3b8:	01412c23          	sw	s4,24(sp)
     3bc:	01612823          	sw	s6,16(sp)
     3c0:	01912223          	sw	s9,4(sp)
     3c4:	00050993          	mv	s3,a0
     3c8:	00058c13          	mv	s8,a1
     3cc:	00060b93          	mv	s7,a2
     3d0:	000a8d13          	mv	s10,s5
     3d4:	0e098663          	beqz	s3,4c0 <core_list_mergesort+0x134>
     3d8:	00000c93          	li	s9,0
     3dc:	00000913          	li	s2,0
     3e0:	00000b13          	li	s6,0
     3e4:	001c8c93          	addi	s9,s9,1
     3e8:	00098793          	mv	a5,s3
     3ec:	00000413          	li	s0,0
     3f0:	01545863          	bge	s0,s5,400 <core_list_mergesort+0x74>
     3f4:	0007a783          	lw	a5,0(a5)
     3f8:	00140413          	addi	s0,s0,1
     3fc:	fe079ae3          	bnez	a5,3f0 <core_list_mergesort+0x64>
     400:	00090493          	mv	s1,s2
     404:	000a8a13          	mv	s4,s5
     408:	00098913          	mv	s2,s3
     40c:	00078993          	mv	s3,a5
     410:	02805463          	blez	s0,438 <core_list_mergesort+0xac>
     414:	060a0063          	beqz	s4,474 <core_list_mergesort+0xe8>
     418:	02099663          	bnez	s3,444 <core_list_mergesort+0xb8>
     41c:	00090793          	mv	a5,s2
     420:	fff40413          	addi	s0,s0,-1
     424:	00092903          	lw	s2,0(s2)
     428:	04048063          	beqz	s1,468 <core_list_mergesort+0xdc>
     42c:	00f4a023          	sw	a5,0(s1)
     430:	00078493          	mv	s1,a5
     434:	fe8040e3          	bgtz	s0,414 <core_list_mergesort+0x88>
     438:	11405263          	blez	s4,53c <core_list_mergesort+0x1b0>
     43c:	06098863          	beqz	s3,4ac <core_list_mergesort+0x120>
     440:	08040e63          	beqz	s0,4dc <core_list_mergesort+0x150>
     444:	0049a583          	lw	a1,4(s3)
     448:	00492503          	lw	a0,4(s2)
     44c:	000b8613          	mv	a2,s7
     450:	000c00e7          	jalr	s8
     454:	fca054e3          	blez	a0,41c <core_list_mergesort+0x90>
     458:	00098793          	mv	a5,s3
     45c:	fffa0a13          	addi	s4,s4,-1
     460:	0009a983          	lw	s3,0(s3)
     464:	fc0494e3          	bnez	s1,42c <core_list_mergesort+0xa0>
     468:	00078b13          	mv	s6,a5
     46c:	00078493          	mv	s1,a5
     470:	fc5ff06f          	j	434 <core_list_mergesort+0xa8>
     474:	00092783          	lw	a5,0(s2)
     478:	fff40413          	addi	s0,s0,-1
     47c:	02048063          	beqz	s1,49c <core_list_mergesort+0x110>
     480:	0124a023          	sw	s2,0(s1)
     484:	02040063          	beqz	s0,4a4 <core_list_mergesort+0x118>
     488:	00090493          	mv	s1,s2
     48c:	00078913          	mv	s2,a5
     490:	00092783          	lw	a5,0(s2)
     494:	fff40413          	addi	s0,s0,-1
     498:	fe0494e3          	bnez	s1,480 <core_list_mergesort+0xf4>
     49c:	00090b13          	mv	s6,s2
     4a0:	fe0414e3          	bnez	s0,488 <core_list_mergesort+0xfc>
     4a4:	f40990e3          	bnez	s3,3e4 <core_list_mergesort+0x58>
     4a8:	00090493          	mv	s1,s2
     4ac:	0004a023          	sw	zero,0(s1)
     4b0:	05ac8863          	beq	s9,s10,500 <core_list_mergesort+0x174>
     4b4:	000b0993          	mv	s3,s6
     4b8:	001a9a93          	slli	s5,s5,0x1
     4bc:	f0099ee3          	bnez	s3,3d8 <core_list_mergesort+0x4c>
     4c0:	00002023          	sw	zero,0(zero) # 0 <_mystart>
     4c4:	00100073          	ebreak
     4c8:	00098b13          	mv	s6,s3
     4cc:	020a0263          	beqz	s4,4f0 <core_list_mergesort+0x164>
     4d0:	00098493          	mv	s1,s3
     4d4:	fc078ce3          	beqz	a5,4ac <core_list_mergesort+0x120>
     4d8:	00078993          	mv	s3,a5
     4dc:	0009a783          	lw	a5,0(s3)
     4e0:	fffa0a13          	addi	s4,s4,-1
     4e4:	fe0482e3          	beqz	s1,4c8 <core_list_mergesort+0x13c>
     4e8:	0134a023          	sw	s3,0(s1)
     4ec:	fe0a12e3          	bnez	s4,4d0 <core_list_mergesort+0x144>
     4f0:	00098913          	mv	s2,s3
     4f4:	00078993          	mv	s3,a5
     4f8:	ee0996e3          	bnez	s3,3e4 <core_list_mergesort+0x58>
     4fc:	fadff06f          	j	4a8 <core_list_mergesort+0x11c>
     500:	02c12083          	lw	ra,44(sp)
     504:	02812403          	lw	s0,40(sp)
     508:	02412483          	lw	s1,36(sp)
     50c:	02012903          	lw	s2,32(sp)
     510:	01c12983          	lw	s3,28(sp)
     514:	01812a03          	lw	s4,24(sp)
     518:	01412a83          	lw	s5,20(sp)
     51c:	00c12b83          	lw	s7,12(sp)
     520:	00812c03          	lw	s8,8(sp)
     524:	00412c83          	lw	s9,4(sp)
     528:	00012d03          	lw	s10,0(sp)
     52c:	000b0513          	mv	a0,s6
     530:	01012b03          	lw	s6,16(sp)
     534:	03010113          	addi	sp,sp,48
     538:	00008067          	ret
     53c:	00048913          	mv	s2,s1
     540:	ea0992e3          	bnez	s3,3e4 <core_list_mergesort+0x58>
     544:	f65ff06f          	j	4a8 <core_list_mergesort+0x11c>

00000548 <core_bench_list>:
     548:	00050613          	mv	a2,a0
     54c:	00451503          	lh	a0,4(a0)
     550:	fe010113          	addi	sp,sp,-32
     554:	00812c23          	sw	s0,24(sp)
     558:	01412423          	sw	s4,8(sp)
     55c:	00112e23          	sw	ra,28(sp)
     560:	00912a23          	sw	s1,20(sp)
     564:	01212823          	sw	s2,16(sp)
     568:	01312623          	sw	s3,12(sp)
     56c:	01512223          	sw	s5,4(sp)
     570:	02462403          	lw	s0,36(a2)
     574:	00000a13          	li	s4,0
     578:	2aa05c63          	blez	a0,830 <core_bench_list+0x2e8>
     57c:	2c05c063          	bltz	a1,83c <core_bench_list+0x2f4>
     580:	2e040063          	beqz	s0,860 <core_bench_list+0x318>
     584:	00058993          	mv	s3,a1
     588:	00000313          	li	t1,0
     58c:	00000e93          	li	t4,0
     590:	00000e13          	li	t3,0
     594:	00000893          	li	a7,0
     598:	00040793          	mv	a5,s0
     59c:	00c0006f          	j	5a8 <core_bench_list+0x60>
     5a0:	0007a783          	lw	a5,0(a5)
     5a4:	10078663          	beqz	a5,6b0 <core_bench_list+0x168>
     5a8:	0047a703          	lw	a4,4(a5)
     5ac:	00271803          	lh	a6,2(a4)
     5b0:	ff3818e3          	bne	a6,s3,5a0 <core_bench_list+0x58>
     5b4:	00000693          	li	a3,0
     5b8:	0080006f          	j	5c0 <core_bench_list+0x78>
     5bc:	00070413          	mv	s0,a4
     5c0:	00042703          	lw	a4,0(s0)
     5c4:	00d42023          	sw	a3,0(s0)
     5c8:	00040693          	mv	a3,s0
     5cc:	fe0718e3          	bnez	a4,5bc <core_bench_list+0x74>
     5d0:	0e078463          	beqz	a5,6b8 <core_bench_list+0x170>
     5d4:	0047a703          	lw	a4,4(a5)
     5d8:	00071703          	lh	a4,0(a4)
     5dc:	00177693          	andi	a3,a4,1
     5e0:	00068c63          	beqz	a3,5f8 <core_bench_list+0xb0>
     5e4:	40975713          	srai	a4,a4,0x9
     5e8:	00177713          	andi	a4,a4,1
     5ec:	00e88733          	add	a4,a7,a4
     5f0:	01071893          	slli	a7,a4,0x10
     5f4:	0108d893          	srli	a7,a7,0x10
     5f8:	0007a703          	lw	a4,0(a5)
     5fc:	00070c63          	beqz	a4,614 <core_bench_list+0xcc>
     600:	00072683          	lw	a3,0(a4)
     604:	00d7a023          	sw	a3,0(a5)
     608:	00042783          	lw	a5,0(s0)
     60c:	00f72023          	sw	a5,0(a4)
     610:	00e42023          	sw	a4,0(s0)
     614:	001e0e13          	addi	t3,t3,1
     618:	010e1e13          	slli	t3,t3,0x10
     61c:	010e5e13          	srli	t3,t3,0x10
     620:	06084663          	bltz	a6,68c <core_bench_list+0x144>
     624:	00130793          	addi	a5,t1,1
     628:	01079313          	slli	t1,a5,0x10
     62c:	00180993          	addi	s3,a6,1
     630:	01099993          	slli	s3,s3,0x10
     634:	01079793          	slli	a5,a5,0x10
     638:	41035313          	srai	t1,t1,0x10
     63c:	4109d993          	srai	s3,s3,0x10
     640:	0107d793          	srli	a5,a5,0x10
     644:	0a650263          	beq	a0,t1,6e8 <core_bench_list+0x1a0>
     648:	0ff7fa13          	zext.b	s4,a5
     64c:	000a0693          	mv	a3,s4
     650:	00040793          	mv	a5,s0
     654:	ffff8837          	lui	a6,0xffff8
     658:	f409d0e3          	bgez	s3,598 <core_bench_list+0x50>
     65c:	0047a703          	lw	a4,4(a5)
     660:	00074a03          	lbu	s4,0(a4)
     664:	f4da08e3          	beq	s4,a3,5b4 <core_bench_list+0x6c>
     668:	0007a783          	lw	a5,0(a5)
     66c:	00078c63          	beqz	a5,684 <core_bench_list+0x13c>
     670:	0047a703          	lw	a4,4(a5)
     674:	00074a03          	lbu	s4,0(a4)
     678:	f2da0ee3          	beq	s4,a3,5b4 <core_bench_list+0x6c>
     67c:	0007a783          	lw	a5,0(a5)
     680:	fe0798e3          	bnez	a5,670 <core_bench_list+0x128>
     684:	00068a13          	mv	s4,a3
     688:	f2dff06f          	j	5b4 <core_bench_list+0x6c>
     68c:	00130693          	addi	a3,t1,1
     690:	01069313          	slli	t1,a3,0x10
     694:	41035313          	srai	t1,t1,0x10
     698:	01069693          	slli	a3,a3,0x10
     69c:	0106d693          	srli	a3,a3,0x10
     6a0:	04650263          	beq	a0,t1,6e4 <core_bench_list+0x19c>
     6a4:	0ff6f693          	zext.b	a3,a3
     6a8:	00040793          	mv	a5,s0
     6ac:	fc5ff06f          	j	670 <core_bench_list+0x128>
     6b0:	00098813          	mv	a6,s3
     6b4:	f01ff06f          	j	5b4 <core_bench_list+0x6c>
     6b8:	00042783          	lw	a5,0(s0)
     6bc:	001e8e93          	addi	t4,t4,1
     6c0:	010e9e93          	slli	t4,t4,0x10
     6c4:	0047a783          	lw	a5,4(a5)
     6c8:	010ede93          	srli	t4,t4,0x10
     6cc:	00178783          	lb	a5,1(a5)
     6d0:	0017f793          	andi	a5,a5,1
     6d4:	00f887b3          	add	a5,a7,a5
     6d8:	01079893          	slli	a7,a5,0x10
     6dc:	0108d893          	srli	a7,a7,0x10
     6e0:	f41ff06f          	j	620 <core_bench_list+0xd8>
     6e4:	00080993          	mv	s3,a6
     6e8:	002e1793          	slli	a5,t3,0x2
     6ec:	41d787b3          	sub	a5,a5,t4
     6f0:	00f888b3          	add	a7,a7,a5
     6f4:	01089493          	slli	s1,a7,0x10
     6f8:	0104d493          	srli	s1,s1,0x10
     6fc:	00b05a63          	blez	a1,710 <core_bench_list+0x1c8>
     700:	00040513          	mv	a0,s0
     704:	20c00593          	li	a1,524
     708:	c85ff0ef          	jal	38c <core_list_mergesort>
     70c:	00050413          	mv	s0,a0
     710:	00042783          	lw	a5,0(s0)
     714:	00040913          	mv	s2,s0
     718:	0007aa83          	lw	s5,0(a5)
     71c:	0047a703          	lw	a4,4(a5)
     720:	004aa603          	lw	a2,4(s5)
     724:	000aa683          	lw	a3,0(s5)
     728:	00c7a223          	sw	a2,4(a5)
     72c:	00eaa223          	sw	a4,4(s5)
     730:	00d7a023          	sw	a3,0(a5)
     734:	000aa023          	sw	zero,0(s5)
     738:	0009d863          	bgez	s3,748 <core_bench_list+0x200>
     73c:	0bc0006f          	j	7f8 <core_bench_list+0x2b0>
     740:	00092903          	lw	s2,0(s2)
     744:	0c090263          	beqz	s2,808 <core_bench_list+0x2c0>
     748:	00492783          	lw	a5,4(s2)
     74c:	00279783          	lh	a5,2(a5)
     750:	ff3798e3          	bne	a5,s3,740 <core_bench_list+0x1f8>
     754:	00442783          	lw	a5,4(s0)
     758:	00048593          	mv	a1,s1
     75c:	00079503          	lh	a0,0(a5)
     760:	6bc010ef          	jal	1e1c <crc16>
     764:	00092903          	lw	s2,0(s2)
     768:	00050493          	mv	s1,a0
     76c:	fe0914e3          	bnez	s2,754 <core_bench_list+0x20c>
     770:	00042903          	lw	s2,0(s0)
     774:	004aa703          	lw	a4,4(s5)
     778:	00492683          	lw	a3,4(s2)
     77c:	00092783          	lw	a5,0(s2)
     780:	00daa223          	sw	a3,4(s5)
     784:	00e92223          	sw	a4,4(s2)
     788:	00faa023          	sw	a5,0(s5)
     78c:	00040513          	mv	a0,s0
     790:	01592023          	sw	s5,0(s2)
     794:	09000593          	li	a1,144
     798:	00000613          	li	a2,0
     79c:	bf1ff0ef          	jal	38c <core_list_mergesort>
     7a0:	00052403          	lw	s0,0(a0)
     7a4:	00050913          	mv	s2,a0
     7a8:	02040063          	beqz	s0,7c8 <core_bench_list+0x280>
     7ac:	00492783          	lw	a5,4(s2)
     7b0:	00048593          	mv	a1,s1
     7b4:	00079503          	lh	a0,0(a5)
     7b8:	664010ef          	jal	1e1c <crc16>
     7bc:	00042403          	lw	s0,0(s0)
     7c0:	00050493          	mv	s1,a0
     7c4:	fe0414e3          	bnez	s0,7ac <core_bench_list+0x264>
     7c8:	01c12083          	lw	ra,28(sp)
     7cc:	01812403          	lw	s0,24(sp)
     7d0:	01012903          	lw	s2,16(sp)
     7d4:	00c12983          	lw	s3,12(sp)
     7d8:	00812a03          	lw	s4,8(sp)
     7dc:	00412a83          	lw	s5,4(sp)
     7e0:	00048513          	mv	a0,s1
     7e4:	01412483          	lw	s1,20(sp)
     7e8:	02010113          	addi	sp,sp,32
     7ec:	00008067          	ret
     7f0:	00092903          	lw	s2,0(s2)
     7f4:	00090a63          	beqz	s2,808 <core_bench_list+0x2c0>
     7f8:	00492783          	lw	a5,4(s2)
     7fc:	0007c783          	lbu	a5,0(a5)
     800:	fefa18e3          	bne	s4,a5,7f0 <core_bench_list+0x2a8>
     804:	f51ff06f          	j	754 <core_bench_list+0x20c>
     808:	00042903          	lw	s2,0(s0)
     80c:	f60906e3          	beqz	s2,778 <core_bench_list+0x230>
     810:	00442783          	lw	a5,4(s0)
     814:	00048593          	mv	a1,s1
     818:	00079503          	lh	a0,0(a5)
     81c:	600010ef          	jal	1e1c <crc16>
     820:	00092903          	lw	s2,0(s2)
     824:	00050493          	mv	s1,a0
     828:	f20916e3          	bnez	s2,754 <core_bench_list+0x20c>
     82c:	f45ff06f          	j	770 <core_bench_list+0x228>
     830:	00058993          	mv	s3,a1
     834:	00000493          	li	s1,0
     838:	ec5ff06f          	j	6fc <core_bench_list+0x1b4>
     83c:	02040263          	beqz	s0,860 <core_bench_list+0x318>
     840:	00058813          	mv	a6,a1
     844:	00040793          	mv	a5,s0
     848:	00000893          	li	a7,0
     84c:	00000313          	li	t1,0
     850:	00000693          	li	a3,0
     854:	00000e93          	li	t4,0
     858:	00000e13          	li	t3,0
     85c:	e15ff06f          	j	670 <core_bench_list+0x128>
     860:	00002783          	lw	a5,0(zero) # 0 <_mystart>
     864:	00100073          	ebreak

00000868 <core_list_init>:
     868:	fe010113          	addi	sp,sp,-32
     86c:	01212823          	sw	s2,16(sp)
     870:	00058913          	mv	s2,a1
     874:	01400593          	li	a1,20
     878:	00812c23          	sw	s0,24(sp)
     87c:	01312623          	sw	s3,12(sp)
     880:	00112e23          	sw	ra,28(sp)
     884:	00060993          	mv	s3,a2
     888:	00912a23          	sw	s1,20(sp)
     88c:	15c020ef          	jal	29e8 <__hidden___udivsi3>
     890:	ffe50513          	addi	a0,a0,-2
     894:	00351613          	slli	a2,a0,0x3
     898:	00c90633          	add	a2,s2,a2
     89c:	ffff87b7          	lui	a5,0xffff8
     8a0:	00092023          	sw	zero,0(s2)
     8a4:	00c92223          	sw	a2,4(s2)
     8a8:	08078793          	addi	a5,a5,128 # ffff8080 <_ctype_+0xfffd6838>
     8ac:	00251e13          	slli	t3,a0,0x2
     8b0:	00061123          	sh	zero,2(a2)
     8b4:	00f61023          	sh	a5,0(a2)
     8b8:	01090693          	addi	a3,s2,16
     8bc:	01c60e33          	add	t3,a2,t3
     8c0:	00460713          	addi	a4,a2,4
     8c4:	00890413          	addi	s0,s2,8
     8c8:	12c6fc63          	bgeu	a3,a2,a00 <core_list_init+0x198>
     8cc:	00860893          	addi	a7,a2,8
     8d0:	13c8f863          	bgeu	a7,t3,a00 <core_list_init+0x198>
     8d4:	ffff87b7          	lui	a5,0xffff8
     8d8:	00e92623          	sw	a4,12(s2)
     8dc:	00092423          	sw	zero,8(s2)
     8e0:	00892023          	sw	s0,0(s2)
     8e4:	fff7c793          	not	a5,a5
     8e8:	fff00713          	li	a4,-1
     8ec:	00f61323          	sh	a5,6(a2)
     8f0:	00e61223          	sh	a4,4(a2)
     8f4:	06050a63          	beqz	a0,968 <core_list_init+0x100>
     8f8:	01099e93          	slli	t4,s3,0x10
     8fc:	ffff8f37          	lui	t5,0xffff8
     900:	010ede93          	srli	t4,t4,0x10
     904:	ffff4f13          	not	t5,t5
     908:	00000813          	li	a6,0
     90c:	01081713          	slli	a4,a6,0x10
     910:	01075713          	srli	a4,a4,0x10
     914:	01d747b3          	xor	a5,a4,t4
     918:	00379793          	slli	a5,a5,0x3
     91c:	00777713          	andi	a4,a4,7
     920:	0787f793          	andi	a5,a5,120
     924:	00e7e7b3          	or	a5,a5,a4
     928:	00879593          	slli	a1,a5,0x8
     92c:	00868313          	addi	t1,a3,8
     930:	00180813          	addi	a6,a6,1 # ffff8001 <_ctype_+0xfffd67b9>
     934:	00488713          	addi	a4,a7,4
     938:	00b787b3          	add	a5,a5,a1
     93c:	02c37463          	bgeu	t1,a2,964 <core_list_init+0xfc>
     940:	03c77263          	bgeu	a4,t3,964 <core_list_init+0xfc>
     944:	0086a023          	sw	s0,0(a3)
     948:	00d92023          	sw	a3,0(s2)
     94c:	0116a223          	sw	a7,4(a3)
     950:	00f89023          	sh	a5,0(a7)
     954:	01e89123          	sh	t5,2(a7)
     958:	00068413          	mv	s0,a3
     95c:	00070893          	mv	a7,a4
     960:	00030693          	mv	a3,t1
     964:	fb0514e3          	bne	a0,a6,90c <core_list_init+0xa4>
     968:	00042483          	lw	s1,0(s0)
     96c:	06048663          	beqz	s1,9d8 <core_list_init+0x170>
     970:	00500593          	li	a1,5
     974:	074020ef          	jal	29e8 <__hidden___udivsi3>
     978:	000045b7          	lui	a1,0x4
     97c:	fff58593          	addi	a1,a1,-1 # 3fff <__muldf3+0x23>
     980:	20000713          	li	a4,512
     984:	00100693          	li	a3,1
     988:	0080006f          	j	990 <core_list_init+0x128>
     98c:	00080493          	mv	s1,a6
     990:	00d9c633          	xor	a2,s3,a3
     994:	70077793          	andi	a5,a4,1792
     998:	00c7e7b3          	or	a5,a5,a2
     99c:	00b7f7b3          	and	a5,a5,a1
     9a0:	01079793          	slli	a5,a5,0x10
     9a4:	00442603          	lw	a2,4(s0)
     9a8:	4107d793          	srai	a5,a5,0x10
     9ac:	00a6f663          	bgeu	a3,a0,9b8 <core_list_init+0x150>
     9b0:	01069793          	slli	a5,a3,0x10
     9b4:	4107d793          	srai	a5,a5,0x10
     9b8:	0004a803          	lw	a6,0(s1)
     9bc:	10070713          	addi	a4,a4,256
     9c0:	01071713          	slli	a4,a4,0x10
     9c4:	00f61123          	sh	a5,2(a2)
     9c8:	01075713          	srli	a4,a4,0x10
     9cc:	00168693          	addi	a3,a3,1
     9d0:	00048413          	mv	s0,s1
     9d4:	fa081ce3          	bnez	a6,98c <core_list_init+0x124>
     9d8:	01812403          	lw	s0,24(sp)
     9dc:	01c12083          	lw	ra,28(sp)
     9e0:	01412483          	lw	s1,20(sp)
     9e4:	00c12983          	lw	s3,12(sp)
     9e8:	00090513          	mv	a0,s2
     9ec:	01012903          	lw	s2,16(sp)
     9f0:	09000593          	li	a1,144
     9f4:	00000613          	li	a2,0
     9f8:	02010113          	addi	sp,sp,32
     9fc:	991ff06f          	j	38c <core_list_mergesort>
     a00:	00040693          	mv	a3,s0
     a04:	00070893          	mv	a7,a4
     a08:	00000413          	li	s0,0
     a0c:	ee9ff06f          	j	8f4 <core_list_init+0x8c>

00000a10 <iterate>:
     a10:	ff010113          	addi	sp,sp,-16
     a14:	01212023          	sw	s2,0(sp)
     a18:	01c52903          	lw	s2,28(a0)
     a1c:	00112623          	sw	ra,12(sp)
     a20:	02052c23          	sw	zero,56(a0)
     a24:	02052e23          	sw	zero,60(a0)
     a28:	04090e63          	beqz	s2,a84 <iterate+0x74>
     a2c:	00812423          	sw	s0,8(sp)
     a30:	00912223          	sw	s1,4(sp)
     a34:	00050413          	mv	s0,a0
     a38:	00000493          	li	s1,0
     a3c:	00100593          	li	a1,1
     a40:	00040513          	mv	a0,s0
     a44:	b05ff0ef          	jal	548 <core_bench_list>
     a48:	03845583          	lhu	a1,56(s0)
     a4c:	22c010ef          	jal	1c78 <crcu16>
     a50:	02a41c23          	sh	a0,56(s0)
     a54:	fff00593          	li	a1,-1
     a58:	00040513          	mv	a0,s0
     a5c:	aedff0ef          	jal	548 <core_bench_list>
     a60:	03845583          	lhu	a1,56(s0)
     a64:	214010ef          	jal	1c78 <crcu16>
     a68:	02a41c23          	sh	a0,56(s0)
     a6c:	00049463          	bnez	s1,a74 <iterate+0x64>
     a70:	02a41d23          	sh	a0,58(s0)
     a74:	00148493          	addi	s1,s1,1
     a78:	fc9912e3          	bne	s2,s1,a3c <iterate+0x2c>
     a7c:	00812403          	lw	s0,8(sp)
     a80:	00412483          	lw	s1,4(sp)
     a84:	00c12083          	lw	ra,12(sp)
     a88:	00012903          	lw	s2,0(sp)
     a8c:	00000513          	li	a0,0
     a90:	01010113          	addi	sp,sp,16
     a94:	00008067          	ret

00000a98 <core_init_matrix>:
     a98:	fb010113          	addi	sp,sp,-80
     a9c:	04912223          	sw	s1,68(sp)
     aa0:	03712623          	sw	s7,44(sp)
     aa4:	03912223          	sw	s9,36(sp)
     aa8:	04112623          	sw	ra,76(sp)
     aac:	04812423          	sw	s0,72(sp)
     ab0:	05212023          	sw	s2,64(sp)
     ab4:	03612823          	sw	s6,48(sp)
     ab8:	00050493          	mv	s1,a0
     abc:	00068c93          	mv	s9,a3
     ac0:	00060b93          	mv	s7,a2
     ac4:	00061463          	bnez	a2,acc <core_init_matrix+0x34>
     ac8:	00100b93          	li	s7,1
     acc:	fff58593          	addi	a1,a1,-1
     ad0:	ffc5fb13          	andi	s6,a1,-4
     ad4:	004b0793          	addi	a5,s6,4
     ad8:	00f12223          	sw	a5,4(sp)
     adc:	00000413          	li	s0,0
     ae0:	14048c63          	beqz	s1,c38 <core_init_matrix+0x1a0>
     ae4:	00040913          	mv	s2,s0
     ae8:	00140413          	addi	s0,s0,1
     aec:	00040593          	mv	a1,s0
     af0:	00040513          	mv	a0,s0
     af4:	6c9010ef          	jal	29bc <__mulsi3>
     af8:	00351513          	slli	a0,a0,0x3
     afc:	fe9564e3          	bltu	a0,s1,ae4 <core_init_matrix+0x4c>
     b00:	00090593          	mv	a1,s2
     b04:	00090513          	mv	a0,s2
     b08:	6b5010ef          	jal	29bc <__mulsi3>
     b0c:	00412703          	lw	a4,4(sp)
     b10:	00151793          	slli	a5,a0,0x1
     b14:	00f12423          	sw	a5,8(sp)
     b18:	00f70b33          	add	s6,a4,a5
     b1c:	14090663          	beqz	s2,c68 <core_init_matrix+0x1d0>
     b20:	03312e23          	sw	s3,60(sp)
     b24:	03412c23          	sw	s4,56(sp)
     b28:	03512a23          	sw	s5,52(sp)
     b2c:	03812423          	sw	s8,40(sp)
     b30:	03a12023          	sw	s10,32(sp)
     b34:	01b12e23          	sw	s11,28(sp)
     b38:	01212623          	sw	s2,12(sp)
     b3c:	00412783          	lw	a5,4(sp)
     b40:	00190413          	addi	s0,s2,1
     b44:	00191c13          	slli	s8,s2,0x1
     b48:	000b0a13          	mv	s4,s6
     b4c:	00000993          	li	s3,0
     b50:	00100d93          	li	s11,1
     b54:	416784b3          	sub	s1,a5,s6
     b58:	000d8a93          	mv	s5,s11
     b5c:	000a0d13          	mv	s10,s4
     b60:	000b8513          	mv	a0,s7
     b64:	000d8593          	mv	a1,s11
     b68:	655010ef          	jal	29bc <__mulsi3>
     b6c:	41f55713          	srai	a4,a0,0x1f
     b70:	01075713          	srli	a4,a4,0x10
     b74:	00e50633          	add	a2,a0,a4
     b78:	01061613          	slli	a2,a2,0x10
     b7c:	010d9793          	slli	a5,s11,0x10
     b80:	01065613          	srli	a2,a2,0x10
     b84:	0107d793          	srli	a5,a5,0x10
     b88:	40e60bb3          	sub	s7,a2,a4
     b8c:	01778733          	add	a4,a5,s7
     b90:	01071713          	slli	a4,a4,0x10
     b94:	01075713          	srli	a4,a4,0x10
     b98:	00f707b3          	add	a5,a4,a5
     b9c:	01a48533          	add	a0,s1,s10
     ba0:	00ed1023          	sh	a4,0(s10)
     ba4:	0ff7f793          	zext.b	a5,a5
     ba8:	001d8d93          	addi	s11,s11,1
     bac:	00f51023          	sh	a5,0(a0)
     bb0:	002d0d13          	addi	s10,s10,2
     bb4:	fa8d96e3          	bne	s11,s0,b60 <core_init_matrix+0xc8>
     bb8:	00198993          	addi	s3,s3,1
     bbc:	01590db3          	add	s11,s2,s5
     bc0:	01240433          	add	s0,s0,s2
     bc4:	018a0a33          	add	s4,s4,s8
     bc8:	f92998e3          	bne	s3,s2,b58 <core_init_matrix+0xc0>
     bcc:	03c12983          	lw	s3,60(sp)
     bd0:	03812a03          	lw	s4,56(sp)
     bd4:	03412a83          	lw	s5,52(sp)
     bd8:	02812c03          	lw	s8,40(sp)
     bdc:	02012d03          	lw	s10,32(sp)
     be0:	01c12d83          	lw	s11,28(sp)
     be4:	00812783          	lw	a5,8(sp)
     be8:	04c12083          	lw	ra,76(sp)
     bec:	04812403          	lw	s0,72(sp)
     bf0:	00fb07b3          	add	a5,s6,a5
     bf4:	fff78793          	addi	a5,a5,-1 # ffff7fff <_ctype_+0xfffd67b7>
     bf8:	ffc7f793          	andi	a5,a5,-4
     bfc:	00478793          	addi	a5,a5,4
     c00:	00fca623          	sw	a5,12(s9)
     c04:	00412783          	lw	a5,4(sp)
     c08:	016ca423          	sw	s6,8(s9)
     c0c:	04412483          	lw	s1,68(sp)
     c10:	00fca223          	sw	a5,4(s9)
     c14:	00c12783          	lw	a5,12(sp)
     c18:	03012b03          	lw	s6,48(sp)
     c1c:	02c12b83          	lw	s7,44(sp)
     c20:	00fca023          	sw	a5,0(s9)
     c24:	00090513          	mv	a0,s2
     c28:	02412c83          	lw	s9,36(sp)
     c2c:	04012903          	lw	s2,64(sp)
     c30:	05010113          	addi	sp,sp,80
     c34:	00008067          	ret
     c38:	fff00913          	li	s2,-1
     c3c:	00200793          	li	a5,2
     c40:	03312e23          	sw	s3,60(sp)
     c44:	03412c23          	sw	s4,56(sp)
     c48:	03512a23          	sw	s5,52(sp)
     c4c:	03812423          	sw	s8,40(sp)
     c50:	03a12023          	sw	s10,32(sp)
     c54:	01b12e23          	sw	s11,28(sp)
     c58:	01212623          	sw	s2,12(sp)
     c5c:	006b0b13          	addi	s6,s6,6
     c60:	00f12423          	sw	a5,8(sp)
     c64:	ed9ff06f          	j	b3c <core_init_matrix+0xa4>
     c68:	00012423          	sw	zero,8(sp)
     c6c:	00012623          	sw	zero,12(sp)
     c70:	f75ff06f          	j	be4 <core_init_matrix+0x14c>

00000c74 <matrix_sum>:
     c74:	00050e93          	mv	t4,a0
     c78:	08050463          	beqz	a0,d00 <matrix_sum+0x8c>
     c7c:	00251f93          	slli	t6,a0,0x2
     c80:	40a00f33          	neg	t5,a0
     c84:	01f588b3          	add	a7,a1,t6
     c88:	003f1f13          	slli	t5,t5,0x3
     c8c:	00000313          	li	t1,0
     c90:	00000513          	li	a0,0
     c94:	00000693          	li	a3,0
     c98:	00000813          	li	a6,0
     c9c:	41f88e33          	sub	t3,a7,t6
     ca0:	000e0713          	mv	a4,t3
     ca4:	0140006f          	j	cb8 <matrix_sum+0x44>
     ca8:	01079513          	slli	a0,a5,0x10
     cac:	00470713          	addi	a4,a4,4
     cb0:	41055513          	srai	a0,a0,0x10
     cb4:	02e88e63          	beq	a7,a4,cf0 <matrix_sum+0x7c>
     cb8:	00068593          	mv	a1,a3
     cbc:	01051793          	slli	a5,a0,0x10
     cc0:	00072683          	lw	a3,0(a4)
     cc4:	0107d793          	srli	a5,a5,0x10
     cc8:	00a78513          	addi	a0,a5,10
     ccc:	00d5a5b3          	slt	a1,a1,a3
     cd0:	01051513          	slli	a0,a0,0x10
     cd4:	00d80833          	add	a6,a6,a3
     cd8:	41055513          	srai	a0,a0,0x10
     cdc:	00b787b3          	add	a5,a5,a1
     ce0:	fd0654e3          	bge	a2,a6,ca8 <matrix_sum+0x34>
     ce4:	00470713          	addi	a4,a4,4
     ce8:	00000813          	li	a6,0
     cec:	fce896e3          	bne	a7,a4,cb8 <matrix_sum+0x44>
     cf0:	00130313          	addi	t1,t1,1
     cf4:	41ee08b3          	sub	a7,t3,t5
     cf8:	fa6e92e3          	bne	t4,t1,c9c <matrix_sum+0x28>
     cfc:	00008067          	ret
     d00:	00000513          	li	a0,0
     d04:	00008067          	ret

00000d08 <matrix_mul_const>:
     d08:	0c050863          	beqz	a0,dd8 <matrix_mul_const+0xd0>
     d0c:	fd010113          	addi	sp,sp,-48
     d10:	01812423          	sw	s8,8(sp)
     d14:	01a12023          	sw	s10,0(sp)
     d18:	40a00c33          	neg	s8,a0
     d1c:	00151d13          	slli	s10,a0,0x1
     d20:	03212023          	sw	s2,32(sp)
     d24:	01312e23          	sw	s3,28(sp)
     d28:	01412c23          	sw	s4,24(sp)
     d2c:	01512a23          	sw	s5,20(sp)
     d30:	01712623          	sw	s7,12(sp)
     d34:	01912223          	sw	s9,4(sp)
     d38:	02112623          	sw	ra,44(sp)
     d3c:	02812423          	sw	s0,40(sp)
     d40:	02912223          	sw	s1,36(sp)
     d44:	01612823          	sw	s6,16(sp)
     d48:	00050b93          	mv	s7,a0
     d4c:	00058c93          	mv	s9,a1
     d50:	00068993          	mv	s3,a3
     d54:	01a60933          	add	s2,a2,s10
     d58:	002c1c13          	slli	s8,s8,0x2
     d5c:	00000a93          	li	s5,0
     d60:	00000a13          	li	s4,0
     d64:	41a90b33          	sub	s6,s2,s10
     d68:	002a9493          	slli	s1,s5,0x2
     d6c:	000b0413          	mv	s0,s6
     d70:	009c84b3          	add	s1,s9,s1
     d74:	00041503          	lh	a0,0(s0)
     d78:	00098593          	mv	a1,s3
     d7c:	00240413          	addi	s0,s0,2
     d80:	43d010ef          	jal	29bc <__mulsi3>
     d84:	00a4a023          	sw	a0,0(s1)
     d88:	00448493          	addi	s1,s1,4
     d8c:	ff2414e3          	bne	s0,s2,d74 <matrix_mul_const+0x6c>
     d90:	001a0a13          	addi	s4,s4,1
     d94:	017a8ab3          	add	s5,s5,s7
     d98:	418b0933          	sub	s2,s6,s8
     d9c:	fd4b94e3          	bne	s7,s4,d64 <matrix_mul_const+0x5c>
     da0:	02c12083          	lw	ra,44(sp)
     da4:	02812403          	lw	s0,40(sp)
     da8:	02412483          	lw	s1,36(sp)
     dac:	02012903          	lw	s2,32(sp)
     db0:	01c12983          	lw	s3,28(sp)
     db4:	01812a03          	lw	s4,24(sp)
     db8:	01412a83          	lw	s5,20(sp)
     dbc:	01012b03          	lw	s6,16(sp)
     dc0:	00c12b83          	lw	s7,12(sp)
     dc4:	00812c03          	lw	s8,8(sp)
     dc8:	00412c83          	lw	s9,4(sp)
     dcc:	00012d03          	lw	s10,0(sp)
     dd0:	03010113          	addi	sp,sp,48
     dd4:	00008067          	ret
     dd8:	00008067          	ret

00000ddc <matrix_add_const>:
     ddc:	04050463          	beqz	a0,e24 <matrix_add_const+0x48>
     de0:	00151313          	slli	t1,a0,0x1
     de4:	40a008b3          	neg	a7,a0
     de8:	01061613          	slli	a2,a2,0x10
     dec:	006586b3          	add	a3,a1,t1
     df0:	01065613          	srli	a2,a2,0x10
     df4:	00289893          	slli	a7,a7,0x2
     df8:	00000593          	li	a1,0
     dfc:	40668833          	sub	a6,a3,t1
     e00:	00080793          	mv	a5,a6
     e04:	0007d703          	lhu	a4,0(a5)
     e08:	00278793          	addi	a5,a5,2
     e0c:	00e60733          	add	a4,a2,a4
     e10:	fee79f23          	sh	a4,-2(a5)
     e14:	fef698e3          	bne	a3,a5,e04 <matrix_add_const+0x28>
     e18:	00158593          	addi	a1,a1,1
     e1c:	411806b3          	sub	a3,a6,a7
     e20:	fcb51ee3          	bne	a0,a1,dfc <matrix_add_const+0x20>
     e24:	00008067          	ret

00000e28 <matrix_mul_vect>:
     e28:	0c050463          	beqz	a0,ef0 <matrix_mul_vect+0xc8>
     e2c:	fd010113          	addi	sp,sp,-48
     e30:	01312e23          	sw	s3,28(sp)
     e34:	01612823          	sw	s6,16(sp)
     e38:	00151993          	slli	s3,a0,0x1
     e3c:	00251b13          	slli	s6,a0,0x2
     e40:	01412c23          	sw	s4,24(sp)
     e44:	01512a23          	sw	s5,20(sp)
     e48:	01712623          	sw	s7,12(sp)
     e4c:	01812423          	sw	s8,8(sp)
     e50:	01912223          	sw	s9,4(sp)
     e54:	02112623          	sw	ra,44(sp)
     e58:	02812423          	sw	s0,40(sp)
     e5c:	02912223          	sw	s1,36(sp)
     e60:	03212023          	sw	s2,32(sp)
     e64:	00050a93          	mv	s5,a0
     e68:	00060c13          	mv	s8,a2
     e6c:	00068b93          	mv	s7,a3
     e70:	00058a13          	mv	s4,a1
     e74:	01658b33          	add	s6,a1,s6
     e78:	013689b3          	add	s3,a3,s3
     e7c:	00000c93          	li	s9,0
     e80:	001c9493          	slli	s1,s9,0x1
     e84:	009c04b3          	add	s1,s8,s1
     e88:	000b8413          	mv	s0,s7
     e8c:	00000913          	li	s2,0
     e90:	00041583          	lh	a1,0(s0)
     e94:	00049503          	lh	a0,0(s1)
     e98:	00240413          	addi	s0,s0,2
     e9c:	00248493          	addi	s1,s1,2
     ea0:	31d010ef          	jal	29bc <__mulsi3>
     ea4:	00a90933          	add	s2,s2,a0
     ea8:	fe8994e3          	bne	s3,s0,e90 <matrix_mul_vect+0x68>
     eac:	012a2023          	sw	s2,0(s4)
     eb0:	004a0a13          	addi	s4,s4,4
     eb4:	015c8cb3          	add	s9,s9,s5
     eb8:	fd4b14e3          	bne	s6,s4,e80 <matrix_mul_vect+0x58>
     ebc:	02c12083          	lw	ra,44(sp)
     ec0:	02812403          	lw	s0,40(sp)
     ec4:	02412483          	lw	s1,36(sp)
     ec8:	02012903          	lw	s2,32(sp)
     ecc:	01c12983          	lw	s3,28(sp)
     ed0:	01812a03          	lw	s4,24(sp)
     ed4:	01412a83          	lw	s5,20(sp)
     ed8:	01012b03          	lw	s6,16(sp)
     edc:	00c12b83          	lw	s7,12(sp)
     ee0:	00812c03          	lw	s8,8(sp)
     ee4:	00412c83          	lw	s9,4(sp)
     ee8:	03010113          	addi	sp,sp,48
     eec:	00008067          	ret
     ef0:	00008067          	ret

00000ef4 <matrix_mul_matrix>:
     ef4:	fb010113          	addi	sp,sp,-80
     ef8:	04112623          	sw	ra,76(sp)
     efc:	00b12423          	sw	a1,8(sp)
     f00:	00d12623          	sw	a3,12(sp)
     f04:	0e050863          	beqz	a0,ff4 <matrix_mul_matrix+0x100>
     f08:	04912223          	sw	s1,68(sp)
     f0c:	00151493          	slli	s1,a0,0x1
     f10:	05212023          	sw	s2,64(sp)
     f14:	03612823          	sw	s6,48(sp)
     f18:	03712623          	sw	s7,44(sp)
     f1c:	03812423          	sw	s8,40(sp)
     f20:	03912223          	sw	s9,36(sp)
     f24:	04812423          	sw	s0,72(sp)
     f28:	03312e23          	sw	s3,60(sp)
     f2c:	03412c23          	sw	s4,56(sp)
     f30:	03512a23          	sw	s5,52(sp)
     f34:	03a12023          	sw	s10,32(sp)
     f38:	01b12e23          	sw	s11,28(sp)
     f3c:	00050b93          	mv	s7,a0
     f40:	00060b13          	mv	s6,a2
     f44:	00960933          	add	s2,a2,s1
     f48:	00000c13          	li	s8,0
     f4c:	00000c93          	li	s9,0
     f50:	00812783          	lw	a5,8(sp)
     f54:	00c12a03          	lw	s4,12(sp)
     f58:	002c1993          	slli	s3,s8,0x2
     f5c:	013789b3          	add	s3,a5,s3
     f60:	00000a93          	li	s5,0
     f64:	000a0d93          	mv	s11,s4
     f68:	000b0413          	mv	s0,s6
     f6c:	00000d13          	li	s10,0
     f70:	000d9583          	lh	a1,0(s11)
     f74:	00041503          	lh	a0,0(s0)
     f78:	00240413          	addi	s0,s0,2
     f7c:	009d8db3          	add	s11,s11,s1
     f80:	23d010ef          	jal	29bc <__mulsi3>
     f84:	00ad0d33          	add	s10,s10,a0
     f88:	fe8914e3          	bne	s2,s0,f70 <matrix_mul_matrix+0x7c>
     f8c:	01a9a023          	sw	s10,0(s3)
     f90:	001a8793          	addi	a5,s5,1
     f94:	00498993          	addi	s3,s3,4
     f98:	002a0a13          	addi	s4,s4,2
     f9c:	00fb8663          	beq	s7,a5,fa8 <matrix_mul_matrix+0xb4>
     fa0:	00078a93          	mv	s5,a5
     fa4:	fc1ff06f          	j	f64 <matrix_mul_matrix+0x70>
     fa8:	009b0b33          	add	s6,s6,s1
     fac:	017c0c33          	add	s8,s8,s7
     fb0:	00990933          	add	s2,s2,s1
     fb4:	001c8793          	addi	a5,s9,1
     fb8:	015c8663          	beq	s9,s5,fc4 <matrix_mul_matrix+0xd0>
     fbc:	00078c93          	mv	s9,a5
     fc0:	f91ff06f          	j	f50 <matrix_mul_matrix+0x5c>
     fc4:	04812403          	lw	s0,72(sp)
     fc8:	04412483          	lw	s1,68(sp)
     fcc:	04012903          	lw	s2,64(sp)
     fd0:	03c12983          	lw	s3,60(sp)
     fd4:	03812a03          	lw	s4,56(sp)
     fd8:	03412a83          	lw	s5,52(sp)
     fdc:	03012b03          	lw	s6,48(sp)
     fe0:	02c12b83          	lw	s7,44(sp)
     fe4:	02812c03          	lw	s8,40(sp)
     fe8:	02412c83          	lw	s9,36(sp)
     fec:	02012d03          	lw	s10,32(sp)
     ff0:	01c12d83          	lw	s11,28(sp)
     ff4:	04c12083          	lw	ra,76(sp)
     ff8:	05010113          	addi	sp,sp,80
     ffc:	00008067          	ret

00001000 <matrix_mul_matrix_bitextract>:
    1000:	fb010113          	addi	sp,sp,-80
    1004:	04112623          	sw	ra,76(sp)
    1008:	00b12423          	sw	a1,8(sp)
    100c:	00d12623          	sw	a3,12(sp)
    1010:	10050263          	beqz	a0,1114 <matrix_mul_matrix_bitextract+0x114>
    1014:	04812423          	sw	s0,72(sp)
    1018:	00151413          	slli	s0,a0,0x1
    101c:	04912223          	sw	s1,68(sp)
    1020:	03512a23          	sw	s5,52(sp)
    1024:	03612823          	sw	s6,48(sp)
    1028:	03712623          	sw	s7,44(sp)
    102c:	03812423          	sw	s8,40(sp)
    1030:	05212023          	sw	s2,64(sp)
    1034:	03312e23          	sw	s3,60(sp)
    1038:	03412c23          	sw	s4,56(sp)
    103c:	03912223          	sw	s9,36(sp)
    1040:	03a12023          	sw	s10,32(sp)
    1044:	01b12e23          	sw	s11,28(sp)
    1048:	00050b13          	mv	s6,a0
    104c:	00060a93          	mv	s5,a2
    1050:	008604b3          	add	s1,a2,s0
    1054:	00000b93          	li	s7,0
    1058:	00000c13          	li	s8,0
    105c:	00812783          	lw	a5,8(sp)
    1060:	00c12983          	lw	s3,12(sp)
    1064:	002b9913          	slli	s2,s7,0x2
    1068:	01278933          	add	s2,a5,s2
    106c:	00000a13          	li	s4,0
    1070:	00098d13          	mv	s10,s3
    1074:	000a8d93          	mv	s11,s5
    1078:	00000c93          	li	s9,0
    107c:	000d1583          	lh	a1,0(s10)
    1080:	000d9503          	lh	a0,0(s11)
    1084:	002d8d93          	addi	s11,s11,2
    1088:	008d0d33          	add	s10,s10,s0
    108c:	131010ef          	jal	29bc <__mulsi3>
    1090:	40255693          	srai	a3,a0,0x2
    1094:	40555593          	srai	a1,a0,0x5
    1098:	07f5f593          	andi	a1,a1,127
    109c:	00f6f513          	andi	a0,a3,15
    10a0:	11d010ef          	jal	29bc <__mulsi3>
    10a4:	00ac8cb3          	add	s9,s9,a0
    10a8:	fdb49ae3          	bne	s1,s11,107c <matrix_mul_matrix_bitextract+0x7c>
    10ac:	01992023          	sw	s9,0(s2)
    10b0:	001a0793          	addi	a5,s4,1
    10b4:	00490913          	addi	s2,s2,4
    10b8:	00298993          	addi	s3,s3,2
    10bc:	00fb0663          	beq	s6,a5,10c8 <matrix_mul_matrix_bitextract+0xc8>
    10c0:	00078a13          	mv	s4,a5
    10c4:	fadff06f          	j	1070 <matrix_mul_matrix_bitextract+0x70>
    10c8:	008a8ab3          	add	s5,s5,s0
    10cc:	016b8bb3          	add	s7,s7,s6
    10d0:	008484b3          	add	s1,s1,s0
    10d4:	001c0793          	addi	a5,s8,1
    10d8:	014c0663          	beq	s8,s4,10e4 <matrix_mul_matrix_bitextract+0xe4>
    10dc:	00078c13          	mv	s8,a5
    10e0:	f7dff06f          	j	105c <matrix_mul_matrix_bitextract+0x5c>
    10e4:	04812403          	lw	s0,72(sp)
    10e8:	04412483          	lw	s1,68(sp)
    10ec:	04012903          	lw	s2,64(sp)
    10f0:	03c12983          	lw	s3,60(sp)
    10f4:	03812a03          	lw	s4,56(sp)
    10f8:	03412a83          	lw	s5,52(sp)
    10fc:	03012b03          	lw	s6,48(sp)
    1100:	02c12b83          	lw	s7,44(sp)
    1104:	02812c03          	lw	s8,40(sp)
    1108:	02412c83          	lw	s9,36(sp)
    110c:	02012d03          	lw	s10,32(sp)
    1110:	01c12d83          	lw	s11,28(sp)
    1114:	04c12083          	lw	ra,76(sp)
    1118:	05010113          	addi	sp,sp,80
    111c:	00008067          	ret

00001120 <matrix_test>:
    1120:	fb010113          	addi	sp,sp,-80
    1124:	04912223          	sw	s1,68(sp)
    1128:	05212023          	sw	s2,64(sp)
    112c:	03712623          	sw	s7,44(sp)
    1130:	04112623          	sw	ra,76(sp)
    1134:	00070b93          	mv	s7,a4
    1138:	04812423          	sw	s0,72(sp)
    113c:	fffff737          	lui	a4,0xfffff
    1140:	03312e23          	sw	s3,60(sp)
    1144:	00c12423          	sw	a2,8(sp)
    1148:	00d12623          	sw	a3,12(sp)
    114c:	00058493          	mv	s1,a1
    1150:	00ebe933          	or	s2,s7,a4
    1154:	3a050e63          	beqz	a0,1510 <matrix_test+0x3f0>
    1158:	00812703          	lw	a4,8(sp)
    115c:	00151793          	slli	a5,a0,0x1
    1160:	03612823          	sw	s6,48(sp)
    1164:	00f709b3          	add	s3,a4,a5
    1168:	40a00b33          	neg	s6,a0
    116c:	010b9413          	slli	s0,s7,0x10
    1170:	03512a23          	sw	s5,52(sp)
    1174:	03412c23          	sw	s4,56(sp)
    1178:	03812423          	sw	s8,40(sp)
    117c:	03912223          	sw	s9,36(sp)
    1180:	03a12023          	sw	s10,32(sp)
    1184:	01b12e23          	sw	s11,28(sp)
    1188:	00050893          	mv	a7,a0
    118c:	00f12023          	sw	a5,0(sp)
    1190:	00098613          	mv	a2,s3
    1194:	002b1b13          	slli	s6,s6,0x2
    1198:	01045413          	srli	s0,s0,0x10
    119c:	00000a93          	li	s5,0
    11a0:	00012783          	lw	a5,0(sp)
    11a4:	40f605b3          	sub	a1,a2,a5
    11a8:	00058793          	mv	a5,a1
    11ac:	0007d683          	lhu	a3,0(a5)
    11b0:	00278793          	addi	a5,a5,2
    11b4:	00d406b3          	add	a3,s0,a3
    11b8:	fed79f23          	sh	a3,-2(a5)
    11bc:	fec798e3          	bne	a5,a2,11ac <matrix_test+0x8c>
    11c0:	001a8a13          	addi	s4,s5,1
    11c4:	41658633          	sub	a2,a1,s6
    11c8:	01488663          	beq	a7,s4,11d4 <matrix_test+0xb4>
    11cc:	000a0a93          	mv	s5,s4
    11d0:	fd1ff06f          	j	11a0 <matrix_test+0x80>
    11d4:	00000c13          	li	s8,0
    11d8:	00012223          	sw	zero,4(sp)
    11dc:	00012783          	lw	a5,0(sp)
    11e0:	002c1693          	slli	a3,s8,0x2
    11e4:	00968d33          	add	s10,a3,s1
    11e8:	40f98cb3          	sub	s9,s3,a5
    11ec:	000c8d93          	mv	s11,s9
    11f0:	000d9503          	lh	a0,0(s11)
    11f4:	000b8593          	mv	a1,s7
    11f8:	002d8d93          	addi	s11,s11,2
    11fc:	7c0010ef          	jal	29bc <__mulsi3>
    1200:	00ad2023          	sw	a0,0(s10)
    1204:	004d0d13          	addi	s10,s10,4
    1208:	ffb994e3          	bne	s3,s11,11f0 <matrix_test+0xd0>
    120c:	00412703          	lw	a4,4(sp)
    1210:	014c0c33          	add	s8,s8,s4
    1214:	416c89b3          	sub	s3,s9,s6
    1218:	00170793          	addi	a5,a4,1 # fffff001 <_ctype_+0xfffdd7b9>
    121c:	01570663          	beq	a4,s5,1228 <matrix_test+0x108>
    1220:	00f12223          	sw	a5,4(sp)
    1224:	fb9ff06f          	j	11dc <matrix_test+0xbc>
    1228:	41648bb3          	sub	s7,s1,s6
    122c:	41400c33          	neg	s8,s4
    1230:	000b8313          	mv	t1,s7
    1234:	003c1c13          	slli	s8,s8,0x3
    1238:	00000613          	li	a2,0
    123c:	00000893          	li	a7,0
    1240:	00000513          	li	a0,0
    1244:	00000e93          	li	t4,0
    1248:	01630e33          	add	t3,t1,s6
    124c:	000e0693          	mv	a3,t3
    1250:	0140006f          	j	1264 <matrix_test+0x144>
    1254:	01079513          	slli	a0,a5,0x10
    1258:	00468693          	addi	a3,a3,4
    125c:	41055513          	srai	a0,a0,0x10
    1260:	02d30e63          	beq	t1,a3,129c <matrix_test+0x17c>
    1264:	00060593          	mv	a1,a2
    1268:	01051793          	slli	a5,a0,0x10
    126c:	0006a603          	lw	a2,0(a3)
    1270:	0107d793          	srli	a5,a5,0x10
    1274:	00a78513          	addi	a0,a5,10
    1278:	00c5a5b3          	slt	a1,a1,a2
    127c:	01051513          	slli	a0,a0,0x10
    1280:	00c888b3          	add	a7,a7,a2
    1284:	41055513          	srai	a0,a0,0x10
    1288:	00b787b3          	add	a5,a5,a1
    128c:	fd1954e3          	bge	s2,a7,1254 <matrix_test+0x134>
    1290:	00468693          	addi	a3,a3,4
    1294:	00000893          	li	a7,0
    1298:	fcd316e3          	bne	t1,a3,1264 <matrix_test+0x144>
    129c:	418e0333          	sub	t1,t3,s8
    12a0:	001e8793          	addi	a5,t4,1
    12a4:	01da8663          	beq	s5,t4,12b0 <matrix_test+0x190>
    12a8:	00078e93          	mv	t4,a5
    12ac:	f9dff06f          	j	1248 <matrix_test+0x128>
    12b0:	00000593          	li	a1,0
    12b4:	369000ef          	jal	1e1c <crc16>
    12b8:	00812603          	lw	a2,8(sp)
    12bc:	00c12683          	lw	a3,12(sp)
    12c0:	00050993          	mv	s3,a0
    12c4:	00048593          	mv	a1,s1
    12c8:	000a0513          	mv	a0,s4
    12cc:	b5dff0ef          	jal	e28 <matrix_mul_vect>
    12d0:	00000613          	li	a2,0
    12d4:	00000893          	li	a7,0
    12d8:	00000513          	li	a0,0
    12dc:	00000e13          	li	t3,0
    12e0:	017b0333          	add	t1,s6,s7
    12e4:	00030693          	mv	a3,t1
    12e8:	0140006f          	j	12fc <matrix_test+0x1dc>
    12ec:	01079513          	slli	a0,a5,0x10
    12f0:	00468693          	addi	a3,a3,4
    12f4:	41055513          	srai	a0,a0,0x10
    12f8:	03768e63          	beq	a3,s7,1334 <matrix_test+0x214>
    12fc:	00060593          	mv	a1,a2
    1300:	01051793          	slli	a5,a0,0x10
    1304:	0006a603          	lw	a2,0(a3)
    1308:	0107d793          	srli	a5,a5,0x10
    130c:	00a78513          	addi	a0,a5,10
    1310:	00c5a5b3          	slt	a1,a1,a2
    1314:	01051513          	slli	a0,a0,0x10
    1318:	00c888b3          	add	a7,a7,a2
    131c:	41055513          	srai	a0,a0,0x10
    1320:	00b787b3          	add	a5,a5,a1
    1324:	fd1954e3          	bge	s2,a7,12ec <matrix_test+0x1cc>
    1328:	00468693          	addi	a3,a3,4
    132c:	00000893          	li	a7,0
    1330:	fd7696e3          	bne	a3,s7,12fc <matrix_test+0x1dc>
    1334:	41830bb3          	sub	s7,t1,s8
    1338:	001e0793          	addi	a5,t3,1
    133c:	015e0663          	beq	t3,s5,1348 <matrix_test+0x228>
    1340:	00078e13          	mv	t3,a5
    1344:	f9dff06f          	j	12e0 <matrix_test+0x1c0>
    1348:	00098593          	mv	a1,s3
    134c:	2d1000ef          	jal	1e1c <crc16>
    1350:	00c12683          	lw	a3,12(sp)
    1354:	00812603          	lw	a2,8(sp)
    1358:	00048593          	mv	a1,s1
    135c:	00050993          	mv	s3,a0
    1360:	000a0513          	mv	a0,s4
    1364:	b91ff0ef          	jal	ef4 <matrix_mul_matrix>
    1368:	00000e93          	li	t4,0
    136c:	00000693          	li	a3,0
    1370:	00000593          	li	a1,0
    1374:	00000513          	li	a0,0
    1378:	00000e13          	li	t3,0
    137c:	002e9893          	slli	a7,t4,0x2
    1380:	011488b3          	add	a7,s1,a7
    1384:	00000313          	li	t1,0
    1388:	0180006f          	j	13a0 <matrix_test+0x280>
    138c:	01079513          	slli	a0,a5,0x10
    1390:	00130313          	addi	t1,t1,1
    1394:	41055513          	srai	a0,a0,0x10
    1398:	00488893          	addi	a7,a7,4
    139c:	05437063          	bgeu	t1,s4,13dc <matrix_test+0x2bc>
    13a0:	00068613          	mv	a2,a3
    13a4:	01051793          	slli	a5,a0,0x10
    13a8:	0008a683          	lw	a3,0(a7)
    13ac:	0107d793          	srli	a5,a5,0x10
    13b0:	00a78513          	addi	a0,a5,10
    13b4:	00d62633          	slt	a2,a2,a3
    13b8:	01051513          	slli	a0,a0,0x10
    13bc:	00d585b3          	add	a1,a1,a3
    13c0:	41055513          	srai	a0,a0,0x10
    13c4:	00c787b3          	add	a5,a5,a2
    13c8:	fcb952e3          	bge	s2,a1,138c <matrix_test+0x26c>
    13cc:	00130313          	addi	t1,t1,1
    13d0:	00000593          	li	a1,0
    13d4:	00488893          	addi	a7,a7,4
    13d8:	fd4364e3          	bltu	t1,s4,13a0 <matrix_test+0x280>
    13dc:	001e0e13          	addi	t3,t3,1
    13e0:	014e8eb3          	add	t4,t4,s4
    13e4:	f94e6ce3          	bltu	t3,s4,137c <matrix_test+0x25c>
    13e8:	00098593          	mv	a1,s3
    13ec:	231000ef          	jal	1e1c <crc16>
    13f0:	00c12683          	lw	a3,12(sp)
    13f4:	00812603          	lw	a2,8(sp)
    13f8:	00048593          	mv	a1,s1
    13fc:	00050993          	mv	s3,a0
    1400:	000a0513          	mv	a0,s4
    1404:	bfdff0ef          	jal	1000 <matrix_mul_matrix_bitextract>
    1408:	00000e93          	li	t4,0
    140c:	00000693          	li	a3,0
    1410:	00000593          	li	a1,0
    1414:	00000513          	li	a0,0
    1418:	00000e13          	li	t3,0
    141c:	002e9893          	slli	a7,t4,0x2
    1420:	011488b3          	add	a7,s1,a7
    1424:	00000313          	li	t1,0
    1428:	0180006f          	j	1440 <matrix_test+0x320>
    142c:	01079513          	slli	a0,a5,0x10
    1430:	00130313          	addi	t1,t1,1
    1434:	41055513          	srai	a0,a0,0x10
    1438:	00488893          	addi	a7,a7,4
    143c:	05437063          	bgeu	t1,s4,147c <matrix_test+0x35c>
    1440:	00068613          	mv	a2,a3
    1444:	01051793          	slli	a5,a0,0x10
    1448:	0008a683          	lw	a3,0(a7)
    144c:	0107d793          	srli	a5,a5,0x10
    1450:	00a78513          	addi	a0,a5,10
    1454:	00d62633          	slt	a2,a2,a3
    1458:	01051513          	slli	a0,a0,0x10
    145c:	00d585b3          	add	a1,a1,a3
    1460:	41055513          	srai	a0,a0,0x10
    1464:	00c787b3          	add	a5,a5,a2
    1468:	fcb952e3          	bge	s2,a1,142c <matrix_test+0x30c>
    146c:	00130313          	addi	t1,t1,1
    1470:	00000593          	li	a1,0
    1474:	00488893          	addi	a7,a7,4
    1478:	fd4364e3          	bltu	t1,s4,1440 <matrix_test+0x320>
    147c:	001e0e13          	addi	t3,t3,1
    1480:	014e8eb3          	add	t4,t4,s4
    1484:	f94e6ce3          	bltu	t3,s4,141c <matrix_test+0x2fc>
    1488:	00098593          	mv	a1,s3
    148c:	191000ef          	jal	1e1c <crc16>
    1490:	00000593          	li	a1,0
    1494:	00000613          	li	a2,0
    1498:	00812703          	lw	a4,8(sp)
    149c:	00159793          	slli	a5,a1,0x1
    14a0:	00000693          	li	a3,0
    14a4:	00f707b3          	add	a5,a4,a5
    14a8:	0007d703          	lhu	a4,0(a5)
    14ac:	00168693          	addi	a3,a3,1
    14b0:	00278793          	addi	a5,a5,2
    14b4:	40870733          	sub	a4,a4,s0
    14b8:	fee79f23          	sh	a4,-2(a5)
    14bc:	ff46e6e3          	bltu	a3,s4,14a8 <matrix_test+0x388>
    14c0:	00160613          	addi	a2,a2,1
    14c4:	014585b3          	add	a1,a1,s4
    14c8:	fd4668e3          	bltu	a2,s4,1498 <matrix_test+0x378>
    14cc:	03812a03          	lw	s4,56(sp)
    14d0:	03412a83          	lw	s5,52(sp)
    14d4:	03012b03          	lw	s6,48(sp)
    14d8:	02812c03          	lw	s8,40(sp)
    14dc:	02412c83          	lw	s9,36(sp)
    14e0:	02012d03          	lw	s10,32(sp)
    14e4:	01c12d83          	lw	s11,28(sp)
    14e8:	04c12083          	lw	ra,76(sp)
    14ec:	04812403          	lw	s0,72(sp)
    14f0:	01051513          	slli	a0,a0,0x10
    14f4:	04412483          	lw	s1,68(sp)
    14f8:	04012903          	lw	s2,64(sp)
    14fc:	03c12983          	lw	s3,60(sp)
    1500:	02c12b83          	lw	s7,44(sp)
    1504:	41055513          	srai	a0,a0,0x10
    1508:	05010113          	addi	sp,sp,80
    150c:	00008067          	ret
    1510:	00000593          	li	a1,0
    1514:	109000ef          	jal	1e1c <crc16>
    1518:	00c12983          	lw	s3,12(sp)
    151c:	00812903          	lw	s2,8(sp)
    1520:	00050413          	mv	s0,a0
    1524:	00098693          	mv	a3,s3
    1528:	00090613          	mv	a2,s2
    152c:	00048593          	mv	a1,s1
    1530:	00000513          	li	a0,0
    1534:	8f5ff0ef          	jal	e28 <matrix_mul_vect>
    1538:	00040593          	mv	a1,s0
    153c:	00000513          	li	a0,0
    1540:	0dd000ef          	jal	1e1c <crc16>
    1544:	00098693          	mv	a3,s3
    1548:	00090613          	mv	a2,s2
    154c:	00050413          	mv	s0,a0
    1550:	00048593          	mv	a1,s1
    1554:	00000513          	li	a0,0
    1558:	99dff0ef          	jal	ef4 <matrix_mul_matrix>
    155c:	00040593          	mv	a1,s0
    1560:	00000513          	li	a0,0
    1564:	0b9000ef          	jal	1e1c <crc16>
    1568:	00050413          	mv	s0,a0
    156c:	00048593          	mv	a1,s1
    1570:	00098693          	mv	a3,s3
    1574:	00090613          	mv	a2,s2
    1578:	00000513          	li	a0,0
    157c:	a85ff0ef          	jal	1000 <matrix_mul_matrix_bitextract>
    1580:	00040593          	mv	a1,s0
    1584:	00000513          	li	a0,0
    1588:	095000ef          	jal	1e1c <crc16>
    158c:	f5dff06f          	j	14e8 <matrix_test+0x3c8>

00001590 <core_bench_matrix>:
    1590:	ff010113          	addi	sp,sp,-16
    1594:	00812423          	sw	s0,8(sp)
    1598:	00852683          	lw	a3,8(a0)
    159c:	00060413          	mv	s0,a2
    15a0:	00058713          	mv	a4,a1
    15a4:	00452603          	lw	a2,4(a0)
    15a8:	00c52583          	lw	a1,12(a0)
    15ac:	00052503          	lw	a0,0(a0)
    15b0:	00112623          	sw	ra,12(sp)
    15b4:	b6dff0ef          	jal	1120 <matrix_test>
    15b8:	00040593          	mv	a1,s0
    15bc:	00812403          	lw	s0,8(sp)
    15c0:	00c12083          	lw	ra,12(sp)
    15c4:	01010113          	addi	sp,sp,16
    15c8:	0550006f          	j	1e1c <crc16>

000015cc <core_init_state>:
    15cc:	fff50893          	addi	a7,a0,-1
    15d0:	00100e13          	li	t3,1
    15d4:	00060813          	mv	a6,a2
    15d8:	131e7c63          	bgeu	t3,a7,1710 <core_init_state+0x144>
    15dc:	01c585b3          	add	a1,a1,t3
    15e0:	01059593          	slli	a1,a1,0x10
    15e4:	0105d593          	srli	a1,a1,0x10
    15e8:	ff010113          	addi	sp,sp,-16
    15ec:	00021637          	lui	a2,0x21
    15f0:	0035d793          	srli	a5,a1,0x3
    15f4:	00812623          	sw	s0,12(sp)
    15f8:	00700313          	li	t1,7
    15fc:	0075f693          	andi	a3,a1,7
    1600:	c9060613          	addi	a2,a2,-880 # 20c90 <intpat>
    1604:	00000393          	li	t2,0
    1608:	00400e93          	li	t4,4
    160c:	02c00f13          	li	t5,44
    1610:	0037f793          	andi	a5,a5,3
    1614:	06668e63          	beq	a3,t1,1690 <core_init_state+0xc4>
    1618:	0cdee063          	bltu	t4,a3,16d8 <core_init_state+0x10c>
    161c:	ffd68693          	addi	a3,a3,-3
    1620:	01069693          	slli	a3,a3,0x10
    1624:	00279793          	slli	a5,a5,0x2
    1628:	0106d693          	srli	a3,a3,0x10
    162c:	00f607b3          	add	a5,a2,a5
    1630:	08de6e63          	bltu	t3,a3,16cc <core_init_state+0x100>
    1634:	0107a783          	lw	a5,16(a5)
    1638:	00800f93          	li	t6,8
    163c:	00138693          	addi	a3,t2,1
    1640:	01f68433          	add	s0,a3,t6
    1644:	07147463          	bgeu	s0,a7,16ac <core_init_state+0xe0>
    1648:	007803b3          	add	t2,a6,t2
    164c:	00038713          	mv	a4,t2
    1650:	01f782b3          	add	t0,a5,t6
    1654:	0007c683          	lbu	a3,0(a5)
    1658:	00178793          	addi	a5,a5,1
    165c:	00170713          	addi	a4,a4,1
    1660:	fed70fa3          	sb	a3,-1(a4)
    1664:	fef298e3          	bne	t0,a5,1654 <core_init_state+0x88>
    1668:	00158593          	addi	a1,a1,1
    166c:	01059593          	slli	a1,a1,0x10
    1670:	0105d593          	srli	a1,a1,0x10
    1674:	01f38733          	add	a4,t2,t6
    1678:	0035d793          	srli	a5,a1,0x3
    167c:	01e70023          	sb	t5,0(a4)
    1680:	0075f693          	andi	a3,a1,7
    1684:	00040393          	mv	t2,s0
    1688:	0037f793          	andi	a5,a5,3
    168c:	f86696e3          	bne	a3,t1,1618 <core_init_state+0x4c>
    1690:	00279793          	slli	a5,a5,0x2
    1694:	00800f93          	li	t6,8
    1698:	00138693          	addi	a3,t2,1
    169c:	00f607b3          	add	a5,a2,a5
    16a0:	01f68433          	add	s0,a3,t6
    16a4:	0307a783          	lw	a5,48(a5)
    16a8:	fb1460e3          	bltu	s0,a7,1648 <core_init_state+0x7c>
    16ac:	04a3fc63          	bgeu	t2,a0,1704 <core_init_state+0x138>
    16b0:	00100613          	li	a2,1
    16b4:	02d57c63          	bgeu	a0,a3,16ec <core_init_state+0x120>
    16b8:	00c12403          	lw	s0,12(sp)
    16bc:	00780533          	add	a0,a6,t2
    16c0:	00000593          	li	a1,0
    16c4:	01010113          	addi	sp,sp,16
    16c8:	4180106f          	j	2ae0 <memset>
    16cc:	0007a783          	lw	a5,0(a5)
    16d0:	00400f93          	li	t6,4
    16d4:	f69ff06f          	j	163c <core_init_state+0x70>
    16d8:	00279793          	slli	a5,a5,0x2
    16dc:	00f607b3          	add	a5,a2,a5
    16e0:	0207a783          	lw	a5,32(a5)
    16e4:	00800f93          	li	t6,8
    16e8:	f55ff06f          	j	163c <core_init_state+0x70>
    16ec:	00c12403          	lw	s0,12(sp)
    16f0:	40750633          	sub	a2,a0,t2
    16f4:	00000593          	li	a1,0
    16f8:	00780533          	add	a0,a6,t2
    16fc:	01010113          	addi	sp,sp,16
    1700:	3e00106f          	j	2ae0 <memset>
    1704:	00c12403          	lw	s0,12(sp)
    1708:	01010113          	addi	sp,sp,16
    170c:	00008067          	ret
    1710:	00000393          	li	t2,0
    1714:	00100613          	li	a2,1
    1718:	01c56463          	bltu	a0,t3,1720 <core_init_state+0x154>
    171c:	40750633          	sub	a2,a0,t2
    1720:	00780533          	add	a0,a6,t2
    1724:	00000593          	li	a1,0
    1728:	3b80106f          	j	2ae0 <memset>

0000172c <core_state_transition>:
    172c:	00052683          	lw	a3,0(a0)
    1730:	00050613          	mv	a2,a0
    1734:	0006c783          	lbu	a5,0(a3)
    1738:	26078e63          	beqz	a5,19b4 <core_state_transition+0x288>
    173c:	02c00713          	li	a4,44
    1740:	00000513          	li	a0,0
    1744:	1ee78c63          	beq	a5,a4,193c <core_state_transition+0x210>
    1748:	02e00813          	li	a6,46
    174c:	23078663          	beq	a5,a6,1978 <core_state_transition+0x24c>
    1750:	1ef86a63          	bltu	a6,a5,1944 <core_state_transition+0x218>
    1754:	fd578793          	addi	a5,a5,-43
    1758:	0fd7f793          	andi	a5,a5,253
    175c:	02078663          	beqz	a5,1788 <core_state_transition+0x5c>
    1760:	0045a703          	lw	a4,4(a1)
    1764:	0005a783          	lw	a5,0(a1)
    1768:	00168693          	addi	a3,a3,1
    176c:	00170713          	addi	a4,a4,1
    1770:	00178793          	addi	a5,a5,1
    1774:	00e5a223          	sw	a4,4(a1)
    1778:	00f5a023          	sw	a5,0(a1)
    177c:	00100513          	li	a0,1
    1780:	00d62023          	sw	a3,0(a2)
    1784:	00008067          	ret
    1788:	0005a503          	lw	a0,0(a1)
    178c:	00168793          	addi	a5,a3,1
    1790:	00150513          	addi	a0,a0,1
    1794:	00a5a023          	sw	a0,0(a1)
    1798:	0016c883          	lbu	a7,1(a3)
    179c:	26088663          	beqz	a7,1a08 <core_state_transition+0x2dc>
    17a0:	20e88263          	beq	a7,a4,19a4 <core_state_transition+0x278>
    17a4:	0085a503          	lw	a0,8(a1)
    17a8:	fd088713          	addi	a4,a7,-48
    17ac:	0ff77713          	zext.b	a4,a4
    17b0:	00900313          	li	t1,9
    17b4:	00150513          	addi	a0,a0,1
    17b8:	00e37e63          	bgeu	t1,a4,17d4 <core_state_transition+0xa8>
    17bc:	1f088063          	beq	a7,a6,199c <core_state_transition+0x270>
    17c0:	00a5a423          	sw	a0,8(a1)
    17c4:	00268693          	addi	a3,a3,2
    17c8:	00100513          	li	a0,1
    17cc:	00d62023          	sw	a3,0(a2)
    17d0:	00008067          	ret
    17d4:	00a5a423          	sw	a0,8(a1)
    17d8:	0017c683          	lbu	a3,1(a5)
    17dc:	00178793          	addi	a5,a5,1
    17e0:	18068663          	beqz	a3,196c <core_state_transition+0x240>
    17e4:	02c00713          	li	a4,44
    17e8:	1ee68e63          	beq	a3,a4,19e4 <core_state_transition+0x2b8>
    17ec:	02e00713          	li	a4,46
    17f0:	02e68863          	beq	a3,a4,1820 <core_state_transition+0xf4>
    17f4:	fd068693          	addi	a3,a3,-48
    17f8:	0ff6f693          	zext.b	a3,a3
    17fc:	00900713          	li	a4,9
    1800:	fcd77ce3          	bgeu	a4,a3,17d8 <core_state_transition+0xac>
    1804:	0105a703          	lw	a4,16(a1)
    1808:	00100513          	li	a0,1
    180c:	00178693          	addi	a3,a5,1
    1810:	00a707b3          	add	a5,a4,a0
    1814:	00f5a823          	sw	a5,16(a1)
    1818:	00d62023          	sw	a3,0(a2)
    181c:	00008067          	ret
    1820:	0105a703          	lw	a4,16(a1)
    1824:	00170713          	addi	a4,a4,1
    1828:	00e5a823          	sw	a4,16(a1)
    182c:	0017c683          	lbu	a3,1(a5)
    1830:	00178793          	addi	a5,a5,1
    1834:	14068e63          	beqz	a3,1990 <core_state_transition+0x264>
    1838:	02c00713          	li	a4,44
    183c:	0ee68c63          	beq	a3,a4,1934 <core_state_transition+0x208>
    1840:	0df6f713          	andi	a4,a3,223
    1844:	04500513          	li	a0,69
    1848:	02a70863          	beq	a4,a0,1878 <core_state_transition+0x14c>
    184c:	fd068693          	addi	a3,a3,-48
    1850:	0ff6f693          	zext.b	a3,a3
    1854:	00900713          	li	a4,9
    1858:	fcd77ae3          	bgeu	a4,a3,182c <core_state_transition+0x100>
    185c:	0145a703          	lw	a4,20(a1)
    1860:	00100513          	li	a0,1
    1864:	00178693          	addi	a3,a5,1
    1868:	00a707b3          	add	a5,a4,a0
    186c:	00f5aa23          	sw	a5,20(a1)
    1870:	00d62023          	sw	a3,0(a2)
    1874:	00008067          	ret
    1878:	0145a703          	lw	a4,20(a1)
    187c:	00178693          	addi	a3,a5,1
    1880:	00170713          	addi	a4,a4,1
    1884:	00e5aa23          	sw	a4,20(a1)
    1888:	0017c703          	lbu	a4,1(a5)
    188c:	12070c63          	beqz	a4,19c4 <core_state_transition+0x298>
    1890:	02c00513          	li	a0,44
    1894:	14a70263          	beq	a4,a0,19d8 <core_state_transition+0x2ac>
    1898:	00c5a683          	lw	a3,12(a1)
    189c:	fd570713          	addi	a4,a4,-43
    18a0:	0fd77713          	andi	a4,a4,253
    18a4:	00168693          	addi	a3,a3,1
    18a8:	00d5a623          	sw	a3,12(a1)
    18ac:	00070a63          	beqz	a4,18c0 <core_state_transition+0x194>
    18b0:	00278693          	addi	a3,a5,2
    18b4:	00100513          	li	a0,1
    18b8:	00d62023          	sw	a3,0(a2)
    18bc:	00008067          	ret
    18c0:	0027c703          	lbu	a4,2(a5)
    18c4:	00278693          	addi	a3,a5,2
    18c8:	0e070a63          	beqz	a4,19bc <core_state_transition+0x290>
    18cc:	10a70063          	beq	a4,a0,19cc <core_state_transition+0x2a0>
    18d0:	0185a803          	lw	a6,24(a1)
    18d4:	fd070713          	addi	a4,a4,-48
    18d8:	0ff77713          	zext.b	a4,a4
    18dc:	00180813          	addi	a6,a6,1
    18e0:	00900513          	li	a0,9
    18e4:	0105ac23          	sw	a6,24(a1)
    18e8:	00e57863          	bgeu	a0,a4,18f8 <core_state_transition+0x1cc>
    18ec:	00378693          	addi	a3,a5,3
    18f0:	00100513          	li	a0,1
    18f4:	e8dff06f          	j	1780 <core_state_transition+0x54>
    18f8:	00068813          	mv	a6,a3
    18fc:	0016c703          	lbu	a4,1(a3)
    1900:	00168693          	addi	a3,a3,1
    1904:	02c00893          	li	a7,44
    1908:	fd070793          	addi	a5,a4,-48
    190c:	0ff7f793          	zext.b	a5,a5
    1910:	0e070863          	beqz	a4,1a00 <core_state_transition+0x2d4>
    1914:	0f170063          	beq	a4,a7,19f4 <core_state_transition+0x2c8>
    1918:	fef570e3          	bgeu	a0,a5,18f8 <core_state_transition+0x1cc>
    191c:	0045a783          	lw	a5,4(a1)
    1920:	00100513          	li	a0,1
    1924:	00280693          	addi	a3,a6,2
    1928:	00a787b3          	add	a5,a5,a0
    192c:	00f5a223          	sw	a5,4(a1)
    1930:	e51ff06f          	j	1780 <core_state_transition+0x54>
    1934:	00078693          	mv	a3,a5
    1938:	00500513          	li	a0,5
    193c:	00168693          	addi	a3,a3,1
    1940:	e41ff06f          	j	1780 <core_state_transition+0x54>
    1944:	fd078793          	addi	a5,a5,-48
    1948:	0ff7f793          	zext.b	a5,a5
    194c:	00900513          	li	a0,9
    1950:	e0f568e3          	bltu	a0,a5,1760 <core_state_transition+0x34>
    1954:	0005a503          	lw	a0,0(a1)
    1958:	00168793          	addi	a5,a3,1
    195c:	00150513          	addi	a0,a0,1
    1960:	00a5a023          	sw	a0,0(a1)
    1964:	0016c683          	lbu	a3,1(a3)
    1968:	e80690e3          	bnez	a3,17e8 <core_state_transition+0xbc>
    196c:	00078693          	mv	a3,a5
    1970:	00400513          	li	a0,4
    1974:	e0dff06f          	j	1780 <core_state_transition+0x54>
    1978:	0005a503          	lw	a0,0(a1)
    197c:	00168793          	addi	a5,a3,1
    1980:	00150513          	addi	a0,a0,1
    1984:	00a5a023          	sw	a0,0(a1)
    1988:	0016c683          	lbu	a3,1(a3)
    198c:	ea0698e3          	bnez	a3,183c <core_state_transition+0x110>
    1990:	00078693          	mv	a3,a5
    1994:	00500513          	li	a0,5
    1998:	de9ff06f          	j	1780 <core_state_transition+0x54>
    199c:	00a5a423          	sw	a0,8(a1)
    19a0:	e8dff06f          	j	182c <core_state_transition+0x100>
    19a4:	00078693          	mv	a3,a5
    19a8:	00200513          	li	a0,2
    19ac:	00168693          	addi	a3,a3,1
    19b0:	dd1ff06f          	j	1780 <core_state_transition+0x54>
    19b4:	00000513          	li	a0,0
    19b8:	dc9ff06f          	j	1780 <core_state_transition+0x54>
    19bc:	00600513          	li	a0,6
    19c0:	dc1ff06f          	j	1780 <core_state_transition+0x54>
    19c4:	00300513          	li	a0,3
    19c8:	db9ff06f          	j	1780 <core_state_transition+0x54>
    19cc:	00600513          	li	a0,6
    19d0:	00168693          	addi	a3,a3,1
    19d4:	dadff06f          	j	1780 <core_state_transition+0x54>
    19d8:	00300513          	li	a0,3
    19dc:	00168693          	addi	a3,a3,1
    19e0:	da1ff06f          	j	1780 <core_state_transition+0x54>
    19e4:	00078693          	mv	a3,a5
    19e8:	00400513          	li	a0,4
    19ec:	00168693          	addi	a3,a3,1
    19f0:	d91ff06f          	j	1780 <core_state_transition+0x54>
    19f4:	00700513          	li	a0,7
    19f8:	00168693          	addi	a3,a3,1
    19fc:	d85ff06f          	j	1780 <core_state_transition+0x54>
    1a00:	00700513          	li	a0,7
    1a04:	d7dff06f          	j	1780 <core_state_transition+0x54>
    1a08:	00078693          	mv	a3,a5
    1a0c:	00200513          	li	a0,2
    1a10:	d71ff06f          	j	1780 <core_state_transition+0x54>

00001a14 <core_bench_state>:
    1a14:	f8010113          	addi	sp,sp,-128
    1a18:	06812c23          	sw	s0,120(sp)
    1a1c:	06912a23          	sw	s1,116(sp)
    1a20:	07212823          	sw	s2,112(sp)
    1a24:	07312623          	sw	s3,108(sp)
    1a28:	07412423          	sw	s4,104(sp)
    1a2c:	07512223          	sw	s5,100(sp)
    1a30:	07612023          	sw	s6,96(sp)
    1a34:	05712e23          	sw	s7,92(sp)
    1a38:	05812c23          	sw	s8,88(sp)
    1a3c:	06112e23          	sw	ra,124(sp)
    1a40:	00058493          	mv	s1,a1
    1a44:	0005c583          	lbu	a1,0(a1)
    1a48:	03010993          	addi	s3,sp,48
    1a4c:	01010413          	addi	s0,sp,16
    1a50:	02012823          	sw	zero,48(sp)
    1a54:	00012823          	sw	zero,16(sp)
    1a58:	00912623          	sw	s1,12(sp)
    1a5c:	0009a223          	sw	zero,4(s3)
    1a60:	0009a423          	sw	zero,8(s3)
    1a64:	0009a623          	sw	zero,12(s3)
    1a68:	0009a823          	sw	zero,16(s3)
    1a6c:	0009aa23          	sw	zero,20(s3)
    1a70:	0009ac23          	sw	zero,24(s3)
    1a74:	0009ae23          	sw	zero,28(s3)
    1a78:	00042223          	sw	zero,4(s0)
    1a7c:	00042423          	sw	zero,8(s0)
    1a80:	00042623          	sw	zero,12(s0)
    1a84:	00042823          	sw	zero,16(s0)
    1a88:	00042a23          	sw	zero,20(s0)
    1a8c:	00042c23          	sw	zero,24(s0)
    1a90:	00042e23          	sw	zero,28(s0)
    1a94:	00050c13          	mv	s8,a0
    1a98:	00060b93          	mv	s7,a2
    1a9c:	00068b13          	mv	s6,a3
    1aa0:	00070a13          	mv	s4,a4
    1aa4:	00078913          	mv	s2,a5
    1aa8:	00c10a93          	addi	s5,sp,12
    1aac:	10058a63          	beqz	a1,1bc0 <core_bench_state+0x1ac>
    1ab0:	00098593          	mv	a1,s3
    1ab4:	000a8513          	mv	a0,s5
    1ab8:	c75ff0ef          	jal	172c <core_state_transition>
    1abc:	00251813          	slli	a6,a0,0x2
    1ac0:	00880833          	add	a6,a6,s0
    1ac4:	00c12703          	lw	a4,12(sp)
    1ac8:	00082783          	lw	a5,0(a6)
    1acc:	00074703          	lbu	a4,0(a4)
    1ad0:	00178793          	addi	a5,a5,1
    1ad4:	00f82023          	sw	a5,0(a6)
    1ad8:	fc071ce3          	bnez	a4,1ab0 <core_bench_state+0x9c>
    1adc:	00912623          	sw	s1,12(sp)
    1ae0:	01848c33          	add	s8,s1,s8
    1ae4:	0384f863          	bgeu	s1,s8,1b14 <core_bench_state+0x100>
    1ae8:	00048793          	mv	a5,s1
    1aec:	02c00613          	li	a2,44
    1af0:	0007c703          	lbu	a4,0(a5)
    1af4:	017746b3          	xor	a3,a4,s7
    1af8:	00c70463          	beq	a4,a2,1b00 <core_bench_state+0xec>
    1afc:	00d78023          	sb	a3,0(a5)
    1b00:	014787b3          	add	a5,a5,s4
    1b04:	ff87e6e3          	bltu	a5,s8,1af0 <core_bench_state+0xdc>
    1b08:	0004c783          	lbu	a5,0(s1)
    1b0c:	00c10a93          	addi	s5,sp,12
    1b10:	02078863          	beqz	a5,1b40 <core_bench_state+0x12c>
    1b14:	00098593          	mv	a1,s3
    1b18:	000a8513          	mv	a0,s5
    1b1c:	c11ff0ef          	jal	172c <core_state_transition>
    1b20:	00251613          	slli	a2,a0,0x2
    1b24:	00860633          	add	a2,a2,s0
    1b28:	00c12703          	lw	a4,12(sp)
    1b2c:	00062783          	lw	a5,0(a2)
    1b30:	00074703          	lbu	a4,0(a4)
    1b34:	00178793          	addi	a5,a5,1
    1b38:	00f62023          	sw	a5,0(a2)
    1b3c:	fc071ce3          	bnez	a4,1b14 <core_bench_state+0x100>
    1b40:	00912623          	sw	s1,12(sp)
    1b44:	02c00693          	li	a3,44
    1b48:	0184fe63          	bgeu	s1,s8,1b64 <core_bench_state+0x150>
    1b4c:	0004c783          	lbu	a5,0(s1)
    1b50:	0167c733          	xor	a4,a5,s6
    1b54:	00d78463          	beq	a5,a3,1b5c <core_bench_state+0x148>
    1b58:	00e48023          	sb	a4,0(s1)
    1b5c:	014484b3          	add	s1,s1,s4
    1b60:	ff84e6e3          	bltu	s1,s8,1b4c <core_bench_state+0x138>
    1b64:	00098493          	mv	s1,s3
    1b68:	00042503          	lw	a0,0(s0)
    1b6c:	00090593          	mv	a1,s2
    1b70:	00440413          	addi	s0,s0,4
    1b74:	190000ef          	jal	1d04 <crcu32>
    1b78:	00050593          	mv	a1,a0
    1b7c:	0004a503          	lw	a0,0(s1)
    1b80:	00448493          	addi	s1,s1,4
    1b84:	180000ef          	jal	1d04 <crcu32>
    1b88:	00050913          	mv	s2,a0
    1b8c:	fc899ee3          	bne	s3,s0,1b68 <core_bench_state+0x154>
    1b90:	07c12083          	lw	ra,124(sp)
    1b94:	07812403          	lw	s0,120(sp)
    1b98:	07412483          	lw	s1,116(sp)
    1b9c:	07012903          	lw	s2,112(sp)
    1ba0:	06c12983          	lw	s3,108(sp)
    1ba4:	06812a03          	lw	s4,104(sp)
    1ba8:	06412a83          	lw	s5,100(sp)
    1bac:	06012b03          	lw	s6,96(sp)
    1bb0:	05c12b83          	lw	s7,92(sp)
    1bb4:	05812c03          	lw	s8,88(sp)
    1bb8:	08010113          	addi	sp,sp,128
    1bbc:	00008067          	ret
    1bc0:	00a48c33          	add	s8,s1,a0
    1bc4:	f384e2e3          	bltu	s1,s8,1ae8 <core_bench_state+0xd4>
    1bc8:	f9dff06f          	j	1b64 <core_bench_state+0x150>

00001bcc <get_seed_32>:
    1bcc:	00500793          	li	a5,5
    1bd0:	04a7ec63          	bltu	a5,a0,1c28 <get_seed_32+0x5c>
    1bd4:	000217b7          	lui	a5,0x21
    1bd8:	cd078793          	addi	a5,a5,-816 # 20cd0 <errpat+0x10>
    1bdc:	00251513          	slli	a0,a0,0x2
    1be0:	00f50533          	add	a0,a0,a5
    1be4:	00052783          	lw	a5,0(a0)
    1be8:	00078067          	jr	a5
    1bec:	000207b7          	lui	a5,0x20
    1bf0:	6d07a503          	lw	a0,1744(a5) # 206d0 <seed5_volatile>
    1bf4:	00008067          	ret
    1bf8:	000207b7          	lui	a5,0x20
    1bfc:	6d87a503          	lw	a0,1752(a5) # 206d8 <seed1_volatile>
    1c00:	00008067          	ret
    1c04:	000207b7          	lui	a5,0x20
    1c08:	6d47a503          	lw	a0,1748(a5) # 206d4 <seed2_volatile>
    1c0c:	00008067          	ret
    1c10:	000207b7          	lui	a5,0x20
    1c14:	0147a503          	lw	a0,20(a5) # 20014 <seed3_volatile>
    1c18:	00008067          	ret
    1c1c:	000207b7          	lui	a5,0x20
    1c20:	0107a503          	lw	a0,16(a5) # 20010 <seed4_volatile>
    1c24:	00008067          	ret
    1c28:	00000513          	li	a0,0
    1c2c:	00008067          	ret

00001c30 <crcu8>:
    1c30:	ffffa637          	lui	a2,0xffffa
    1c34:	00050693          	mv	a3,a0
    1c38:	00160613          	addi	a2,a2,1 # ffffa001 <_ctype_+0xfffd87b9>
    1c3c:	00058513          	mv	a0,a1
    1c40:	00800713          	li	a4,8
    1c44:	00a6c7b3          	xor	a5,a3,a0
    1c48:	0017f793          	andi	a5,a5,1
    1c4c:	40f007b3          	neg	a5,a5
    1c50:	00155513          	srli	a0,a0,0x1
    1c54:	00c7f7b3          	and	a5,a5,a2
    1c58:	fff70713          	addi	a4,a4,-1
    1c5c:	00a7c7b3          	xor	a5,a5,a0
    1c60:	01079513          	slli	a0,a5,0x10
    1c64:	0ff77713          	zext.b	a4,a4
    1c68:	01055513          	srli	a0,a0,0x10
    1c6c:	0016d693          	srli	a3,a3,0x1
    1c70:	fc071ae3          	bnez	a4,1c44 <crcu8+0x14>
    1c74:	00008067          	ret

00001c78 <crcu16>:
    1c78:	00050693          	mv	a3,a0
    1c7c:	ffffa7b7          	lui	a5,0xffffa
    1c80:	00058513          	mv	a0,a1
    1c84:	0ff6f613          	zext.b	a2,a3
    1c88:	00178593          	addi	a1,a5,1 # ffffa001 <_ctype_+0xfffd87b9>
    1c8c:	00800713          	li	a4,8
    1c90:	00a647b3          	xor	a5,a2,a0
    1c94:	0017f793          	andi	a5,a5,1
    1c98:	40f007b3          	neg	a5,a5
    1c9c:	00b7f7b3          	and	a5,a5,a1
    1ca0:	00155513          	srli	a0,a0,0x1
    1ca4:	fff70713          	addi	a4,a4,-1
    1ca8:	00f54533          	xor	a0,a0,a5
    1cac:	01051513          	slli	a0,a0,0x10
    1cb0:	0ff77713          	zext.b	a4,a4
    1cb4:	01055513          	srli	a0,a0,0x10
    1cb8:	00165613          	srli	a2,a2,0x1
    1cbc:	fc071ae3          	bnez	a4,1c90 <crcu16+0x18>
    1cc0:	ffffa637          	lui	a2,0xffffa
    1cc4:	0086d693          	srli	a3,a3,0x8
    1cc8:	00160613          	addi	a2,a2,1 # ffffa001 <_ctype_+0xfffd87b9>
    1ccc:	00800713          	li	a4,8
    1cd0:	00a6c7b3          	xor	a5,a3,a0
    1cd4:	0017f793          	andi	a5,a5,1
    1cd8:	40f007b3          	neg	a5,a5
    1cdc:	00155513          	srli	a0,a0,0x1
    1ce0:	00c7f7b3          	and	a5,a5,a2
    1ce4:	fff70713          	addi	a4,a4,-1
    1ce8:	00a7c7b3          	xor	a5,a5,a0
    1cec:	01079513          	slli	a0,a5,0x10
    1cf0:	0ff77713          	zext.b	a4,a4
    1cf4:	01055513          	srli	a0,a0,0x10
    1cf8:	0016d693          	srli	a3,a3,0x1
    1cfc:	fc071ae3          	bnez	a4,1cd0 <crcu16+0x58>
    1d00:	00008067          	ret

00001d04 <crcu32>:
    1d04:	00050693          	mv	a3,a0
    1d08:	01051613          	slli	a2,a0,0x10
    1d0c:	ffffa837          	lui	a6,0xffffa
    1d10:	00058513          	mv	a0,a1
    1d14:	01065613          	srli	a2,a2,0x10
    1d18:	0ff6f593          	zext.b	a1,a3
    1d1c:	00180813          	addi	a6,a6,1 # ffffa001 <_ctype_+0xfffd87b9>
    1d20:	00800713          	li	a4,8
    1d24:	00a5c7b3          	xor	a5,a1,a0
    1d28:	0017f793          	andi	a5,a5,1
    1d2c:	40f007b3          	neg	a5,a5
    1d30:	00155513          	srli	a0,a0,0x1
    1d34:	0107f7b3          	and	a5,a5,a6
    1d38:	fff70713          	addi	a4,a4,-1
    1d3c:	00a7c7b3          	xor	a5,a5,a0
    1d40:	01079513          	slli	a0,a5,0x10
    1d44:	0ff77713          	zext.b	a4,a4
    1d48:	01055513          	srli	a0,a0,0x10
    1d4c:	0015d593          	srli	a1,a1,0x1
    1d50:	fc071ae3          	bnez	a4,1d24 <crcu32+0x20>
    1d54:	ffffa5b7          	lui	a1,0xffffa
    1d58:	00865613          	srli	a2,a2,0x8
    1d5c:	00158593          	addi	a1,a1,1 # ffffa001 <_ctype_+0xfffd87b9>
    1d60:	00800713          	li	a4,8
    1d64:	00a647b3          	xor	a5,a2,a0
    1d68:	0017f793          	andi	a5,a5,1
    1d6c:	40f007b3          	neg	a5,a5
    1d70:	00155513          	srli	a0,a0,0x1
    1d74:	00b7f7b3          	and	a5,a5,a1
    1d78:	fff70713          	addi	a4,a4,-1
    1d7c:	00a7c7b3          	xor	a5,a5,a0
    1d80:	01079513          	slli	a0,a5,0x10
    1d84:	0ff77713          	zext.b	a4,a4
    1d88:	01055513          	srli	a0,a0,0x10
    1d8c:	00165613          	srli	a2,a2,0x1
    1d90:	fc071ae3          	bnez	a4,1d64 <crcu32+0x60>
    1d94:	0106d693          	srli	a3,a3,0x10
    1d98:	ffffa5b7          	lui	a1,0xffffa
    1d9c:	0ff6f613          	zext.b	a2,a3
    1da0:	00158593          	addi	a1,a1,1 # ffffa001 <_ctype_+0xfffd87b9>
    1da4:	00800713          	li	a4,8
    1da8:	00a647b3          	xor	a5,a2,a0
    1dac:	0017f793          	andi	a5,a5,1
    1db0:	40f007b3          	neg	a5,a5
    1db4:	00b7f7b3          	and	a5,a5,a1
    1db8:	00155513          	srli	a0,a0,0x1
    1dbc:	fff70713          	addi	a4,a4,-1
    1dc0:	00f54533          	xor	a0,a0,a5
    1dc4:	01051513          	slli	a0,a0,0x10
    1dc8:	0ff77713          	zext.b	a4,a4
    1dcc:	01055513          	srli	a0,a0,0x10
    1dd0:	00165613          	srli	a2,a2,0x1
    1dd4:	fc071ae3          	bnez	a4,1da8 <crcu32+0xa4>
    1dd8:	ffffa637          	lui	a2,0xffffa
    1ddc:	0086d693          	srli	a3,a3,0x8
    1de0:	00160613          	addi	a2,a2,1 # ffffa001 <_ctype_+0xfffd87b9>
    1de4:	00800713          	li	a4,8
    1de8:	00a6c7b3          	xor	a5,a3,a0
    1dec:	0017f793          	andi	a5,a5,1
    1df0:	40f007b3          	neg	a5,a5
    1df4:	00c7f7b3          	and	a5,a5,a2
    1df8:	00155513          	srli	a0,a0,0x1
    1dfc:	fff70713          	addi	a4,a4,-1
    1e00:	00f54533          	xor	a0,a0,a5
    1e04:	01051513          	slli	a0,a0,0x10
    1e08:	0ff77713          	zext.b	a4,a4
    1e0c:	01055513          	srli	a0,a0,0x10
    1e10:	0016d693          	srli	a3,a3,0x1
    1e14:	fc071ae3          	bnez	a4,1de8 <crcu32+0xe4>
    1e18:	00008067          	ret

00001e1c <crc16>:
    1e1c:	00050693          	mv	a3,a0
    1e20:	01051613          	slli	a2,a0,0x10
    1e24:	ffffa7b7          	lui	a5,0xffffa
    1e28:	00058513          	mv	a0,a1
    1e2c:	01065613          	srli	a2,a2,0x10
    1e30:	0ff6f693          	zext.b	a3,a3
    1e34:	00178593          	addi	a1,a5,1 # ffffa001 <_ctype_+0xfffd87b9>
    1e38:	00800713          	li	a4,8
    1e3c:	00a6c7b3          	xor	a5,a3,a0
    1e40:	0017f793          	andi	a5,a5,1
    1e44:	40f007b3          	neg	a5,a5
    1e48:	00b7f7b3          	and	a5,a5,a1
    1e4c:	00155513          	srli	a0,a0,0x1
    1e50:	fff70713          	addi	a4,a4,-1
    1e54:	00f54533          	xor	a0,a0,a5
    1e58:	01051513          	slli	a0,a0,0x10
    1e5c:	0ff77713          	zext.b	a4,a4
    1e60:	01055513          	srli	a0,a0,0x10
    1e64:	0016d693          	srli	a3,a3,0x1
    1e68:	fc071ae3          	bnez	a4,1e3c <crc16+0x20>
    1e6c:	ffffa7b7          	lui	a5,0xffffa
    1e70:	00865693          	srli	a3,a2,0x8
    1e74:	00800713          	li	a4,8
    1e78:	00178613          	addi	a2,a5,1 # ffffa001 <_ctype_+0xfffd87b9>
    1e7c:	00a6c7b3          	xor	a5,a3,a0
    1e80:	0017f793          	andi	a5,a5,1
    1e84:	40f007b3          	neg	a5,a5
    1e88:	00155513          	srli	a0,a0,0x1
    1e8c:	00c7f7b3          	and	a5,a5,a2
    1e90:	fff70713          	addi	a4,a4,-1
    1e94:	00a7c7b3          	xor	a5,a5,a0
    1e98:	01079513          	slli	a0,a5,0x10
    1e9c:	0ff77713          	zext.b	a4,a4
    1ea0:	01055513          	srli	a0,a0,0x10
    1ea4:	0016d693          	srli	a3,a3,0x1
    1ea8:	fc071ae3          	bnez	a4,1e7c <crc16+0x60>
    1eac:	00008067          	ret

00001eb0 <check_data_types>:
    1eb0:	00000513          	li	a0,0
    1eb4:	00008067          	ret

00001eb8 <start_time>:
    1eb8:	ff010113          	addi	sp,sp,-16
    1ebc:	00112623          	sw	ra,12(sp)
    1ec0:	245060ef          	jal	8904 <clock>
    1ec4:	00c12083          	lw	ra,12(sp)
    1ec8:	000207b7          	lui	a5,0x20
    1ecc:	6ca7a623          	sw	a0,1740(a5) # 206cc <start_time_val>
    1ed0:	01010113          	addi	sp,sp,16
    1ed4:	00008067          	ret

00001ed8 <stop_time>:
    1ed8:	ff010113          	addi	sp,sp,-16
    1edc:	00112623          	sw	ra,12(sp)
    1ee0:	225060ef          	jal	8904 <clock>
    1ee4:	00c12083          	lw	ra,12(sp)
    1ee8:	000207b7          	lui	a5,0x20
    1eec:	6ca7a423          	sw	a0,1736(a5) # 206c8 <stop_time_val>
    1ef0:	01010113          	addi	sp,sp,16
    1ef4:	00008067          	ret

00001ef8 <get_time>:
    1ef8:	00020737          	lui	a4,0x20
    1efc:	000207b7          	lui	a5,0x20
    1f00:	6c872503          	lw	a0,1736(a4) # 206c8 <stop_time_val>
    1f04:	6cc7a783          	lw	a5,1740(a5) # 206cc <start_time_val>
    1f08:	40f50533          	sub	a0,a0,a5
    1f0c:	00008067          	ret

00001f10 <time_in_secs>:
    1f10:	ff010113          	addi	sp,sp,-16
    1f14:	00112623          	sw	ra,12(sp)
    1f18:	215000ef          	jal	292c <__floatunsidf>
    1f1c:	000217b7          	lui	a5,0x21
    1f20:	3107a603          	lw	a2,784(a5) # 21310 <__clz_tab+0x5ec>
    1f24:	3147a683          	lw	a3,788(a5)
    1f28:	024000ef          	jal	1f4c <__divdf3>
    1f2c:	00c12083          	lw	ra,12(sp)
    1f30:	01010113          	addi	sp,sp,16
    1f34:	00008067          	ret

00001f38 <portable_init>:
    1f38:	00100793          	li	a5,1
    1f3c:	00f50023          	sb	a5,0(a0)
    1f40:	00008067          	ret

00001f44 <portable_fini>:
    1f44:	00050023          	sb	zero,0(a0)
    1f48:	00008067          	ret

00001f4c <__divdf3>:
    1f4c:	fb010113          	addi	sp,sp,-80
    1f50:	03512a23          	sw	s5,52(sp)
    1f54:	0145da93          	srli	s5,a1,0x14
    1f58:	04812423          	sw	s0,72(sp)
    1f5c:	03412c23          	sw	s4,56(sp)
    1f60:	03612823          	sw	s6,48(sp)
    1f64:	03812423          	sw	s8,40(sp)
    1f68:	03a12023          	sw	s10,32(sp)
    1f6c:	00c59413          	slli	s0,a1,0xc
    1f70:	04112623          	sw	ra,76(sp)
    1f74:	04912223          	sw	s1,68(sp)
    1f78:	05212023          	sw	s2,64(sp)
    1f7c:	03312e23          	sw	s3,60(sp)
    1f80:	03712623          	sw	s7,44(sp)
    1f84:	03912223          	sw	s9,36(sp)
    1f88:	01b12e23          	sw	s11,28(sp)
    1f8c:	7ffafa93          	andi	s5,s5,2047
    1f90:	00050a13          	mv	s4,a0
    1f94:	00060d13          	mv	s10,a2
    1f98:	00068c13          	mv	s8,a3
    1f9c:	00c45413          	srli	s0,s0,0xc
    1fa0:	01f5db13          	srli	s6,a1,0x1f
    1fa4:	0a0a8063          	beqz	s5,2044 <__divdf3+0xf8>
    1fa8:	7ff00793          	li	a5,2047
    1fac:	10fa8063          	beq	s5,a5,20ac <__divdf3+0x160>
    1fb0:	01d55b93          	srli	s7,a0,0x1d
    1fb4:	00341413          	slli	s0,s0,0x3
    1fb8:	008bebb3          	or	s7,s7,s0
    1fbc:	008007b7          	lui	a5,0x800
    1fc0:	00fbebb3          	or	s7,s7,a5
    1fc4:	00351493          	slli	s1,a0,0x3
    1fc8:	c01a8a93          	addi	s5,s5,-1023
    1fcc:	00000c93          	li	s9,0
    1fd0:	014c5713          	srli	a4,s8,0x14
    1fd4:	00cc1413          	slli	s0,s8,0xc
    1fd8:	7ff77713          	andi	a4,a4,2047
    1fdc:	00c45413          	srli	s0,s0,0xc
    1fe0:	01fc5c13          	srli	s8,s8,0x1f
    1fe4:	0e070e63          	beqz	a4,20e0 <__divdf3+0x194>
    1fe8:	7ff00793          	li	a5,2047
    1fec:	16f70263          	beq	a4,a5,2150 <__divdf3+0x204>
    1ff0:	00341413          	slli	s0,s0,0x3
    1ff4:	01dd5793          	srli	a5,s10,0x1d
    1ff8:	0087e7b3          	or	a5,a5,s0
    1ffc:	00800437          	lui	s0,0x800
    2000:	0087e433          	or	s0,a5,s0
    2004:	003d1813          	slli	a6,s10,0x3
    2008:	c0170713          	addi	a4,a4,-1023
    200c:	00000693          	li	a3,0
    2010:	002c9793          	slli	a5,s9,0x2
    2014:	00d7e7b3          	or	a5,a5,a3
    2018:	40ea8ab3          	sub	s5,s5,a4
    201c:	fff78793          	addi	a5,a5,-1 # 7fffff <_ctype_+0x7de7b7>
    2020:	00e00713          	li	a4,14
    2024:	018b4a33          	xor	s4,s6,s8
    2028:	14f76c63          	bltu	a4,a5,2180 <__divdf3+0x234>
    202c:	00021737          	lui	a4,0x21
    2030:	00279793          	slli	a5,a5,0x2
    2034:	ce870713          	addi	a4,a4,-792 # 20ce8 <errpat+0x28>
    2038:	00e787b3          	add	a5,a5,a4
    203c:	0007a783          	lw	a5,0(a5)
    2040:	00078067          	jr	a5
    2044:	00a46bb3          	or	s7,s0,a0
    2048:	060b8c63          	beqz	s7,20c0 <__divdf3+0x174>
    204c:	02040e63          	beqz	s0,2088 <__divdf3+0x13c>
    2050:	00040513          	mv	a0,s0
    2054:	241000ef          	jal	2a94 <__clzsi2>
    2058:	ff550793          	addi	a5,a0,-11
    205c:	01d00b93          	li	s7,29
    2060:	ff850713          	addi	a4,a0,-8
    2064:	40fb8bb3          	sub	s7,s7,a5
    2068:	00e41433          	sll	s0,s0,a4
    206c:	017a5bb3          	srl	s7,s4,s7
    2070:	008bebb3          	or	s7,s7,s0
    2074:	00ea1433          	sll	s0,s4,a4
    2078:	c0d00a93          	li	s5,-1011
    207c:	40aa8ab3          	sub	s5,s5,a0
    2080:	00040493          	mv	s1,s0
    2084:	f49ff06f          	j	1fcc <__divdf3+0x80>
    2088:	20d000ef          	jal	2a94 <__clzsi2>
    208c:	00050b93          	mv	s7,a0
    2090:	015b8793          	addi	a5,s7,21
    2094:	01c00713          	li	a4,28
    2098:	02050513          	addi	a0,a0,32
    209c:	fcf750e3          	bge	a4,a5,205c <__divdf3+0x110>
    20a0:	ff8b8b93          	addi	s7,s7,-8
    20a4:	017a1bb3          	sll	s7,s4,s7
    20a8:	fd1ff06f          	j	2078 <__divdf3+0x12c>
    20ac:	00a46bb3          	or	s7,s0,a0
    20b0:	020b9063          	bnez	s7,20d0 <__divdf3+0x184>
    20b4:	00000493          	li	s1,0
    20b8:	00200c93          	li	s9,2
    20bc:	f15ff06f          	j	1fd0 <__divdf3+0x84>
    20c0:	00000493          	li	s1,0
    20c4:	00000a93          	li	s5,0
    20c8:	00100c93          	li	s9,1
    20cc:	f05ff06f          	j	1fd0 <__divdf3+0x84>
    20d0:	00050493          	mv	s1,a0
    20d4:	00040b93          	mv	s7,s0
    20d8:	00300c93          	li	s9,3
    20dc:	ef5ff06f          	j	1fd0 <__divdf3+0x84>
    20e0:	01a46833          	or	a6,s0,s10
    20e4:	08080063          	beqz	a6,2164 <__divdf3+0x218>
    20e8:	04040063          	beqz	s0,2128 <__divdf3+0x1dc>
    20ec:	00040513          	mv	a0,s0
    20f0:	1a5000ef          	jal	2a94 <__clzsi2>
    20f4:	ff550713          	addi	a4,a0,-11
    20f8:	01d00793          	li	a5,29
    20fc:	ff850693          	addi	a3,a0,-8
    2100:	40e787b3          	sub	a5,a5,a4
    2104:	00d41433          	sll	s0,s0,a3
    2108:	00fd57b3          	srl	a5,s10,a5
    210c:	0087e7b3          	or	a5,a5,s0
    2110:	00dd1433          	sll	s0,s10,a3
    2114:	c0d00713          	li	a4,-1011
    2118:	00040813          	mv	a6,s0
    211c:	40a70733          	sub	a4,a4,a0
    2120:	00078413          	mv	s0,a5
    2124:	ee9ff06f          	j	200c <__divdf3+0xc0>
    2128:	000d0513          	mv	a0,s10
    212c:	169000ef          	jal	2a94 <__clzsi2>
    2130:	00050793          	mv	a5,a0
    2134:	01578713          	addi	a4,a5,21
    2138:	01c00693          	li	a3,28
    213c:	02050513          	addi	a0,a0,32
    2140:	fae6dce3          	bge	a3,a4,20f8 <__divdf3+0x1ac>
    2144:	ff878793          	addi	a5,a5,-8
    2148:	00fd17b3          	sll	a5,s10,a5
    214c:	fc9ff06f          	j	2114 <__divdf3+0x1c8>
    2150:	01a46833          	or	a6,s0,s10
    2154:	02081063          	bnez	a6,2174 <__divdf3+0x228>
    2158:	00000413          	li	s0,0
    215c:	00200693          	li	a3,2
    2160:	eb1ff06f          	j	2010 <__divdf3+0xc4>
    2164:	00000413          	li	s0,0
    2168:	00000713          	li	a4,0
    216c:	00100693          	li	a3,1
    2170:	ea1ff06f          	j	2010 <__divdf3+0xc4>
    2174:	000d0813          	mv	a6,s10
    2178:	00300693          	li	a3,3
    217c:	e95ff06f          	j	2010 <__divdf3+0xc4>
    2180:	01746663          	bltu	s0,s7,218c <__divdf3+0x240>
    2184:	448b9e63          	bne	s7,s0,25e0 <__divdf3+0x694>
    2188:	4504ec63          	bltu	s1,a6,25e0 <__divdf3+0x694>
    218c:	01fb9713          	slli	a4,s7,0x1f
    2190:	0014d793          	srli	a5,s1,0x1
    2194:	01f49c93          	slli	s9,s1,0x1f
    2198:	001bdb93          	srli	s7,s7,0x1
    219c:	00f764b3          	or	s1,a4,a5
    21a0:	00841413          	slli	s0,s0,0x8
    21a4:	01045793          	srli	a5,s0,0x10
    21a8:	01885d93          	srli	s11,a6,0x18
    21ac:	00f12423          	sw	a5,8(sp)
    21b0:	008dedb3          	or	s11,s11,s0
    21b4:	00812583          	lw	a1,8(sp)
    21b8:	010d9793          	slli	a5,s11,0x10
    21bc:	0107d793          	srli	a5,a5,0x10
    21c0:	000b8513          	mv	a0,s7
    21c4:	00f12623          	sw	a5,12(sp)
    21c8:	00881b13          	slli	s6,a6,0x8
    21cc:	01d000ef          	jal	29e8 <__hidden___udivsi3>
    21d0:	00050593          	mv	a1,a0
    21d4:	00050c13          	mv	s8,a0
    21d8:	010d9513          	slli	a0,s11,0x10
    21dc:	01055513          	srli	a0,a0,0x10
    21e0:	7dc000ef          	jal	29bc <__mulsi3>
    21e4:	00812583          	lw	a1,8(sp)
    21e8:	00050413          	mv	s0,a0
    21ec:	000b8513          	mv	a0,s7
    21f0:	041000ef          	jal	2a30 <__umodsi3>
    21f4:	01051513          	slli	a0,a0,0x10
    21f8:	0104d793          	srli	a5,s1,0x10
    21fc:	00a7e7b3          	or	a5,a5,a0
    2200:	000c0b93          	mv	s7,s8
    2204:	0087fe63          	bgeu	a5,s0,2220 <__divdf3+0x2d4>
    2208:	00fd87b3          	add	a5,s11,a5
    220c:	fffc0b93          	addi	s7,s8,-1
    2210:	01b7e863          	bltu	a5,s11,2220 <__divdf3+0x2d4>
    2214:	0087f663          	bgeu	a5,s0,2220 <__divdf3+0x2d4>
    2218:	ffec0b93          	addi	s7,s8,-2
    221c:	01b787b3          	add	a5,a5,s11
    2220:	00812583          	lw	a1,8(sp)
    2224:	40878433          	sub	s0,a5,s0
    2228:	00040513          	mv	a0,s0
    222c:	7bc000ef          	jal	29e8 <__hidden___udivsi3>
    2230:	00050593          	mv	a1,a0
    2234:	00050d13          	mv	s10,a0
    2238:	010d9513          	slli	a0,s11,0x10
    223c:	01055513          	srli	a0,a0,0x10
    2240:	77c000ef          	jal	29bc <__mulsi3>
    2244:	00812583          	lw	a1,8(sp)
    2248:	00050c13          	mv	s8,a0
    224c:	00040513          	mv	a0,s0
    2250:	7e0000ef          	jal	2a30 <__umodsi3>
    2254:	01049493          	slli	s1,s1,0x10
    2258:	01051513          	slli	a0,a0,0x10
    225c:	0104d493          	srli	s1,s1,0x10
    2260:	00a4e4b3          	or	s1,s1,a0
    2264:	000d0793          	mv	a5,s10
    2268:	0184fe63          	bgeu	s1,s8,2284 <__divdf3+0x338>
    226c:	009d84b3          	add	s1,s11,s1
    2270:	fffd0793          	addi	a5,s10,-1
    2274:	01b4e863          	bltu	s1,s11,2284 <__divdf3+0x338>
    2278:	0184f663          	bgeu	s1,s8,2284 <__divdf3+0x338>
    227c:	ffed0793          	addi	a5,s10,-2
    2280:	01b484b3          	add	s1,s1,s11
    2284:	010b9813          	slli	a6,s7,0x10
    2288:	00f86833          	or	a6,a6,a5
    228c:	01081793          	slli	a5,a6,0x10
    2290:	010b1713          	slli	a4,s6,0x10
    2294:	01075713          	srli	a4,a4,0x10
    2298:	0107d793          	srli	a5,a5,0x10
    229c:	418484b3          	sub	s1,s1,s8
    22a0:	01085e93          	srli	t4,a6,0x10
    22a4:	00078513          	mv	a0,a5
    22a8:	00e12623          	sw	a4,12(sp)
    22ac:	00070593          	mv	a1,a4
    22b0:	70c000ef          	jal	29bc <__mulsi3>
    22b4:	00050313          	mv	t1,a0
    22b8:	010b5593          	srli	a1,s6,0x10
    22bc:	00078513          	mv	a0,a5
    22c0:	6fc000ef          	jal	29bc <__mulsi3>
    22c4:	00050793          	mv	a5,a0
    22c8:	00070593          	mv	a1,a4
    22cc:	000e8513          	mv	a0,t4
    22d0:	6ec000ef          	jal	29bc <__mulsi3>
    22d4:	00050e13          	mv	t3,a0
    22d8:	010b5593          	srli	a1,s6,0x10
    22dc:	000e8513          	mv	a0,t4
    22e0:	6dc000ef          	jal	29bc <__mulsi3>
    22e4:	01035d13          	srli	s10,t1,0x10
    22e8:	01c787b3          	add	a5,a5,t3
    22ec:	00fd0d33          	add	s10,s10,a5
    22f0:	00050693          	mv	a3,a0
    22f4:	01cd7663          	bgeu	s10,t3,2300 <__divdf3+0x3b4>
    22f8:	000107b7          	lui	a5,0x10
    22fc:	00f506b3          	add	a3,a0,a5
    2300:	010d5793          	srli	a5,s10,0x10
    2304:	01031313          	slli	t1,t1,0x10
    2308:	010d1d13          	slli	s10,s10,0x10
    230c:	01035313          	srli	t1,t1,0x10
    2310:	00d787b3          	add	a5,a5,a3
    2314:	006d0d33          	add	s10,s10,t1
    2318:	00f4e863          	bltu	s1,a5,2328 <__divdf3+0x3dc>
    231c:	00080413          	mv	s0,a6
    2320:	04f49863          	bne	s1,a5,2370 <__divdf3+0x424>
    2324:	05acf663          	bgeu	s9,s10,2370 <__divdf3+0x424>
    2328:	016c86b3          	add	a3,s9,s6
    232c:	0196b633          	sltu	a2,a3,s9
    2330:	01b605b3          	add	a1,a2,s11
    2334:	00b484b3          	add	s1,s1,a1
    2338:	fff80413          	addi	s0,a6,-1
    233c:	00068c93          	mv	s9,a3
    2340:	009de663          	bltu	s11,s1,234c <__divdf3+0x400>
    2344:	029d9663          	bne	s11,s1,2370 <__divdf3+0x424>
    2348:	02061463          	bnez	a2,2370 <__divdf3+0x424>
    234c:	00f4e663          	bltu	s1,a5,2358 <__divdf3+0x40c>
    2350:	02979063          	bne	a5,s1,2370 <__divdf3+0x424>
    2354:	01a6fe63          	bgeu	a3,s10,2370 <__divdf3+0x424>
    2358:	00db06b3          	add	a3,s6,a3
    235c:	00068c93          	mv	s9,a3
    2360:	0166b6b3          	sltu	a3,a3,s6
    2364:	01b686b3          	add	a3,a3,s11
    2368:	ffe80413          	addi	s0,a6,-2
    236c:	00d484b3          	add	s1,s1,a3
    2370:	41ac8d33          	sub	s10,s9,s10
    2374:	40f484b3          	sub	s1,s1,a5
    2378:	01acb8b3          	sltu	a7,s9,s10
    237c:	411484b3          	sub	s1,s1,a7
    2380:	fff00813          	li	a6,-1
    2384:	1a9d8263          	beq	s11,s1,2528 <__divdf3+0x5dc>
    2388:	00812583          	lw	a1,8(sp)
    238c:	00048513          	mv	a0,s1
    2390:	658000ef          	jal	29e8 <__hidden___udivsi3>
    2394:	00050593          	mv	a1,a0
    2398:	00050c13          	mv	s8,a0
    239c:	010d9513          	slli	a0,s11,0x10
    23a0:	01055513          	srli	a0,a0,0x10
    23a4:	618000ef          	jal	29bc <__mulsi3>
    23a8:	00812583          	lw	a1,8(sp)
    23ac:	00050b93          	mv	s7,a0
    23b0:	00048513          	mv	a0,s1
    23b4:	67c000ef          	jal	2a30 <__umodsi3>
    23b8:	01051513          	slli	a0,a0,0x10
    23bc:	010d5793          	srli	a5,s10,0x10
    23c0:	00a7e7b3          	or	a5,a5,a0
    23c4:	000c0493          	mv	s1,s8
    23c8:	0177fe63          	bgeu	a5,s7,23e4 <__divdf3+0x498>
    23cc:	00fd87b3          	add	a5,s11,a5
    23d0:	fffc0493          	addi	s1,s8,-1
    23d4:	01b7e863          	bltu	a5,s11,23e4 <__divdf3+0x498>
    23d8:	0177f663          	bgeu	a5,s7,23e4 <__divdf3+0x498>
    23dc:	ffec0493          	addi	s1,s8,-2
    23e0:	01b787b3          	add	a5,a5,s11
    23e4:	00812583          	lw	a1,8(sp)
    23e8:	41778c33          	sub	s8,a5,s7
    23ec:	000c0513          	mv	a0,s8
    23f0:	5f8000ef          	jal	29e8 <__hidden___udivsi3>
    23f4:	00050593          	mv	a1,a0
    23f8:	00050b93          	mv	s7,a0
    23fc:	010d9513          	slli	a0,s11,0x10
    2400:	01055513          	srli	a0,a0,0x10
    2404:	5b8000ef          	jal	29bc <__mulsi3>
    2408:	00812583          	lw	a1,8(sp)
    240c:	00050c93          	mv	s9,a0
    2410:	000c0513          	mv	a0,s8
    2414:	61c000ef          	jal	2a30 <__umodsi3>
    2418:	010d1793          	slli	a5,s10,0x10
    241c:	01051513          	slli	a0,a0,0x10
    2420:	0107d793          	srli	a5,a5,0x10
    2424:	00a7e7b3          	or	a5,a5,a0
    2428:	000b8613          	mv	a2,s7
    242c:	0197fe63          	bgeu	a5,s9,2448 <__divdf3+0x4fc>
    2430:	00fd87b3          	add	a5,s11,a5
    2434:	fffb8613          	addi	a2,s7,-1
    2438:	01b7e863          	bltu	a5,s11,2448 <__divdf3+0x4fc>
    243c:	0197f663          	bgeu	a5,s9,2448 <__divdf3+0x4fc>
    2440:	ffeb8613          	addi	a2,s7,-2
    2444:	01b787b3          	add	a5,a5,s11
    2448:	01049893          	slli	a7,s1,0x10
    244c:	00c8e8b3          	or	a7,a7,a2
    2450:	01089313          	slli	t1,a7,0x10
    2454:	01035313          	srli	t1,t1,0x10
    2458:	010b1593          	slli	a1,s6,0x10
    245c:	419787b3          	sub	a5,a5,s9
    2460:	0108de93          	srli	t4,a7,0x10
    2464:	00030513          	mv	a0,t1
    2468:	0105d593          	srli	a1,a1,0x10
    246c:	550000ef          	jal	29bc <__mulsi3>
    2470:	00050813          	mv	a6,a0
    2474:	010b5593          	srli	a1,s6,0x10
    2478:	00030513          	mv	a0,t1
    247c:	540000ef          	jal	29bc <__mulsi3>
    2480:	010b1593          	slli	a1,s6,0x10
    2484:	00050313          	mv	t1,a0
    2488:	0105d593          	srli	a1,a1,0x10
    248c:	000e8513          	mv	a0,t4
    2490:	52c000ef          	jal	29bc <__mulsi3>
    2494:	00050e13          	mv	t3,a0
    2498:	010b5593          	srli	a1,s6,0x10
    249c:	000e8513          	mv	a0,t4
    24a0:	51c000ef          	jal	29bc <__mulsi3>
    24a4:	01085693          	srli	a3,a6,0x10
    24a8:	01c30333          	add	t1,t1,t3
    24ac:	006686b3          	add	a3,a3,t1
    24b0:	00050593          	mv	a1,a0
    24b4:	01c6f663          	bgeu	a3,t3,24c0 <__divdf3+0x574>
    24b8:	00010637          	lui	a2,0x10
    24bc:	00c505b3          	add	a1,a0,a2
    24c0:	0106d613          	srli	a2,a3,0x10
    24c4:	01081813          	slli	a6,a6,0x10
    24c8:	01069693          	slli	a3,a3,0x10
    24cc:	01085813          	srli	a6,a6,0x10
    24d0:	00b60633          	add	a2,a2,a1
    24d4:	010686b3          	add	a3,a3,a6
    24d8:	00c7e863          	bltu	a5,a2,24e8 <__divdf3+0x59c>
    24dc:	00088813          	mv	a6,a7
    24e0:	04c79263          	bne	a5,a2,2524 <__divdf3+0x5d8>
    24e4:	04068263          	beqz	a3,2528 <__divdf3+0x5dc>
    24e8:	00fd87b3          	add	a5,s11,a5
    24ec:	fff88813          	addi	a6,a7,-1
    24f0:	00078593          	mv	a1,a5
    24f4:	03b7e463          	bltu	a5,s11,251c <__divdf3+0x5d0>
    24f8:	00c7e663          	bltu	a5,a2,2504 <__divdf3+0x5b8>
    24fc:	02c79463          	bne	a5,a2,2524 <__divdf3+0x5d8>
    2500:	02db7063          	bgeu	s6,a3,2520 <__divdf3+0x5d4>
    2504:	001b1513          	slli	a0,s6,0x1
    2508:	016535b3          	sltu	a1,a0,s6
    250c:	01b585b3          	add	a1,a1,s11
    2510:	ffe88813          	addi	a6,a7,-2
    2514:	00b785b3          	add	a1,a5,a1
    2518:	00050b13          	mv	s6,a0
    251c:	00c59463          	bne	a1,a2,2524 <__divdf3+0x5d8>
    2520:	01668463          	beq	a3,s6,2528 <__divdf3+0x5dc>
    2524:	00186813          	ori	a6,a6,1
    2528:	3ffa8793          	addi	a5,s5,1023
    252c:	0ef05e63          	blez	a5,2628 <__divdf3+0x6dc>
    2530:	00787713          	andi	a4,a6,7
    2534:	02070063          	beqz	a4,2554 <__divdf3+0x608>
    2538:	00f87713          	andi	a4,a6,15
    253c:	00400693          	li	a3,4
    2540:	00d70a63          	beq	a4,a3,2554 <__divdf3+0x608>
    2544:	00d80733          	add	a4,a6,a3
    2548:	010736b3          	sltu	a3,a4,a6
    254c:	00d40433          	add	s0,s0,a3
    2550:	00070813          	mv	a6,a4
    2554:	00741713          	slli	a4,s0,0x7
    2558:	00075a63          	bgez	a4,256c <__divdf3+0x620>
    255c:	ff0007b7          	lui	a5,0xff000
    2560:	fff78793          	addi	a5,a5,-1 # feffffff <_ctype_+0xfefde7b7>
    2564:	00f47433          	and	s0,s0,a5
    2568:	400a8793          	addi	a5,s5,1024
    256c:	7fe00713          	li	a4,2046
    2570:	18f74063          	blt	a4,a5,26f0 <__divdf3+0x7a4>
    2574:	01d41713          	slli	a4,s0,0x1d
    2578:	00385813          	srli	a6,a6,0x3
    257c:	01076833          	or	a6,a4,a6
    2580:	00345413          	srli	s0,s0,0x3
    2584:	00c41413          	slli	s0,s0,0xc
    2588:	00c45413          	srli	s0,s0,0xc
    258c:	01479793          	slli	a5,a5,0x14
    2590:	04c12083          	lw	ra,76(sp)
    2594:	0087e7b3          	or	a5,a5,s0
    2598:	04812403          	lw	s0,72(sp)
    259c:	01fa1a13          	slli	s4,s4,0x1f
    25a0:	0147e733          	or	a4,a5,s4
    25a4:	04412483          	lw	s1,68(sp)
    25a8:	04012903          	lw	s2,64(sp)
    25ac:	03c12983          	lw	s3,60(sp)
    25b0:	03812a03          	lw	s4,56(sp)
    25b4:	03412a83          	lw	s5,52(sp)
    25b8:	03012b03          	lw	s6,48(sp)
    25bc:	02c12b83          	lw	s7,44(sp)
    25c0:	02812c03          	lw	s8,40(sp)
    25c4:	02412c83          	lw	s9,36(sp)
    25c8:	02012d03          	lw	s10,32(sp)
    25cc:	01c12d83          	lw	s11,28(sp)
    25d0:	00080513          	mv	a0,a6
    25d4:	00070593          	mv	a1,a4
    25d8:	05010113          	addi	sp,sp,80
    25dc:	00008067          	ret
    25e0:	fffa8a93          	addi	s5,s5,-1
    25e4:	00000c93          	li	s9,0
    25e8:	bb9ff06f          	j	21a0 <__divdf3+0x254>
    25ec:	000c0a13          	mv	s4,s8
    25f0:	00068c93          	mv	s9,a3
    25f4:	00200793          	li	a5,2
    25f8:	0efc8c63          	beq	s9,a5,26f0 <__divdf3+0x7a4>
    25fc:	00300793          	li	a5,3
    2600:	0cfc8e63          	beq	s9,a5,26dc <__divdf3+0x790>
    2604:	00100793          	li	a5,1
    2608:	f2fc90e3          	bne	s9,a5,2528 <__divdf3+0x5dc>
    260c:	00000413          	li	s0,0
    2610:	00000813          	li	a6,0
    2614:	08c0006f          	j	26a0 <__divdf3+0x754>
    2618:	000b0a13          	mv	s4,s6
    261c:	000b8413          	mv	s0,s7
    2620:	00048813          	mv	a6,s1
    2624:	fd1ff06f          	j	25f4 <__divdf3+0x6a8>
    2628:	00100693          	li	a3,1
    262c:	00078c63          	beqz	a5,2644 <__divdf3+0x6f8>
    2630:	40f686b3          	sub	a3,a3,a5
    2634:	03800713          	li	a4,56
    2638:	fcd74ae3          	blt	a4,a3,260c <__divdf3+0x6c0>
    263c:	01f00713          	li	a4,31
    2640:	06d74463          	blt	a4,a3,26a8 <__divdf3+0x75c>
    2644:	41ea8a93          	addi	s5,s5,1054
    2648:	00d857b3          	srl	a5,a6,a3
    264c:	01581833          	sll	a6,a6,s5
    2650:	01003833          	snez	a6,a6
    2654:	01541ab3          	sll	s5,s0,s5
    2658:	01586833          	or	a6,a6,s5
    265c:	0107e7b3          	or	a5,a5,a6
    2660:	00d45433          	srl	s0,s0,a3
    2664:	0077f713          	andi	a4,a5,7
    2668:	02070063          	beqz	a4,2688 <__divdf3+0x73c>
    266c:	00f7f713          	andi	a4,a5,15
    2670:	00400693          	li	a3,4
    2674:	00d70a63          	beq	a4,a3,2688 <__divdf3+0x73c>
    2678:	00d78733          	add	a4,a5,a3
    267c:	00f736b3          	sltu	a3,a4,a5
    2680:	00d40433          	add	s0,s0,a3
    2684:	00070793          	mv	a5,a4
    2688:	00841713          	slli	a4,s0,0x8
    268c:	06074a63          	bltz	a4,2700 <__divdf3+0x7b4>
    2690:	01d41813          	slli	a6,s0,0x1d
    2694:	0037d793          	srli	a5,a5,0x3
    2698:	00f86833          	or	a6,a6,a5
    269c:	00345413          	srli	s0,s0,0x3
    26a0:	00000793          	li	a5,0
    26a4:	ee1ff06f          	j	2584 <__divdf3+0x638>
    26a8:	fe100713          	li	a4,-31
    26ac:	40f707b3          	sub	a5,a4,a5
    26b0:	02000613          	li	a2,32
    26b4:	00f457b3          	srl	a5,s0,a5
    26b8:	00000713          	li	a4,0
    26bc:	00c68663          	beq	a3,a2,26c8 <__divdf3+0x77c>
    26c0:	43ea8a93          	addi	s5,s5,1086
    26c4:	01541733          	sll	a4,s0,s5
    26c8:	01076733          	or	a4,a4,a6
    26cc:	00e03733          	snez	a4,a4
    26d0:	00e7e7b3          	or	a5,a5,a4
    26d4:	00000413          	li	s0,0
    26d8:	f8dff06f          	j	2664 <__divdf3+0x718>
    26dc:	00080437          	lui	s0,0x80
    26e0:	00000813          	li	a6,0
    26e4:	7ff00793          	li	a5,2047
    26e8:	00000a13          	li	s4,0
    26ec:	e99ff06f          	j	2584 <__divdf3+0x638>
    26f0:	00000413          	li	s0,0
    26f4:	00000813          	li	a6,0
    26f8:	7ff00793          	li	a5,2047
    26fc:	e89ff06f          	j	2584 <__divdf3+0x638>
    2700:	00000413          	li	s0,0
    2704:	00000813          	li	a6,0
    2708:	00100793          	li	a5,1
    270c:	e79ff06f          	j	2584 <__divdf3+0x638>

00002710 <__gedf2>:
    2710:	0146d793          	srli	a5,a3,0x14
    2714:	0145d893          	srli	a7,a1,0x14
    2718:	00100737          	lui	a4,0x100
    271c:	fff70713          	addi	a4,a4,-1 # fffff <_ctype_+0xde7b7>
    2720:	00050813          	mv	a6,a0
    2724:	00050e13          	mv	t3,a0
    2728:	7ff8f893          	andi	a7,a7,2047
    272c:	7ff7f513          	andi	a0,a5,2047
    2730:	7ff00793          	li	a5,2047
    2734:	00b77333          	and	t1,a4,a1
    2738:	00060e93          	mv	t4,a2
    273c:	00d77733          	and	a4,a4,a3
    2740:	01f5d593          	srli	a1,a1,0x1f
    2744:	01f6d693          	srli	a3,a3,0x1f
    2748:	00f89663          	bne	a7,a5,2754 <__gedf2+0x44>
    274c:	01036f33          	or	t5,t1,a6
    2750:	060f1663          	bnez	t5,27bc <__gedf2+0xac>
    2754:	00f51663          	bne	a0,a5,2760 <__gedf2+0x50>
    2758:	00c767b3          	or	a5,a4,a2
    275c:	06079063          	bnez	a5,27bc <__gedf2+0xac>
    2760:	00000793          	li	a5,0
    2764:	00089663          	bnez	a7,2770 <__gedf2+0x60>
    2768:	01036833          	or	a6,t1,a6
    276c:	00183793          	seqz	a5,a6
    2770:	04051a63          	bnez	a0,27c4 <__gedf2+0xb4>
    2774:	00c76633          	or	a2,a4,a2
    2778:	00078a63          	beqz	a5,278c <__gedf2+0x7c>
    277c:	06060063          	beqz	a2,27dc <__gedf2+0xcc>
    2780:	00169513          	slli	a0,a3,0x1
    2784:	fff50513          	addi	a0,a0,-1
    2788:	00008067          	ret
    278c:	02061e63          	bnez	a2,27c8 <__gedf2+0xb8>
    2790:	40b005b3          	neg	a1,a1
    2794:	0015e513          	ori	a0,a1,1
    2798:	00008067          	ret
    279c:	fea8c2e3          	blt	a7,a0,2780 <__gedf2+0x70>
    27a0:	fe6768e3          	bltu	a4,t1,2790 <__gedf2+0x80>
    27a4:	00e31863          	bne	t1,a4,27b4 <__gedf2+0xa4>
    27a8:	ffcee4e3          	bltu	t4,t3,2790 <__gedf2+0x80>
    27ac:	00000513          	li	a0,0
    27b0:	03de7663          	bgeu	t3,t4,27dc <__gedf2+0xcc>
    27b4:	00159513          	slli	a0,a1,0x1
    27b8:	fcdff06f          	j	2784 <__gedf2+0x74>
    27bc:	ffe00513          	li	a0,-2
    27c0:	00008067          	ret
    27c4:	fa079ee3          	bnez	a5,2780 <__gedf2+0x70>
    27c8:	fcb694e3          	bne	a3,a1,2790 <__gedf2+0x80>
    27cc:	fd1558e3          	bge	a0,a7,279c <__gedf2+0x8c>
    27d0:	40d006b3          	neg	a3,a3
    27d4:	0016e513          	ori	a0,a3,1
    27d8:	00008067          	ret
    27dc:	00008067          	ret

000027e0 <__ledf2>:
    27e0:	0146d793          	srli	a5,a3,0x14
    27e4:	0145d893          	srli	a7,a1,0x14
    27e8:	00100737          	lui	a4,0x100
    27ec:	fff70713          	addi	a4,a4,-1 # fffff <_ctype_+0xde7b7>
    27f0:	00050813          	mv	a6,a0
    27f4:	00050e13          	mv	t3,a0
    27f8:	7ff8f893          	andi	a7,a7,2047
    27fc:	7ff7f513          	andi	a0,a5,2047
    2800:	7ff00793          	li	a5,2047
    2804:	00b77333          	and	t1,a4,a1
    2808:	00060e93          	mv	t4,a2
    280c:	00d77733          	and	a4,a4,a3
    2810:	01f5d593          	srli	a1,a1,0x1f
    2814:	01f6d693          	srli	a3,a3,0x1f
    2818:	00f89663          	bne	a7,a5,2824 <__ledf2+0x44>
    281c:	01036f33          	or	t5,t1,a6
    2820:	060f1663          	bnez	t5,288c <__ledf2+0xac>
    2824:	00f51663          	bne	a0,a5,2830 <__ledf2+0x50>
    2828:	00c767b3          	or	a5,a4,a2
    282c:	06079063          	bnez	a5,288c <__ledf2+0xac>
    2830:	00000793          	li	a5,0
    2834:	00089663          	bnez	a7,2840 <__ledf2+0x60>
    2838:	01036833          	or	a6,t1,a6
    283c:	00183793          	seqz	a5,a6
    2840:	04051a63          	bnez	a0,2894 <__ledf2+0xb4>
    2844:	00c76633          	or	a2,a4,a2
    2848:	00078a63          	beqz	a5,285c <__ledf2+0x7c>
    284c:	06060063          	beqz	a2,28ac <__ledf2+0xcc>
    2850:	00169513          	slli	a0,a3,0x1
    2854:	fff50513          	addi	a0,a0,-1
    2858:	00008067          	ret
    285c:	02061e63          	bnez	a2,2898 <__ledf2+0xb8>
    2860:	40b005b3          	neg	a1,a1
    2864:	0015e513          	ori	a0,a1,1
    2868:	00008067          	ret
    286c:	fea8c2e3          	blt	a7,a0,2850 <__ledf2+0x70>
    2870:	fe6768e3          	bltu	a4,t1,2860 <__ledf2+0x80>
    2874:	00e31863          	bne	t1,a4,2884 <__ledf2+0xa4>
    2878:	ffcee4e3          	bltu	t4,t3,2860 <__ledf2+0x80>
    287c:	00000513          	li	a0,0
    2880:	03de7663          	bgeu	t3,t4,28ac <__ledf2+0xcc>
    2884:	00159513          	slli	a0,a1,0x1
    2888:	fcdff06f          	j	2854 <__ledf2+0x74>
    288c:	00200513          	li	a0,2
    2890:	00008067          	ret
    2894:	fa079ee3          	bnez	a5,2850 <__ledf2+0x70>
    2898:	fcb694e3          	bne	a3,a1,2860 <__ledf2+0x80>
    289c:	fd1558e3          	bge	a0,a7,286c <__ledf2+0x8c>
    28a0:	40d006b3          	neg	a3,a3
    28a4:	0016e513          	ori	a0,a3,1
    28a8:	00008067          	ret
    28ac:	00008067          	ret

000028b0 <__fixunsdfsi>:
    28b0:	0145d713          	srli	a4,a1,0x14
    28b4:	00100837          	lui	a6,0x100
    28b8:	fff80793          	addi	a5,a6,-1 # fffff <_ctype_+0xde7b7>
    28bc:	7ff77713          	andi	a4,a4,2047
    28c0:	3fe00613          	li	a2,1022
    28c4:	00b7f7b3          	and	a5,a5,a1
    28c8:	00050693          	mv	a3,a0
    28cc:	01f5d593          	srli	a1,a1,0x1f
    28d0:	04e65a63          	bge	a2,a4,2924 <__fixunsdfsi+0x74>
    28d4:	41f00613          	li	a2,1055
    28d8:	40b60633          	sub	a2,a2,a1
    28dc:	fff58513          	addi	a0,a1,-1
    28e0:	04c75463          	bge	a4,a2,2928 <__fixunsdfsi+0x78>
    28e4:	00000513          	li	a0,0
    28e8:	04059063          	bnez	a1,2928 <__fixunsdfsi+0x78>
    28ec:	43300613          	li	a2,1075
    28f0:	40e60633          	sub	a2,a2,a4
    28f4:	01f00593          	li	a1,31
    28f8:	0107e7b3          	or	a5,a5,a6
    28fc:	00c5cc63          	blt	a1,a2,2914 <__fixunsdfsi+0x64>
    2900:	bed70713          	addi	a4,a4,-1043
    2904:	00e797b3          	sll	a5,a5,a4
    2908:	00c6d533          	srl	a0,a3,a2
    290c:	00a7e533          	or	a0,a5,a0
    2910:	00008067          	ret
    2914:	41300693          	li	a3,1043
    2918:	40e68733          	sub	a4,a3,a4
    291c:	00e7d533          	srl	a0,a5,a4
    2920:	00008067          	ret
    2924:	00000513          	li	a0,0
    2928:	00008067          	ret

0000292c <__floatunsidf>:
    292c:	ff010113          	addi	sp,sp,-16
    2930:	01212023          	sw	s2,0(sp)
    2934:	00112623          	sw	ra,12(sp)
    2938:	00812423          	sw	s0,8(sp)
    293c:	00912223          	sw	s1,4(sp)
    2940:	00050913          	mv	s2,a0
    2944:	06050663          	beqz	a0,29b0 <__floatunsidf+0x84>
    2948:	14c000ef          	jal	2a94 <__clzsi2>
    294c:	41e00713          	li	a4,1054
    2950:	00a00793          	li	a5,10
    2954:	40a70733          	sub	a4,a4,a0
    2958:	04a7c463          	blt	a5,a0,29a0 <__floatunsidf+0x74>
    295c:	00b00793          	li	a5,11
    2960:	40a787b3          	sub	a5,a5,a0
    2964:	01550513          	addi	a0,a0,21
    2968:	00f957b3          	srl	a5,s2,a5
    296c:	00a91933          	sll	s2,s2,a0
    2970:	00c12083          	lw	ra,12(sp)
    2974:	00812403          	lw	s0,8(sp)
    2978:	00c79793          	slli	a5,a5,0xc
    297c:	01471713          	slli	a4,a4,0x14
    2980:	00c7d793          	srli	a5,a5,0xc
    2984:	00f766b3          	or	a3,a4,a5
    2988:	00412483          	lw	s1,4(sp)
    298c:	00090513          	mv	a0,s2
    2990:	00068593          	mv	a1,a3
    2994:	00012903          	lw	s2,0(sp)
    2998:	01010113          	addi	sp,sp,16
    299c:	00008067          	ret
    29a0:	ff550513          	addi	a0,a0,-11
    29a4:	00a917b3          	sll	a5,s2,a0
    29a8:	00000913          	li	s2,0
    29ac:	fc5ff06f          	j	2970 <__floatunsidf+0x44>
    29b0:	00000793          	li	a5,0
    29b4:	00000713          	li	a4,0
    29b8:	fb9ff06f          	j	2970 <__floatunsidf+0x44>

000029bc <__mulsi3>:
    29bc:	00050613          	mv	a2,a0
    29c0:	00000513          	li	a0,0
    29c4:	0015f693          	andi	a3,a1,1
    29c8:	00068463          	beqz	a3,29d0 <__mulsi3+0x14>
    29cc:	00c50533          	add	a0,a0,a2
    29d0:	0015d593          	srli	a1,a1,0x1
    29d4:	00161613          	slli	a2,a2,0x1
    29d8:	fe0596e3          	bnez	a1,29c4 <__mulsi3+0x8>
    29dc:	00008067          	ret

000029e0 <__divsi3>:
    29e0:	06054063          	bltz	a0,2a40 <__umodsi3+0x10>
    29e4:	0605c663          	bltz	a1,2a50 <__umodsi3+0x20>

000029e8 <__hidden___udivsi3>:
    29e8:	00058613          	mv	a2,a1
    29ec:	00050593          	mv	a1,a0
    29f0:	fff00513          	li	a0,-1
    29f4:	02060c63          	beqz	a2,2a2c <__hidden___udivsi3+0x44>
    29f8:	00100693          	li	a3,1
    29fc:	00b67a63          	bgeu	a2,a1,2a10 <__hidden___udivsi3+0x28>
    2a00:	00c05863          	blez	a2,2a10 <__hidden___udivsi3+0x28>
    2a04:	00161613          	slli	a2,a2,0x1
    2a08:	00169693          	slli	a3,a3,0x1
    2a0c:	feb66ae3          	bltu	a2,a1,2a00 <__hidden___udivsi3+0x18>
    2a10:	00000513          	li	a0,0
    2a14:	00c5e663          	bltu	a1,a2,2a20 <__hidden___udivsi3+0x38>
    2a18:	40c585b3          	sub	a1,a1,a2
    2a1c:	00d56533          	or	a0,a0,a3
    2a20:	0016d693          	srli	a3,a3,0x1
    2a24:	00165613          	srli	a2,a2,0x1
    2a28:	fe0696e3          	bnez	a3,2a14 <__hidden___udivsi3+0x2c>
    2a2c:	00008067          	ret

00002a30 <__umodsi3>:
    2a30:	00008293          	mv	t0,ra
    2a34:	fb5ff0ef          	jal	29e8 <__hidden___udivsi3>
    2a38:	00058513          	mv	a0,a1
    2a3c:	00028067          	jr	t0
    2a40:	40a00533          	neg	a0,a0
    2a44:	00b04863          	bgtz	a1,2a54 <__umodsi3+0x24>
    2a48:	40b005b3          	neg	a1,a1
    2a4c:	f9dff06f          	j	29e8 <__hidden___udivsi3>
    2a50:	40b005b3          	neg	a1,a1
    2a54:	00008293          	mv	t0,ra
    2a58:	f91ff0ef          	jal	29e8 <__hidden___udivsi3>
    2a5c:	40a00533          	neg	a0,a0
    2a60:	00028067          	jr	t0

00002a64 <__modsi3>:
    2a64:	00008293          	mv	t0,ra
    2a68:	0005ca63          	bltz	a1,2a7c <__modsi3+0x18>
    2a6c:	00054c63          	bltz	a0,2a84 <__modsi3+0x20>
    2a70:	f79ff0ef          	jal	29e8 <__hidden___udivsi3>
    2a74:	00058513          	mv	a0,a1
    2a78:	00028067          	jr	t0
    2a7c:	40b005b3          	neg	a1,a1
    2a80:	fe0558e3          	bgez	a0,2a70 <__modsi3+0xc>
    2a84:	40a00533          	neg	a0,a0
    2a88:	f61ff0ef          	jal	29e8 <__hidden___udivsi3>
    2a8c:	40b00533          	neg	a0,a1
    2a90:	00028067          	jr	t0

00002a94 <__clzsi2>:
    2a94:	000107b7          	lui	a5,0x10
    2a98:	02f57a63          	bgeu	a0,a5,2acc <__clzsi2+0x38>
    2a9c:	10053793          	sltiu	a5,a0,256
    2aa0:	0017b793          	seqz	a5,a5
    2aa4:	00379793          	slli	a5,a5,0x3
    2aa8:	00021737          	lui	a4,0x21
    2aac:	02000693          	li	a3,32
    2ab0:	40f686b3          	sub	a3,a3,a5
    2ab4:	00f55533          	srl	a0,a0,a5
    2ab8:	d2470793          	addi	a5,a4,-732 # 20d24 <__clz_tab>
    2abc:	00a787b3          	add	a5,a5,a0
    2ac0:	0007c503          	lbu	a0,0(a5) # 10000 <__rv_alloc_D2A+0x68>
    2ac4:	40a68533          	sub	a0,a3,a0
    2ac8:	00008067          	ret
    2acc:	01000737          	lui	a4,0x1000
    2ad0:	01800793          	li	a5,24
    2ad4:	fce57ae3          	bgeu	a0,a4,2aa8 <__clzsi2+0x14>
    2ad8:	01000793          	li	a5,16
    2adc:	fcdff06f          	j	2aa8 <__clzsi2+0x14>

00002ae0 <memset>:
    2ae0:	00f00313          	li	t1,15
    2ae4:	00050713          	mv	a4,a0
    2ae8:	02c37e63          	bgeu	t1,a2,2b24 <memset+0x44>
    2aec:	00f77793          	andi	a5,a4,15
    2af0:	0a079063          	bnez	a5,2b90 <memset+0xb0>
    2af4:	08059263          	bnez	a1,2b78 <memset+0x98>
    2af8:	ff067693          	andi	a3,a2,-16
    2afc:	00f67613          	andi	a2,a2,15
    2b00:	00e686b3          	add	a3,a3,a4
    2b04:	00b72023          	sw	a1,0(a4) # 1000000 <_ctype_+0xfde7b8>
    2b08:	00b72223          	sw	a1,4(a4)
    2b0c:	00b72423          	sw	a1,8(a4)
    2b10:	00b72623          	sw	a1,12(a4)
    2b14:	01070713          	addi	a4,a4,16
    2b18:	fed766e3          	bltu	a4,a3,2b04 <memset+0x24>
    2b1c:	00061463          	bnez	a2,2b24 <memset+0x44>
    2b20:	00008067          	ret
    2b24:	40c306b3          	sub	a3,t1,a2
    2b28:	00269693          	slli	a3,a3,0x2
    2b2c:	00000297          	auipc	t0,0x0
    2b30:	005686b3          	add	a3,a3,t0
    2b34:	00c68067          	jr	12(a3)
    2b38:	00b70723          	sb	a1,14(a4)
    2b3c:	00b706a3          	sb	a1,13(a4)
    2b40:	00b70623          	sb	a1,12(a4)
    2b44:	00b705a3          	sb	a1,11(a4)
    2b48:	00b70523          	sb	a1,10(a4)
    2b4c:	00b704a3          	sb	a1,9(a4)
    2b50:	00b70423          	sb	a1,8(a4)
    2b54:	00b703a3          	sb	a1,7(a4)
    2b58:	00b70323          	sb	a1,6(a4)
    2b5c:	00b702a3          	sb	a1,5(a4)
    2b60:	00b70223          	sb	a1,4(a4)
    2b64:	00b701a3          	sb	a1,3(a4)
    2b68:	00b70123          	sb	a1,2(a4)
    2b6c:	00b700a3          	sb	a1,1(a4)
    2b70:	00b70023          	sb	a1,0(a4)
    2b74:	00008067          	ret
    2b78:	0ff5f593          	zext.b	a1,a1
    2b7c:	00859693          	slli	a3,a1,0x8
    2b80:	00d5e5b3          	or	a1,a1,a3
    2b84:	01059693          	slli	a3,a1,0x10
    2b88:	00d5e5b3          	or	a1,a1,a3
    2b8c:	f6dff06f          	j	2af8 <memset+0x18>
    2b90:	00279693          	slli	a3,a5,0x2
    2b94:	00000297          	auipc	t0,0x0
    2b98:	005686b3          	add	a3,a3,t0
    2b9c:	00008293          	mv	t0,ra
    2ba0:	fa0680e7          	jalr	-96(a3)
    2ba4:	00028093          	mv	ra,t0
    2ba8:	ff078793          	addi	a5,a5,-16
    2bac:	40f70733          	sub	a4,a4,a5
    2bb0:	00f60633          	add	a2,a2,a5
    2bb4:	f6c378e3          	bgeu	t1,a2,2b24 <memset+0x44>
    2bb8:	f3dff06f          	j	2af4 <memset+0x14>

00002bbc <strcmp>:
    2bbc:	00b56733          	or	a4,a0,a1
    2bc0:	fff00393          	li	t2,-1
    2bc4:	00377713          	andi	a4,a4,3
    2bc8:	10071063          	bnez	a4,2cc8 <strcmp+0x10c>
    2bcc:	7f7f87b7          	lui	a5,0x7f7f8
    2bd0:	f7f78793          	addi	a5,a5,-129 # 7f7f7f7f <_ctype_+0x7f7d6737>
    2bd4:	00052603          	lw	a2,0(a0)
    2bd8:	0005a683          	lw	a3,0(a1)
    2bdc:	00f672b3          	and	t0,a2,a5
    2be0:	00f66333          	or	t1,a2,a5
    2be4:	00f282b3          	add	t0,t0,a5
    2be8:	0062e2b3          	or	t0,t0,t1
    2bec:	10729263          	bne	t0,t2,2cf0 <strcmp+0x134>
    2bf0:	08d61663          	bne	a2,a3,2c7c <strcmp+0xc0>
    2bf4:	00452603          	lw	a2,4(a0)
    2bf8:	0045a683          	lw	a3,4(a1)
    2bfc:	00f672b3          	and	t0,a2,a5
    2c00:	00f66333          	or	t1,a2,a5
    2c04:	00f282b3          	add	t0,t0,a5
    2c08:	0062e2b3          	or	t0,t0,t1
    2c0c:	0c729e63          	bne	t0,t2,2ce8 <strcmp+0x12c>
    2c10:	06d61663          	bne	a2,a3,2c7c <strcmp+0xc0>
    2c14:	00852603          	lw	a2,8(a0)
    2c18:	0085a683          	lw	a3,8(a1)
    2c1c:	00f672b3          	and	t0,a2,a5
    2c20:	00f66333          	or	t1,a2,a5
    2c24:	00f282b3          	add	t0,t0,a5
    2c28:	0062e2b3          	or	t0,t0,t1
    2c2c:	0c729863          	bne	t0,t2,2cfc <strcmp+0x140>
    2c30:	04d61663          	bne	a2,a3,2c7c <strcmp+0xc0>
    2c34:	00c52603          	lw	a2,12(a0)
    2c38:	00c5a683          	lw	a3,12(a1)
    2c3c:	00f672b3          	and	t0,a2,a5
    2c40:	00f66333          	or	t1,a2,a5
    2c44:	00f282b3          	add	t0,t0,a5
    2c48:	0062e2b3          	or	t0,t0,t1
    2c4c:	0c729263          	bne	t0,t2,2d10 <strcmp+0x154>
    2c50:	02d61663          	bne	a2,a3,2c7c <strcmp+0xc0>
    2c54:	01052603          	lw	a2,16(a0)
    2c58:	0105a683          	lw	a3,16(a1)
    2c5c:	00f672b3          	and	t0,a2,a5
    2c60:	00f66333          	or	t1,a2,a5
    2c64:	00f282b3          	add	t0,t0,a5
    2c68:	0062e2b3          	or	t0,t0,t1
    2c6c:	0a729c63          	bne	t0,t2,2d24 <strcmp+0x168>
    2c70:	01450513          	addi	a0,a0,20
    2c74:	01458593          	addi	a1,a1,20
    2c78:	f4d60ee3          	beq	a2,a3,2bd4 <strcmp+0x18>
    2c7c:	01061713          	slli	a4,a2,0x10
    2c80:	01069793          	slli	a5,a3,0x10
    2c84:	00f71e63          	bne	a4,a5,2ca0 <strcmp+0xe4>
    2c88:	01065713          	srli	a4,a2,0x10
    2c8c:	0106d793          	srli	a5,a3,0x10
    2c90:	40f70533          	sub	a0,a4,a5
    2c94:	0ff57593          	zext.b	a1,a0
    2c98:	02059063          	bnez	a1,2cb8 <strcmp+0xfc>
    2c9c:	00008067          	ret
    2ca0:	01075713          	srli	a4,a4,0x10
    2ca4:	0107d793          	srli	a5,a5,0x10
    2ca8:	40f70533          	sub	a0,a4,a5
    2cac:	0ff57593          	zext.b	a1,a0
    2cb0:	00059463          	bnez	a1,2cb8 <strcmp+0xfc>
    2cb4:	00008067          	ret
    2cb8:	0ff77713          	zext.b	a4,a4
    2cbc:	0ff7f793          	zext.b	a5,a5
    2cc0:	40f70533          	sub	a0,a4,a5
    2cc4:	00008067          	ret
    2cc8:	00054603          	lbu	a2,0(a0)
    2ccc:	0005c683          	lbu	a3,0(a1)
    2cd0:	00150513          	addi	a0,a0,1
    2cd4:	00158593          	addi	a1,a1,1
    2cd8:	00d61463          	bne	a2,a3,2ce0 <strcmp+0x124>
    2cdc:	fe0616e3          	bnez	a2,2cc8 <strcmp+0x10c>
    2ce0:	40d60533          	sub	a0,a2,a3
    2ce4:	00008067          	ret
    2ce8:	00450513          	addi	a0,a0,4
    2cec:	00458593          	addi	a1,a1,4
    2cf0:	fcd61ce3          	bne	a2,a3,2cc8 <strcmp+0x10c>
    2cf4:	00000513          	li	a0,0
    2cf8:	00008067          	ret
    2cfc:	00850513          	addi	a0,a0,8
    2d00:	00858593          	addi	a1,a1,8
    2d04:	fcd612e3          	bne	a2,a3,2cc8 <strcmp+0x10c>
    2d08:	00000513          	li	a0,0
    2d0c:	00008067          	ret
    2d10:	00c50513          	addi	a0,a0,12
    2d14:	00c58593          	addi	a1,a1,12
    2d18:	fad618e3          	bne	a2,a3,2cc8 <strcmp+0x10c>
    2d1c:	00000513          	li	a0,0
    2d20:	00008067          	ret
    2d24:	01050513          	addi	a0,a0,16
    2d28:	01058593          	addi	a1,a1,16
    2d2c:	f8d61ee3          	bne	a2,a3,2cc8 <strcmp+0x10c>
    2d30:	00000513          	li	a0,0
    2d34:	00008067          	ret

00002d38 <__udivdi3>:
    2d38:	fd010113          	addi	sp,sp,-48
    2d3c:	01412c23          	sw	s4,24(sp)
    2d40:	02112623          	sw	ra,44(sp)
    2d44:	02812423          	sw	s0,40(sp)
    2d48:	02912223          	sw	s1,36(sp)
    2d4c:	03212023          	sw	s2,32(sp)
    2d50:	01312e23          	sw	s3,28(sp)
    2d54:	01512a23          	sw	s5,20(sp)
    2d58:	01612823          	sw	s6,16(sp)
    2d5c:	01712623          	sw	s7,12(sp)
    2d60:	01812423          	sw	s8,8(sp)
    2d64:	01912223          	sw	s9,4(sp)
    2d68:	01a12023          	sw	s10,0(sp)
    2d6c:	00050a13          	mv	s4,a0
    2d70:	38069663          	bnez	a3,30fc <__udivdi3+0x3c4>
    2d74:	000217b7          	lui	a5,0x21
    2d78:	00060993          	mv	s3,a2
    2d7c:	00050493          	mv	s1,a0
    2d80:	d2478793          	addi	a5,a5,-732 # 20d24 <__clz_tab>
    2d84:	12c5f863          	bgeu	a1,a2,2eb4 <__udivdi3+0x17c>
    2d88:	00010737          	lui	a4,0x10
    2d8c:	00058913          	mv	s2,a1
    2d90:	10e67863          	bgeu	a2,a4,2ea0 <__udivdi3+0x168>
    2d94:	10063713          	sltiu	a4,a2,256
    2d98:	00173713          	seqz	a4,a4
    2d9c:	00371713          	slli	a4,a4,0x3
    2da0:	00e656b3          	srl	a3,a2,a4
    2da4:	00d787b3          	add	a5,a5,a3
    2da8:	0007c783          	lbu	a5,0(a5)
    2dac:	02000693          	li	a3,32
    2db0:	00e787b3          	add	a5,a5,a4
    2db4:	40f68733          	sub	a4,a3,a5
    2db8:	00f68c63          	beq	a3,a5,2dd0 <__udivdi3+0x98>
    2dbc:	00e59933          	sll	s2,a1,a4
    2dc0:	00fa57b3          	srl	a5,s4,a5
    2dc4:	00e619b3          	sll	s3,a2,a4
    2dc8:	0127e933          	or	s2,a5,s2
    2dcc:	00ea14b3          	sll	s1,s4,a4
    2dd0:	0109da93          	srli	s5,s3,0x10
    2dd4:	000a8593          	mv	a1,s5
    2dd8:	00090513          	mv	a0,s2
    2ddc:	01099b13          	slli	s6,s3,0x10
    2de0:	c09ff0ef          	jal	29e8 <__hidden___udivsi3>
    2de4:	010b5b13          	srli	s6,s6,0x10
    2de8:	00050593          	mv	a1,a0
    2dec:	00050a13          	mv	s4,a0
    2df0:	000b0513          	mv	a0,s6
    2df4:	bc9ff0ef          	jal	29bc <__mulsi3>
    2df8:	00050413          	mv	s0,a0
    2dfc:	000a8593          	mv	a1,s5
    2e00:	00090513          	mv	a0,s2
    2e04:	c2dff0ef          	jal	2a30 <__umodsi3>
    2e08:	01051513          	slli	a0,a0,0x10
    2e0c:	0104d713          	srli	a4,s1,0x10
    2e10:	00a76733          	or	a4,a4,a0
    2e14:	000a0913          	mv	s2,s4
    2e18:	00877e63          	bgeu	a4,s0,2e34 <__udivdi3+0xfc>
    2e1c:	00e98733          	add	a4,s3,a4
    2e20:	fffa0913          	addi	s2,s4,-1
    2e24:	01376863          	bltu	a4,s3,2e34 <__udivdi3+0xfc>
    2e28:	00877663          	bgeu	a4,s0,2e34 <__udivdi3+0xfc>
    2e2c:	ffea0913          	addi	s2,s4,-2
    2e30:	01370733          	add	a4,a4,s3
    2e34:	40870433          	sub	s0,a4,s0
    2e38:	000a8593          	mv	a1,s5
    2e3c:	00040513          	mv	a0,s0
    2e40:	ba9ff0ef          	jal	29e8 <__hidden___udivsi3>
    2e44:	00050593          	mv	a1,a0
    2e48:	00050a13          	mv	s4,a0
    2e4c:	000b0513          	mv	a0,s6
    2e50:	b6dff0ef          	jal	29bc <__mulsi3>
    2e54:	00050b13          	mv	s6,a0
    2e58:	000a8593          	mv	a1,s5
    2e5c:	00040513          	mv	a0,s0
    2e60:	bd1ff0ef          	jal	2a30 <__umodsi3>
    2e64:	01049493          	slli	s1,s1,0x10
    2e68:	01051513          	slli	a0,a0,0x10
    2e6c:	0104d493          	srli	s1,s1,0x10
    2e70:	00a4e4b3          	or	s1,s1,a0
    2e74:	000a0713          	mv	a4,s4
    2e78:	0164fc63          	bgeu	s1,s6,2e90 <__udivdi3+0x158>
    2e7c:	009984b3          	add	s1,s3,s1
    2e80:	fffa0713          	addi	a4,s4,-1
    2e84:	0134e663          	bltu	s1,s3,2e90 <__udivdi3+0x158>
    2e88:	0164f463          	bgeu	s1,s6,2e90 <__udivdi3+0x158>
    2e8c:	ffea0713          	addi	a4,s4,-2
    2e90:	01091793          	slli	a5,s2,0x10
    2e94:	00e7e7b3          	or	a5,a5,a4
    2e98:	00000913          	li	s2,0
    2e9c:	1200006f          	j	2fbc <__udivdi3+0x284>
    2ea0:	010006b7          	lui	a3,0x1000
    2ea4:	01800713          	li	a4,24
    2ea8:	eed67ce3          	bgeu	a2,a3,2da0 <__udivdi3+0x68>
    2eac:	01000713          	li	a4,16
    2eb0:	ef1ff06f          	j	2da0 <__udivdi3+0x68>
    2eb4:	00000713          	li	a4,0
    2eb8:	00060c63          	beqz	a2,2ed0 <__udivdi3+0x198>
    2ebc:	00010737          	lui	a4,0x10
    2ec0:	12e67e63          	bgeu	a2,a4,2ffc <__udivdi3+0x2c4>
    2ec4:	10063713          	sltiu	a4,a2,256
    2ec8:	00173713          	seqz	a4,a4
    2ecc:	00371713          	slli	a4,a4,0x3
    2ed0:	00e656b3          	srl	a3,a2,a4
    2ed4:	00d787b3          	add	a5,a5,a3
    2ed8:	0007c783          	lbu	a5,0(a5)
    2edc:	02000693          	li	a3,32
    2ee0:	00e787b3          	add	a5,a5,a4
    2ee4:	40f68733          	sub	a4,a3,a5
    2ee8:	12f69463          	bne	a3,a5,3010 <__udivdi3+0x2d8>
    2eec:	40c58a33          	sub	s4,a1,a2
    2ef0:	00100913          	li	s2,1
    2ef4:	0109db13          	srli	s6,s3,0x10
    2ef8:	000b0593          	mv	a1,s6
    2efc:	000a0513          	mv	a0,s4
    2f00:	01099b93          	slli	s7,s3,0x10
    2f04:	ae5ff0ef          	jal	29e8 <__hidden___udivsi3>
    2f08:	010bdb93          	srli	s7,s7,0x10
    2f0c:	00050593          	mv	a1,a0
    2f10:	00050c13          	mv	s8,a0
    2f14:	000b8513          	mv	a0,s7
    2f18:	aa5ff0ef          	jal	29bc <__mulsi3>
    2f1c:	00050a93          	mv	s5,a0
    2f20:	000b0593          	mv	a1,s6
    2f24:	000a0513          	mv	a0,s4
    2f28:	b09ff0ef          	jal	2a30 <__umodsi3>
    2f2c:	01051513          	slli	a0,a0,0x10
    2f30:	0104d713          	srli	a4,s1,0x10
    2f34:	00a76733          	or	a4,a4,a0
    2f38:	000c0a13          	mv	s4,s8
    2f3c:	01577e63          	bgeu	a4,s5,2f58 <__udivdi3+0x220>
    2f40:	00e98733          	add	a4,s3,a4
    2f44:	fffc0a13          	addi	s4,s8,-1
    2f48:	01376863          	bltu	a4,s3,2f58 <__udivdi3+0x220>
    2f4c:	01577663          	bgeu	a4,s5,2f58 <__udivdi3+0x220>
    2f50:	ffec0a13          	addi	s4,s8,-2
    2f54:	01370733          	add	a4,a4,s3
    2f58:	41570433          	sub	s0,a4,s5
    2f5c:	000b0593          	mv	a1,s6
    2f60:	00040513          	mv	a0,s0
    2f64:	a85ff0ef          	jal	29e8 <__hidden___udivsi3>
    2f68:	00050593          	mv	a1,a0
    2f6c:	00050a93          	mv	s5,a0
    2f70:	000b8513          	mv	a0,s7
    2f74:	a49ff0ef          	jal	29bc <__mulsi3>
    2f78:	00050b93          	mv	s7,a0
    2f7c:	000b0593          	mv	a1,s6
    2f80:	00040513          	mv	a0,s0
    2f84:	aadff0ef          	jal	2a30 <__umodsi3>
    2f88:	01049493          	slli	s1,s1,0x10
    2f8c:	01051513          	slli	a0,a0,0x10
    2f90:	0104d493          	srli	s1,s1,0x10
    2f94:	00a4e4b3          	or	s1,s1,a0
    2f98:	000a8713          	mv	a4,s5
    2f9c:	0174fc63          	bgeu	s1,s7,2fb4 <__udivdi3+0x27c>
    2fa0:	009984b3          	add	s1,s3,s1
    2fa4:	fffa8713          	addi	a4,s5,-1
    2fa8:	0134e663          	bltu	s1,s3,2fb4 <__udivdi3+0x27c>
    2fac:	0174f463          	bgeu	s1,s7,2fb4 <__udivdi3+0x27c>
    2fb0:	ffea8713          	addi	a4,s5,-2
    2fb4:	010a1793          	slli	a5,s4,0x10
    2fb8:	00e7e7b3          	or	a5,a5,a4
    2fbc:	02c12083          	lw	ra,44(sp)
    2fc0:	02812403          	lw	s0,40(sp)
    2fc4:	02412483          	lw	s1,36(sp)
    2fc8:	01c12983          	lw	s3,28(sp)
    2fcc:	01812a03          	lw	s4,24(sp)
    2fd0:	01412a83          	lw	s5,20(sp)
    2fd4:	01012b03          	lw	s6,16(sp)
    2fd8:	00c12b83          	lw	s7,12(sp)
    2fdc:	00812c03          	lw	s8,8(sp)
    2fe0:	00412c83          	lw	s9,4(sp)
    2fe4:	00012d03          	lw	s10,0(sp)
    2fe8:	00090593          	mv	a1,s2
    2fec:	00078513          	mv	a0,a5
    2ff0:	02012903          	lw	s2,32(sp)
    2ff4:	03010113          	addi	sp,sp,48
    2ff8:	00008067          	ret
    2ffc:	010006b7          	lui	a3,0x1000
    3000:	01800713          	li	a4,24
    3004:	ecd676e3          	bgeu	a2,a3,2ed0 <__udivdi3+0x198>
    3008:	01000713          	li	a4,16
    300c:	ec5ff06f          	j	2ed0 <__udivdi3+0x198>
    3010:	00e619b3          	sll	s3,a2,a4
    3014:	00f5d933          	srl	s2,a1,a5
    3018:	0109db93          	srli	s7,s3,0x10
    301c:	00e595b3          	sll	a1,a1,a4
    3020:	00fa57b3          	srl	a5,s4,a5
    3024:	00b7eab3          	or	s5,a5,a1
    3028:	00ea14b3          	sll	s1,s4,a4
    302c:	000b8593          	mv	a1,s7
    3030:	00090513          	mv	a0,s2
    3034:	01099a13          	slli	s4,s3,0x10
    3038:	9b1ff0ef          	jal	29e8 <__hidden___udivsi3>
    303c:	010a5a13          	srli	s4,s4,0x10
    3040:	00050593          	mv	a1,a0
    3044:	00050b13          	mv	s6,a0
    3048:	000a0513          	mv	a0,s4
    304c:	971ff0ef          	jal	29bc <__mulsi3>
    3050:	00050413          	mv	s0,a0
    3054:	000b8593          	mv	a1,s7
    3058:	00090513          	mv	a0,s2
    305c:	9d5ff0ef          	jal	2a30 <__umodsi3>
    3060:	01051513          	slli	a0,a0,0x10
    3064:	010ad713          	srli	a4,s5,0x10
    3068:	00a76733          	or	a4,a4,a0
    306c:	000b0913          	mv	s2,s6
    3070:	00877e63          	bgeu	a4,s0,308c <__udivdi3+0x354>
    3074:	00e98733          	add	a4,s3,a4
    3078:	fffb0913          	addi	s2,s6,-1
    307c:	01376863          	bltu	a4,s3,308c <__udivdi3+0x354>
    3080:	00877663          	bgeu	a4,s0,308c <__udivdi3+0x354>
    3084:	ffeb0913          	addi	s2,s6,-2
    3088:	01370733          	add	a4,a4,s3
    308c:	40870433          	sub	s0,a4,s0
    3090:	000b8593          	mv	a1,s7
    3094:	00040513          	mv	a0,s0
    3098:	951ff0ef          	jal	29e8 <__hidden___udivsi3>
    309c:	00050593          	mv	a1,a0
    30a0:	00050b13          	mv	s6,a0
    30a4:	000a0513          	mv	a0,s4
    30a8:	915ff0ef          	jal	29bc <__mulsi3>
    30ac:	00050a13          	mv	s4,a0
    30b0:	000b8593          	mv	a1,s7
    30b4:	00040513          	mv	a0,s0
    30b8:	979ff0ef          	jal	2a30 <__umodsi3>
    30bc:	010a9793          	slli	a5,s5,0x10
    30c0:	01051513          	slli	a0,a0,0x10
    30c4:	0107d793          	srli	a5,a5,0x10
    30c8:	00a7e7b3          	or	a5,a5,a0
    30cc:	000b0713          	mv	a4,s6
    30d0:	0147fe63          	bgeu	a5,s4,30ec <__udivdi3+0x3b4>
    30d4:	00f987b3          	add	a5,s3,a5
    30d8:	fffb0713          	addi	a4,s6,-1
    30dc:	0137e863          	bltu	a5,s3,30ec <__udivdi3+0x3b4>
    30e0:	0147f663          	bgeu	a5,s4,30ec <__udivdi3+0x3b4>
    30e4:	ffeb0713          	addi	a4,s6,-2
    30e8:	013787b3          	add	a5,a5,s3
    30ec:	01091913          	slli	s2,s2,0x10
    30f0:	41478a33          	sub	s4,a5,s4
    30f4:	00e96933          	or	s2,s2,a4
    30f8:	dfdff06f          	j	2ef4 <__udivdi3+0x1bc>
    30fc:	1ed5ec63          	bltu	a1,a3,32f4 <__udivdi3+0x5bc>
    3100:	000107b7          	lui	a5,0x10
    3104:	04f6f463          	bgeu	a3,a5,314c <__udivdi3+0x414>
    3108:	1006b713          	sltiu	a4,a3,256
    310c:	00173713          	seqz	a4,a4
    3110:	00371713          	slli	a4,a4,0x3
    3114:	000217b7          	lui	a5,0x21
    3118:	00e6d533          	srl	a0,a3,a4
    311c:	d2478793          	addi	a5,a5,-732 # 20d24 <__clz_tab>
    3120:	00a787b3          	add	a5,a5,a0
    3124:	0007c803          	lbu	a6,0(a5)
    3128:	02000793          	li	a5,32
    312c:	00e80833          	add	a6,a6,a4
    3130:	41078933          	sub	s2,a5,a6
    3134:	03079663          	bne	a5,a6,3160 <__udivdi3+0x428>
    3138:	00100793          	li	a5,1
    313c:	e8b6e0e3          	bltu	a3,a1,2fbc <__udivdi3+0x284>
    3140:	00ca37b3          	sltu	a5,s4,a2
    3144:	0017b793          	seqz	a5,a5
    3148:	e75ff06f          	j	2fbc <__udivdi3+0x284>
    314c:	010007b7          	lui	a5,0x1000
    3150:	01800713          	li	a4,24
    3154:	fcf6f0e3          	bgeu	a3,a5,3114 <__udivdi3+0x3dc>
    3158:	01000713          	li	a4,16
    315c:	fb9ff06f          	j	3114 <__udivdi3+0x3dc>
    3160:	012696b3          	sll	a3,a3,s2
    3164:	01065ab3          	srl	s5,a2,a6
    3168:	00daeab3          	or	s5,s5,a3
    316c:	0105d9b3          	srl	s3,a1,a6
    3170:	010adc13          	srli	s8,s5,0x10
    3174:	010a5833          	srl	a6,s4,a6
    3178:	012595b3          	sll	a1,a1,s2
    317c:	00b864b3          	or	s1,a6,a1
    3180:	010a9b93          	slli	s7,s5,0x10
    3184:	000c0593          	mv	a1,s8
    3188:	00098513          	mv	a0,s3
    318c:	01261433          	sll	s0,a2,s2
    3190:	010bdb93          	srli	s7,s7,0x10
    3194:	855ff0ef          	jal	29e8 <__hidden___udivsi3>
    3198:	00050593          	mv	a1,a0
    319c:	00050d13          	mv	s10,a0
    31a0:	000b8513          	mv	a0,s7
    31a4:	819ff0ef          	jal	29bc <__mulsi3>
    31a8:	00050c93          	mv	s9,a0
    31ac:	000c0593          	mv	a1,s8
    31b0:	00098513          	mv	a0,s3
    31b4:	87dff0ef          	jal	2a30 <__umodsi3>
    31b8:	01051513          	slli	a0,a0,0x10
    31bc:	0104d693          	srli	a3,s1,0x10
    31c0:	00a6e6b3          	or	a3,a3,a0
    31c4:	000d0b13          	mv	s6,s10
    31c8:	0196fe63          	bgeu	a3,s9,31e4 <__udivdi3+0x4ac>
    31cc:	00da86b3          	add	a3,s5,a3
    31d0:	fffd0b13          	addi	s6,s10,-1
    31d4:	0156e863          	bltu	a3,s5,31e4 <__udivdi3+0x4ac>
    31d8:	0196f663          	bgeu	a3,s9,31e4 <__udivdi3+0x4ac>
    31dc:	ffed0b13          	addi	s6,s10,-2
    31e0:	015686b3          	add	a3,a3,s5
    31e4:	419689b3          	sub	s3,a3,s9
    31e8:	000c0593          	mv	a1,s8
    31ec:	00098513          	mv	a0,s3
    31f0:	ff8ff0ef          	jal	29e8 <__hidden___udivsi3>
    31f4:	00050593          	mv	a1,a0
    31f8:	00050c93          	mv	s9,a0
    31fc:	000b8513          	mv	a0,s7
    3200:	fbcff0ef          	jal	29bc <__mulsi3>
    3204:	00050b93          	mv	s7,a0
    3208:	000c0593          	mv	a1,s8
    320c:	00098513          	mv	a0,s3
    3210:	821ff0ef          	jal	2a30 <__umodsi3>
    3214:	01049713          	slli	a4,s1,0x10
    3218:	01051513          	slli	a0,a0,0x10
    321c:	01075713          	srli	a4,a4,0x10
    3220:	00a76733          	or	a4,a4,a0
    3224:	000c8693          	mv	a3,s9
    3228:	01777e63          	bgeu	a4,s7,3244 <__udivdi3+0x50c>
    322c:	00ea8733          	add	a4,s5,a4
    3230:	fffc8693          	addi	a3,s9,-1
    3234:	01576863          	bltu	a4,s5,3244 <__udivdi3+0x50c>
    3238:	01777663          	bgeu	a4,s7,3244 <__udivdi3+0x50c>
    323c:	ffec8693          	addi	a3,s9,-2
    3240:	01570733          	add	a4,a4,s5
    3244:	010b1793          	slli	a5,s6,0x10
    3248:	01069813          	slli	a6,a3,0x10
    324c:	01041313          	slli	t1,s0,0x10
    3250:	00d7e7b3          	or	a5,a5,a3
    3254:	01085813          	srli	a6,a6,0x10
    3258:	01035313          	srli	t1,t1,0x10
    325c:	41770733          	sub	a4,a4,s7
    3260:	0107de13          	srli	t3,a5,0x10
    3264:	01045413          	srli	s0,s0,0x10
    3268:	00080513          	mv	a0,a6
    326c:	00030593          	mv	a1,t1
    3270:	f4cff0ef          	jal	29bc <__mulsi3>
    3274:	00050893          	mv	a7,a0
    3278:	00040593          	mv	a1,s0
    327c:	00080513          	mv	a0,a6
    3280:	f3cff0ef          	jal	29bc <__mulsi3>
    3284:	00050813          	mv	a6,a0
    3288:	00030593          	mv	a1,t1
    328c:	000e0513          	mv	a0,t3
    3290:	f2cff0ef          	jal	29bc <__mulsi3>
    3294:	00050313          	mv	t1,a0
    3298:	00040593          	mv	a1,s0
    329c:	000e0513          	mv	a0,t3
    32a0:	f1cff0ef          	jal	29bc <__mulsi3>
    32a4:	0108d693          	srli	a3,a7,0x10
    32a8:	00680833          	add	a6,a6,t1
    32ac:	010686b3          	add	a3,a3,a6
    32b0:	00050613          	mv	a2,a0
    32b4:	0066f663          	bgeu	a3,t1,32c0 <__udivdi3+0x588>
    32b8:	000105b7          	lui	a1,0x10
    32bc:	00b50633          	add	a2,a0,a1
    32c0:	0106d593          	srli	a1,a3,0x10
    32c4:	00c58633          	add	a2,a1,a2
    32c8:	02c76263          	bltu	a4,a2,32ec <__udivdi3+0x5b4>
    32cc:	bcc716e3          	bne	a4,a2,2e98 <__udivdi3+0x160>
    32d0:	01089893          	slli	a7,a7,0x10
    32d4:	01069693          	slli	a3,a3,0x10
    32d8:	0108d893          	srli	a7,a7,0x10
    32dc:	012a1733          	sll	a4,s4,s2
    32e0:	011686b3          	add	a3,a3,a7
    32e4:	00000913          	li	s2,0
    32e8:	ccd77ae3          	bgeu	a4,a3,2fbc <__udivdi3+0x284>
    32ec:	fff78793          	addi	a5,a5,-1 # ffffff <_ctype_+0xfde7b7>
    32f0:	ba9ff06f          	j	2e98 <__udivdi3+0x160>
    32f4:	00000913          	li	s2,0
    32f8:	00000793          	li	a5,0
    32fc:	cc1ff06f          	j	2fbc <__udivdi3+0x284>

00003300 <__umoddi3>:
    3300:	fd010113          	addi	sp,sp,-48
    3304:	02812423          	sw	s0,40(sp)
    3308:	02912223          	sw	s1,36(sp)
    330c:	02112623          	sw	ra,44(sp)
    3310:	03212023          	sw	s2,32(sp)
    3314:	01312e23          	sw	s3,28(sp)
    3318:	01412c23          	sw	s4,24(sp)
    331c:	01512a23          	sw	s5,20(sp)
    3320:	01612823          	sw	s6,16(sp)
    3324:	01712623          	sw	s7,12(sp)
    3328:	01812423          	sw	s8,8(sp)
    332c:	01912223          	sw	s9,4(sp)
    3330:	01a12023          	sw	s10,0(sp)
    3334:	00050413          	mv	s0,a0
    3338:	00058493          	mv	s1,a1
    333c:	24069c63          	bnez	a3,3594 <__umoddi3+0x294>
    3340:	000217b7          	lui	a5,0x21
    3344:	00060993          	mv	s3,a2
    3348:	d2478793          	addi	a5,a5,-732 # 20d24 <__clz_tab>
    334c:	12c5fe63          	bgeu	a1,a2,3488 <__umoddi3+0x188>
    3350:	00010737          	lui	a4,0x10
    3354:	12e67063          	bgeu	a2,a4,3474 <__umoddi3+0x174>
    3358:	10063713          	sltiu	a4,a2,256
    335c:	00173713          	seqz	a4,a4
    3360:	00371713          	slli	a4,a4,0x3
    3364:	00e656b3          	srl	a3,a2,a4
    3368:	00d787b3          	add	a5,a5,a3
    336c:	0007c783          	lbu	a5,0(a5)
    3370:	00e787b3          	add	a5,a5,a4
    3374:	02000713          	li	a4,32
    3378:	40f70933          	sub	s2,a4,a5
    337c:	00f70c63          	beq	a4,a5,3394 <__umoddi3+0x94>
    3380:	012594b3          	sll	s1,a1,s2
    3384:	00f557b3          	srl	a5,a0,a5
    3388:	012619b3          	sll	s3,a2,s2
    338c:	0097e4b3          	or	s1,a5,s1
    3390:	01251433          	sll	s0,a0,s2
    3394:	0109da93          	srli	s5,s3,0x10
    3398:	000a8593          	mv	a1,s5
    339c:	01099b13          	slli	s6,s3,0x10
    33a0:	00048513          	mv	a0,s1
    33a4:	e44ff0ef          	jal	29e8 <__hidden___udivsi3>
    33a8:	010b5b13          	srli	s6,s6,0x10
    33ac:	000b0593          	mv	a1,s6
    33b0:	e0cff0ef          	jal	29bc <__mulsi3>
    33b4:	00050a13          	mv	s4,a0
    33b8:	000a8593          	mv	a1,s5
    33bc:	00048513          	mv	a0,s1
    33c0:	e70ff0ef          	jal	2a30 <__umodsi3>
    33c4:	01051513          	slli	a0,a0,0x10
    33c8:	01045793          	srli	a5,s0,0x10
    33cc:	00a7e7b3          	or	a5,a5,a0
    33d0:	0147fa63          	bgeu	a5,s4,33e4 <__umoddi3+0xe4>
    33d4:	00f987b3          	add	a5,s3,a5
    33d8:	0137e663          	bltu	a5,s3,33e4 <__umoddi3+0xe4>
    33dc:	0147f463          	bgeu	a5,s4,33e4 <__umoddi3+0xe4>
    33e0:	013787b3          	add	a5,a5,s3
    33e4:	414784b3          	sub	s1,a5,s4
    33e8:	000a8593          	mv	a1,s5
    33ec:	00048513          	mv	a0,s1
    33f0:	df8ff0ef          	jal	29e8 <__hidden___udivsi3>
    33f4:	000b0593          	mv	a1,s6
    33f8:	dc4ff0ef          	jal	29bc <__mulsi3>
    33fc:	00050a13          	mv	s4,a0
    3400:	000a8593          	mv	a1,s5
    3404:	00048513          	mv	a0,s1
    3408:	e28ff0ef          	jal	2a30 <__umodsi3>
    340c:	01041413          	slli	s0,s0,0x10
    3410:	01051513          	slli	a0,a0,0x10
    3414:	01045413          	srli	s0,s0,0x10
    3418:	00a46433          	or	s0,s0,a0
    341c:	01447a63          	bgeu	s0,s4,3430 <__umoddi3+0x130>
    3420:	00898433          	add	s0,s3,s0
    3424:	01346663          	bltu	s0,s3,3430 <__umoddi3+0x130>
    3428:	01447463          	bgeu	s0,s4,3430 <__umoddi3+0x130>
    342c:	01340433          	add	s0,s0,s3
    3430:	41440433          	sub	s0,s0,s4
    3434:	01245533          	srl	a0,s0,s2
    3438:	00000593          	li	a1,0
    343c:	02c12083          	lw	ra,44(sp)
    3440:	02812403          	lw	s0,40(sp)
    3444:	02412483          	lw	s1,36(sp)
    3448:	02012903          	lw	s2,32(sp)
    344c:	01c12983          	lw	s3,28(sp)
    3450:	01812a03          	lw	s4,24(sp)
    3454:	01412a83          	lw	s5,20(sp)
    3458:	01012b03          	lw	s6,16(sp)
    345c:	00c12b83          	lw	s7,12(sp)
    3460:	00812c03          	lw	s8,8(sp)
    3464:	00412c83          	lw	s9,4(sp)
    3468:	00012d03          	lw	s10,0(sp)
    346c:	03010113          	addi	sp,sp,48
    3470:	00008067          	ret
    3474:	010006b7          	lui	a3,0x1000
    3478:	01800713          	li	a4,24
    347c:	eed674e3          	bgeu	a2,a3,3364 <__umoddi3+0x64>
    3480:	01000713          	li	a4,16
    3484:	ee1ff06f          	j	3364 <__umoddi3+0x64>
    3488:	00000713          	li	a4,0
    348c:	00060c63          	beqz	a2,34a4 <__umoddi3+0x1a4>
    3490:	00010737          	lui	a4,0x10
    3494:	0ee67663          	bgeu	a2,a4,3580 <__umoddi3+0x280>
    3498:	10063713          	sltiu	a4,a2,256
    349c:	00173713          	seqz	a4,a4
    34a0:	00371713          	slli	a4,a4,0x3
    34a4:	00e656b3          	srl	a3,a2,a4
    34a8:	00d787b3          	add	a5,a5,a3
    34ac:	0007c783          	lbu	a5,0(a5)
    34b0:	40c584b3          	sub	s1,a1,a2
    34b4:	00e787b3          	add	a5,a5,a4
    34b8:	02000713          	li	a4,32
    34bc:	40f70933          	sub	s2,a4,a5
    34c0:	ecf70ae3          	beq	a4,a5,3394 <__umoddi3+0x94>
    34c4:	012619b3          	sll	s3,a2,s2
    34c8:	00f5dbb3          	srl	s7,a1,a5
    34cc:	0109db13          	srli	s6,s3,0x10
    34d0:	00f557b3          	srl	a5,a0,a5
    34d4:	012595b3          	sll	a1,a1,s2
    34d8:	00b7ea33          	or	s4,a5,a1
    34dc:	01251433          	sll	s0,a0,s2
    34e0:	000b0593          	mv	a1,s6
    34e4:	01099a93          	slli	s5,s3,0x10
    34e8:	000b8513          	mv	a0,s7
    34ec:	cfcff0ef          	jal	29e8 <__hidden___udivsi3>
    34f0:	010ada93          	srli	s5,s5,0x10
    34f4:	000a8593          	mv	a1,s5
    34f8:	cc4ff0ef          	jal	29bc <__mulsi3>
    34fc:	00050493          	mv	s1,a0
    3500:	000b0593          	mv	a1,s6
    3504:	000b8513          	mv	a0,s7
    3508:	d28ff0ef          	jal	2a30 <__umodsi3>
    350c:	01051513          	slli	a0,a0,0x10
    3510:	010a5713          	srli	a4,s4,0x10
    3514:	00a76733          	or	a4,a4,a0
    3518:	00977a63          	bgeu	a4,s1,352c <__umoddi3+0x22c>
    351c:	00e98733          	add	a4,s3,a4
    3520:	01376663          	bltu	a4,s3,352c <__umoddi3+0x22c>
    3524:	00977463          	bgeu	a4,s1,352c <__umoddi3+0x22c>
    3528:	01370733          	add	a4,a4,s3
    352c:	409704b3          	sub	s1,a4,s1
    3530:	000b0593          	mv	a1,s6
    3534:	00048513          	mv	a0,s1
    3538:	cb0ff0ef          	jal	29e8 <__hidden___udivsi3>
    353c:	000a8593          	mv	a1,s5
    3540:	c7cff0ef          	jal	29bc <__mulsi3>
    3544:	00050a93          	mv	s5,a0
    3548:	000b0593          	mv	a1,s6
    354c:	00048513          	mv	a0,s1
    3550:	ce0ff0ef          	jal	2a30 <__umodsi3>
    3554:	010a1793          	slli	a5,s4,0x10
    3558:	01051513          	slli	a0,a0,0x10
    355c:	0107d793          	srli	a5,a5,0x10
    3560:	00a7e7b3          	or	a5,a5,a0
    3564:	0157fa63          	bgeu	a5,s5,3578 <__umoddi3+0x278>
    3568:	00f987b3          	add	a5,s3,a5
    356c:	0137e663          	bltu	a5,s3,3578 <__umoddi3+0x278>
    3570:	0157f463          	bgeu	a5,s5,3578 <__umoddi3+0x278>
    3574:	013787b3          	add	a5,a5,s3
    3578:	415784b3          	sub	s1,a5,s5
    357c:	e19ff06f          	j	3394 <__umoddi3+0x94>
    3580:	010006b7          	lui	a3,0x1000
    3584:	01800713          	li	a4,24
    3588:	f0d67ee3          	bgeu	a2,a3,34a4 <__umoddi3+0x1a4>
    358c:	01000713          	li	a4,16
    3590:	f15ff06f          	j	34a4 <__umoddi3+0x1a4>
    3594:	ead5e4e3          	bltu	a1,a3,343c <__umoddi3+0x13c>
    3598:	000107b7          	lui	a5,0x10
    359c:	04f6fe63          	bgeu	a3,a5,35f8 <__umoddi3+0x2f8>
    35a0:	1006b793          	sltiu	a5,a3,256
    35a4:	0017b793          	seqz	a5,a5
    35a8:	00379793          	slli	a5,a5,0x3
    35ac:	00021737          	lui	a4,0x21
    35b0:	00f6d833          	srl	a6,a3,a5
    35b4:	d2470713          	addi	a4,a4,-732 # 20d24 <__clz_tab>
    35b8:	01070733          	add	a4,a4,a6
    35bc:	00074a83          	lbu	s5,0(a4)
    35c0:	00fa8ab3          	add	s5,s5,a5
    35c4:	02000793          	li	a5,32
    35c8:	41578a33          	sub	s4,a5,s5
    35cc:	05579063          	bne	a5,s5,360c <__umoddi3+0x30c>
    35d0:	00b6e463          	bltu	a3,a1,35d8 <__umoddi3+0x2d8>
    35d4:	00c56c63          	bltu	a0,a2,35ec <__umoddi3+0x2ec>
    35d8:	40c50933          	sub	s2,a0,a2
    35dc:	40d586b3          	sub	a3,a1,a3
    35e0:	012534b3          	sltu	s1,a0,s2
    35e4:	00090413          	mv	s0,s2
    35e8:	409684b3          	sub	s1,a3,s1
    35ec:	00040513          	mv	a0,s0
    35f0:	00048593          	mv	a1,s1
    35f4:	e49ff06f          	j	343c <__umoddi3+0x13c>
    35f8:	01000737          	lui	a4,0x1000
    35fc:	01800793          	li	a5,24
    3600:	fae6f6e3          	bgeu	a3,a4,35ac <__umoddi3+0x2ac>
    3604:	01000793          	li	a5,16
    3608:	fa5ff06f          	j	35ac <__umoddi3+0x2ac>
    360c:	014696b3          	sll	a3,a3,s4
    3610:	01565b33          	srl	s6,a2,s5
    3614:	00db6b33          	or	s6,s6,a3
    3618:	0155dbb3          	srl	s7,a1,s5
    361c:	01555433          	srl	s0,a0,s5
    3620:	014595b3          	sll	a1,a1,s4
    3624:	010b5493          	srli	s1,s6,0x10
    3628:	00b46433          	or	s0,s0,a1
    362c:	014519b3          	sll	s3,a0,s4
    3630:	00048593          	mv	a1,s1
    3634:	000b8513          	mv	a0,s7
    3638:	010b1c13          	slli	s8,s6,0x10
    363c:	01461933          	sll	s2,a2,s4
    3640:	010c5c13          	srli	s8,s8,0x10
    3644:	ba4ff0ef          	jal	29e8 <__hidden___udivsi3>
    3648:	00050593          	mv	a1,a0
    364c:	00050d13          	mv	s10,a0
    3650:	000c0513          	mv	a0,s8
    3654:	b68ff0ef          	jal	29bc <__mulsi3>
    3658:	00050c93          	mv	s9,a0
    365c:	00048593          	mv	a1,s1
    3660:	000b8513          	mv	a0,s7
    3664:	bccff0ef          	jal	2a30 <__umodsi3>
    3668:	01051513          	slli	a0,a0,0x10
    366c:	01045793          	srli	a5,s0,0x10
    3670:	00a7e7b3          	or	a5,a5,a0
    3674:	000d0b93          	mv	s7,s10
    3678:	0197fe63          	bgeu	a5,s9,3694 <__umoddi3+0x394>
    367c:	00fb07b3          	add	a5,s6,a5
    3680:	fffd0b93          	addi	s7,s10,-1
    3684:	0167e863          	bltu	a5,s6,3694 <__umoddi3+0x394>
    3688:	0197f663          	bgeu	a5,s9,3694 <__umoddi3+0x394>
    368c:	ffed0b93          	addi	s7,s10,-2
    3690:	016787b3          	add	a5,a5,s6
    3694:	41978cb3          	sub	s9,a5,s9
    3698:	00048593          	mv	a1,s1
    369c:	000c8513          	mv	a0,s9
    36a0:	b48ff0ef          	jal	29e8 <__hidden___udivsi3>
    36a4:	00050593          	mv	a1,a0
    36a8:	00050d13          	mv	s10,a0
    36ac:	000c0513          	mv	a0,s8
    36b0:	b0cff0ef          	jal	29bc <__mulsi3>
    36b4:	00048593          	mv	a1,s1
    36b8:	00050c13          	mv	s8,a0
    36bc:	000c8513          	mv	a0,s9
    36c0:	b70ff0ef          	jal	2a30 <__umodsi3>
    36c4:	01041593          	slli	a1,s0,0x10
    36c8:	01051513          	slli	a0,a0,0x10
    36cc:	0105d593          	srli	a1,a1,0x10
    36d0:	00a5e5b3          	or	a1,a1,a0
    36d4:	000d0793          	mv	a5,s10
    36d8:	0185fe63          	bgeu	a1,s8,36f4 <__umoddi3+0x3f4>
    36dc:	00bb05b3          	add	a1,s6,a1
    36e0:	fffd0793          	addi	a5,s10,-1
    36e4:	0165e863          	bltu	a1,s6,36f4 <__umoddi3+0x3f4>
    36e8:	0185f663          	bgeu	a1,s8,36f4 <__umoddi3+0x3f4>
    36ec:	ffed0793          	addi	a5,s10,-2
    36f0:	016585b3          	add	a1,a1,s6
    36f4:	010b9b93          	slli	s7,s7,0x10
    36f8:	00fbebb3          	or	s7,s7,a5
    36fc:	01091893          	slli	a7,s2,0x10
    3700:	01079793          	slli	a5,a5,0x10
    3704:	0107d793          	srli	a5,a5,0x10
    3708:	0108d893          	srli	a7,a7,0x10
    370c:	418584b3          	sub	s1,a1,s8
    3710:	010bdb93          	srli	s7,s7,0x10
    3714:	01095713          	srli	a4,s2,0x10
    3718:	00078513          	mv	a0,a5
    371c:	00088593          	mv	a1,a7
    3720:	a9cff0ef          	jal	29bc <__mulsi3>
    3724:	00050813          	mv	a6,a0
    3728:	00070593          	mv	a1,a4
    372c:	00078513          	mv	a0,a5
    3730:	00070793          	mv	a5,a4
    3734:	a88ff0ef          	jal	29bc <__mulsi3>
    3738:	00050713          	mv	a4,a0
    373c:	00088593          	mv	a1,a7
    3740:	000b8513          	mv	a0,s7
    3744:	a78ff0ef          	jal	29bc <__mulsi3>
    3748:	00050893          	mv	a7,a0
    374c:	00078593          	mv	a1,a5
    3750:	000b8513          	mv	a0,s7
    3754:	a68ff0ef          	jal	29bc <__mulsi3>
    3758:	01085793          	srli	a5,a6,0x10
    375c:	01170733          	add	a4,a4,a7
    3760:	00e787b3          	add	a5,a5,a4
    3764:	00050693          	mv	a3,a0
    3768:	0117f663          	bgeu	a5,a7,3774 <__umoddi3+0x474>
    376c:	00010737          	lui	a4,0x10
    3770:	00e506b3          	add	a3,a0,a4
    3774:	0107d713          	srli	a4,a5,0x10
    3778:	01081813          	slli	a6,a6,0x10
    377c:	01079793          	slli	a5,a5,0x10
    3780:	01085813          	srli	a6,a6,0x10
    3784:	00d70733          	add	a4,a4,a3
    3788:	010787b3          	add	a5,a5,a6
    378c:	00e4e663          	bltu	s1,a4,3798 <__umoddi3+0x498>
    3790:	00e49e63          	bne	s1,a4,37ac <__umoddi3+0x4ac>
    3794:	00f9fc63          	bgeu	s3,a5,37ac <__umoddi3+0x4ac>
    3798:	41278933          	sub	s2,a5,s2
    379c:	0127b6b3          	sltu	a3,a5,s2
    37a0:	016686b3          	add	a3,a3,s6
    37a4:	00090793          	mv	a5,s2
    37a8:	40d70733          	sub	a4,a4,a3
    37ac:	40f987b3          	sub	a5,s3,a5
    37b0:	00f9b9b3          	sltu	s3,s3,a5
    37b4:	40e485b3          	sub	a1,s1,a4
    37b8:	413585b3          	sub	a1,a1,s3
    37bc:	01559ab3          	sll	s5,a1,s5
    37c0:	0147d7b3          	srl	a5,a5,s4
    37c4:	00fae533          	or	a0,s5,a5
    37c8:	0145d5b3          	srl	a1,a1,s4
    37cc:	c71ff06f          	j	343c <__umoddi3+0x13c>

000037d0 <__adddf3>:
    37d0:	00100837          	lui	a6,0x100
    37d4:	fff80813          	addi	a6,a6,-1 # fffff <_ctype_+0xde7b7>
    37d8:	fe010113          	addi	sp,sp,-32
    37dc:	00b878b3          	and	a7,a6,a1
    37e0:	0145d713          	srli	a4,a1,0x14
    37e4:	00d87833          	and	a6,a6,a3
    37e8:	01412423          	sw	s4,8(sp)
    37ec:	7ff77a13          	andi	s4,a4,2047
    37f0:	00389713          	slli	a4,a7,0x3
    37f4:	0146d893          	srli	a7,a3,0x14
    37f8:	01d55793          	srli	a5,a0,0x1d
    37fc:	00381813          	slli	a6,a6,0x3
    3800:	01312623          	sw	s3,12(sp)
    3804:	7ff8f893          	andi	a7,a7,2047
    3808:	01f5d993          	srli	s3,a1,0x1f
    380c:	00112e23          	sw	ra,28(sp)
    3810:	01d65593          	srli	a1,a2,0x1d
    3814:	00812c23          	sw	s0,24(sp)
    3818:	00912a23          	sw	s1,20(sp)
    381c:	01212823          	sw	s2,16(sp)
    3820:	01512223          	sw	s5,4(sp)
    3824:	01f6d693          	srli	a3,a3,0x1f
    3828:	0105e5b3          	or	a1,a1,a6
    382c:	00e7e7b3          	or	a5,a5,a4
    3830:	00351513          	slli	a0,a0,0x3
    3834:	00361613          	slli	a2,a2,0x3
    3838:	411a0833          	sub	a6,s4,a7
    383c:	7ff00313          	li	t1,2047
    3840:	32d99863          	bne	s3,a3,3b70 <__adddf3+0x3a0>
    3844:	17005e63          	blez	a6,39c0 <__adddf3+0x1f0>
    3848:	0a089863          	bnez	a7,38f8 <__adddf3+0x128>
    384c:	00c5e733          	or	a4,a1,a2
    3850:	02070663          	beqz	a4,387c <__adddf3+0xac>
    3854:	fffa0813          	addi	a6,s4,-1
    3858:	02081063          	bnez	a6,3878 <__adddf3+0xa8>
    385c:	00c50633          	add	a2,a0,a2
    3860:	00a63733          	sltu	a4,a2,a0
    3864:	00b785b3          	add	a1,a5,a1
    3868:	00060513          	mv	a0,a2
    386c:	00e587b3          	add	a5,a1,a4
    3870:	00100a13          	li	s4,1
    3874:	0d40006f          	j	3948 <__adddf3+0x178>
    3878:	086a1663          	bne	s4,t1,3904 <__adddf3+0x134>
    387c:	01d79693          	slli	a3,a5,0x1d
    3880:	00355513          	srli	a0,a0,0x3
    3884:	7ff00713          	li	a4,2047
    3888:	00a6e6b3          	or	a3,a3,a0
    388c:	0037d793          	srli	a5,a5,0x3
    3890:	00ea1e63          	bne	s4,a4,38ac <__adddf3+0xdc>
    3894:	00f6e6b3          	or	a3,a3,a5
    3898:	00000793          	li	a5,0
    389c:	00068863          	beqz	a3,38ac <__adddf3+0xdc>
    38a0:	000807b7          	lui	a5,0x80
    38a4:	00000693          	li	a3,0
    38a8:	00000993          	li	s3,0
    38ac:	014a1713          	slli	a4,s4,0x14
    38b0:	7ff00637          	lui	a2,0x7ff00
    38b4:	00c79793          	slli	a5,a5,0xc
    38b8:	00c77733          	and	a4,a4,a2
    38bc:	01c12083          	lw	ra,28(sp)
    38c0:	01812403          	lw	s0,24(sp)
    38c4:	00c7d793          	srli	a5,a5,0xc
    38c8:	00f767b3          	or	a5,a4,a5
    38cc:	01f99713          	slli	a4,s3,0x1f
    38d0:	00e7e633          	or	a2,a5,a4
    38d4:	01412483          	lw	s1,20(sp)
    38d8:	01012903          	lw	s2,16(sp)
    38dc:	00c12983          	lw	s3,12(sp)
    38e0:	00812a03          	lw	s4,8(sp)
    38e4:	00412a83          	lw	s5,4(sp)
    38e8:	00068513          	mv	a0,a3
    38ec:	00060593          	mv	a1,a2
    38f0:	02010113          	addi	sp,sp,32
    38f4:	00008067          	ret
    38f8:	f86a02e3          	beq	s4,t1,387c <__adddf3+0xac>
    38fc:	00800737          	lui	a4,0x800
    3900:	00e5e5b3          	or	a1,a1,a4
    3904:	03800713          	li	a4,56
    3908:	0b074663          	blt	a4,a6,39b4 <__adddf3+0x1e4>
    390c:	01f00713          	li	a4,31
    3910:	02000893          	li	a7,32
    3914:	07074863          	blt	a4,a6,3984 <__adddf3+0x1b4>
    3918:	410888b3          	sub	a7,a7,a6
    391c:	01159733          	sll	a4,a1,a7
    3920:	010656b3          	srl	a3,a2,a6
    3924:	011618b3          	sll	a7,a2,a7
    3928:	00d76733          	or	a4,a4,a3
    392c:	011038b3          	snez	a7,a7
    3930:	01176733          	or	a4,a4,a7
    3934:	0105d833          	srl	a6,a1,a6
    3938:	00a70533          	add	a0,a4,a0
    393c:	00f80833          	add	a6,a6,a5
    3940:	00e53733          	sltu	a4,a0,a4
    3944:	00e807b3          	add	a5,a6,a4
    3948:	00879713          	slli	a4,a5,0x8
    394c:	1c075e63          	bgez	a4,3b28 <__adddf3+0x358>
    3950:	001a0a13          	addi	s4,s4,1
    3954:	7ff00713          	li	a4,2047
    3958:	5cea0863          	beq	s4,a4,3f28 <__adddf3+0x758>
    395c:	ff800737          	lui	a4,0xff800
    3960:	fff70713          	addi	a4,a4,-1 # ff7fffff <_ctype_+0xff7de7b7>
    3964:	00e7f7b3          	and	a5,a5,a4
    3968:	00155713          	srli	a4,a0,0x1
    396c:	00157513          	andi	a0,a0,1
    3970:	00a76733          	or	a4,a4,a0
    3974:	01f79513          	slli	a0,a5,0x1f
    3978:	00e56533          	or	a0,a0,a4
    397c:	0017d793          	srli	a5,a5,0x1
    3980:	1a80006f          	j	3b28 <__adddf3+0x358>
    3984:	fe080713          	addi	a4,a6,-32
    3988:	00e5d733          	srl	a4,a1,a4
    398c:	00000693          	li	a3,0
    3990:	01180863          	beq	a6,a7,39a0 <__adddf3+0x1d0>
    3994:	04000693          	li	a3,64
    3998:	410686b3          	sub	a3,a3,a6
    399c:	00d596b3          	sll	a3,a1,a3
    39a0:	00c6e6b3          	or	a3,a3,a2
    39a4:	00d036b3          	snez	a3,a3
    39a8:	00d76733          	or	a4,a4,a3
    39ac:	00000813          	li	a6,0
    39b0:	f89ff06f          	j	3938 <__adddf3+0x168>
    39b4:	00c5e733          	or	a4,a1,a2
    39b8:	00e03733          	snez	a4,a4
    39bc:	ff1ff06f          	j	39ac <__adddf3+0x1dc>
    39c0:	0c080663          	beqz	a6,3a8c <__adddf3+0x2bc>
    39c4:	41488733          	sub	a4,a7,s4
    39c8:	020a1463          	bnez	s4,39f0 <__adddf3+0x220>
    39cc:	00a7e6b3          	or	a3,a5,a0
    39d0:	00068863          	beqz	a3,39e0 <__adddf3+0x210>
    39d4:	fff70693          	addi	a3,a4,-1
    39d8:	e80682e3          	beqz	a3,385c <__adddf3+0x8c>
    39dc:	02671263          	bne	a4,t1,3a00 <__adddf3+0x230>
    39e0:	00058793          	mv	a5,a1
    39e4:	00060513          	mv	a0,a2
    39e8:	00070a13          	mv	s4,a4
    39ec:	e91ff06f          	j	387c <__adddf3+0xac>
    39f0:	54688263          	beq	a7,t1,3f34 <__adddf3+0x764>
    39f4:	008006b7          	lui	a3,0x800
    39f8:	00d7e7b3          	or	a5,a5,a3
    39fc:	00070693          	mv	a3,a4
    3a00:	03800713          	li	a4,56
    3a04:	06d74e63          	blt	a4,a3,3a80 <__adddf3+0x2b0>
    3a08:	01f00713          	li	a4,31
    3a0c:	02000313          	li	t1,32
    3a10:	04d74063          	blt	a4,a3,3a50 <__adddf3+0x280>
    3a14:	40d30333          	sub	t1,t1,a3
    3a18:	00679733          	sll	a4,a5,t1
    3a1c:	00d55833          	srl	a6,a0,a3
    3a20:	00651333          	sll	t1,a0,t1
    3a24:	01076733          	or	a4,a4,a6
    3a28:	00603333          	snez	t1,t1
    3a2c:	00676733          	or	a4,a4,t1
    3a30:	00d7d6b3          	srl	a3,a5,a3
    3a34:	00c70633          	add	a2,a4,a2
    3a38:	00b686b3          	add	a3,a3,a1
    3a3c:	00e63733          	sltu	a4,a2,a4
    3a40:	00060513          	mv	a0,a2
    3a44:	00e687b3          	add	a5,a3,a4
    3a48:	00088a13          	mv	s4,a7
    3a4c:	efdff06f          	j	3948 <__adddf3+0x178>
    3a50:	fe068713          	addi	a4,a3,-32 # 7fffe0 <_ctype_+0x7de798>
    3a54:	00e7d733          	srl	a4,a5,a4
    3a58:	00000813          	li	a6,0
    3a5c:	00668863          	beq	a3,t1,3a6c <__adddf3+0x29c>
    3a60:	04000813          	li	a6,64
    3a64:	40d80833          	sub	a6,a6,a3
    3a68:	01079833          	sll	a6,a5,a6
    3a6c:	00a86833          	or	a6,a6,a0
    3a70:	01003833          	snez	a6,a6
    3a74:	01076733          	or	a4,a4,a6
    3a78:	00000693          	li	a3,0
    3a7c:	fb9ff06f          	j	3a34 <__adddf3+0x264>
    3a80:	00a7e733          	or	a4,a5,a0
    3a84:	00e03733          	snez	a4,a4
    3a88:	ff1ff06f          	j	3a78 <__adddf3+0x2a8>
    3a8c:	001a0713          	addi	a4,s4,1
    3a90:	7fe77693          	andi	a3,a4,2046
    3a94:	06069663          	bnez	a3,3b00 <__adddf3+0x330>
    3a98:	00a7e733          	or	a4,a5,a0
    3a9c:	040a1263          	bnez	s4,3ae0 <__adddf3+0x310>
    3aa0:	46070263          	beqz	a4,3f04 <__adddf3+0x734>
    3aa4:	00c5e733          	or	a4,a1,a2
    3aa8:	46070263          	beqz	a4,3f0c <__adddf3+0x73c>
    3aac:	00c50733          	add	a4,a0,a2
    3ab0:	00b785b3          	add	a1,a5,a1
    3ab4:	00a737b3          	sltu	a5,a4,a0
    3ab8:	00f587b3          	add	a5,a1,a5
    3abc:	00879693          	slli	a3,a5,0x8
    3ac0:	00070613          	mv	a2,a4
    3ac4:	2c06de63          	bgez	a3,3da0 <__adddf3+0x5d0>
    3ac8:	ff8006b7          	lui	a3,0xff800
    3acc:	fff68693          	addi	a3,a3,-1 # ff7fffff <_ctype_+0xff7de7b7>
    3ad0:	00d7f7b3          	and	a5,a5,a3
    3ad4:	00070513          	mv	a0,a4
    3ad8:	00100a13          	li	s4,1
    3adc:	da1ff06f          	j	387c <__adddf3+0xac>
    3ae0:	42070a63          	beqz	a4,3f14 <__adddf3+0x744>
    3ae4:	00c5e633          	or	a2,a1,a2
    3ae8:	00030a13          	mv	s4,t1
    3aec:	d80608e3          	beqz	a2,387c <__adddf3+0xac>
    3af0:	00000993          	li	s3,0
    3af4:	004007b7          	lui	a5,0x400
    3af8:	00000513          	li	a0,0
    3afc:	d81ff06f          	j	387c <__adddf3+0xac>
    3b00:	42670263          	beq	a4,t1,3f24 <__adddf3+0x754>
    3b04:	00c50633          	add	a2,a0,a2
    3b08:	00a63533          	sltu	a0,a2,a0
    3b0c:	00b785b3          	add	a1,a5,a1
    3b10:	00a585b3          	add	a1,a1,a0
    3b14:	01f59513          	slli	a0,a1,0x1f
    3b18:	00165613          	srli	a2,a2,0x1
    3b1c:	00c56533          	or	a0,a0,a2
    3b20:	0015d793          	srli	a5,a1,0x1
    3b24:	00070a13          	mv	s4,a4
    3b28:	00757713          	andi	a4,a0,7
    3b2c:	02070063          	beqz	a4,3b4c <__adddf3+0x37c>
    3b30:	00f57713          	andi	a4,a0,15
    3b34:	00400693          	li	a3,4
    3b38:	00d70a63          	beq	a4,a3,3b4c <__adddf3+0x37c>
    3b3c:	00d50733          	add	a4,a0,a3
    3b40:	00a736b3          	sltu	a3,a4,a0
    3b44:	00d787b3          	add	a5,a5,a3
    3b48:	00070513          	mv	a0,a4
    3b4c:	00879713          	slli	a4,a5,0x8
    3b50:	d20756e3          	bgez	a4,387c <__adddf3+0xac>
    3b54:	001a0a13          	addi	s4,s4,1
    3b58:	7ff00713          	li	a4,2047
    3b5c:	3cea0663          	beq	s4,a4,3f28 <__adddf3+0x758>
    3b60:	ff800737          	lui	a4,0xff800
    3b64:	fff70713          	addi	a4,a4,-1 # ff7fffff <_ctype_+0xff7de7b7>
    3b68:	00e7f7b3          	and	a5,a5,a4
    3b6c:	d11ff06f          	j	387c <__adddf3+0xac>
    3b70:	0f005463          	blez	a6,3c58 <__adddf3+0x488>
    3b74:	08089c63          	bnez	a7,3c0c <__adddf3+0x43c>
    3b78:	00c5e733          	or	a4,a1,a2
    3b7c:	d00700e3          	beqz	a4,387c <__adddf3+0xac>
    3b80:	fffa0813          	addi	a6,s4,-1
    3b84:	02081063          	bnez	a6,3ba4 <__adddf3+0x3d4>
    3b88:	40c50633          	sub	a2,a0,a2
    3b8c:	00c53733          	sltu	a4,a0,a2
    3b90:	40b785b3          	sub	a1,a5,a1
    3b94:	00060513          	mv	a0,a2
    3b98:	40e587b3          	sub	a5,a1,a4
    3b9c:	00100a13          	li	s4,1
    3ba0:	0500006f          	j	3bf0 <__adddf3+0x420>
    3ba4:	cc6a0ce3          	beq	s4,t1,387c <__adddf3+0xac>
    3ba8:	03800713          	li	a4,56
    3bac:	0b074063          	blt	a4,a6,3c4c <__adddf3+0x47c>
    3bb0:	01f00713          	li	a4,31
    3bb4:	02000893          	li	a7,32
    3bb8:	07074263          	blt	a4,a6,3c1c <__adddf3+0x44c>
    3bbc:	410888b3          	sub	a7,a7,a6
    3bc0:	01159733          	sll	a4,a1,a7
    3bc4:	010656b3          	srl	a3,a2,a6
    3bc8:	011618b3          	sll	a7,a2,a7
    3bcc:	00d76733          	or	a4,a4,a3
    3bd0:	011038b3          	snez	a7,a7
    3bd4:	01176733          	or	a4,a4,a7
    3bd8:	0105d833          	srl	a6,a1,a6
    3bdc:	40e50733          	sub	a4,a0,a4
    3be0:	00e536b3          	sltu	a3,a0,a4
    3be4:	41078833          	sub	a6,a5,a6
    3be8:	00070513          	mv	a0,a4
    3bec:	40d807b3          	sub	a5,a6,a3
    3bf0:	00879713          	slli	a4,a5,0x8
    3bf4:	f2075ae3          	bgez	a4,3b28 <__adddf3+0x358>
    3bf8:	00800937          	lui	s2,0x800
    3bfc:	fff90913          	addi	s2,s2,-1 # 7fffff <_ctype_+0x7de7b7>
    3c00:	0127f933          	and	s2,a5,s2
    3c04:	00050a93          	mv	s5,a0
    3c08:	2180006f          	j	3e20 <__adddf3+0x650>
    3c0c:	c66a08e3          	beq	s4,t1,387c <__adddf3+0xac>
    3c10:	00800737          	lui	a4,0x800
    3c14:	00e5e5b3          	or	a1,a1,a4
    3c18:	f91ff06f          	j	3ba8 <__adddf3+0x3d8>
    3c1c:	fe080713          	addi	a4,a6,-32
    3c20:	00e5d733          	srl	a4,a1,a4
    3c24:	00000693          	li	a3,0
    3c28:	01180863          	beq	a6,a7,3c38 <__adddf3+0x468>
    3c2c:	04000693          	li	a3,64
    3c30:	410686b3          	sub	a3,a3,a6
    3c34:	00d596b3          	sll	a3,a1,a3
    3c38:	00c6e6b3          	or	a3,a3,a2
    3c3c:	00d036b3          	snez	a3,a3
    3c40:	00d76733          	or	a4,a4,a3
    3c44:	00000813          	li	a6,0
    3c48:	f95ff06f          	j	3bdc <__adddf3+0x40c>
    3c4c:	00c5e733          	or	a4,a1,a2
    3c50:	00e03733          	snez	a4,a4
    3c54:	ff1ff06f          	j	3c44 <__adddf3+0x474>
    3c58:	0e080463          	beqz	a6,3d40 <__adddf3+0x570>
    3c5c:	41488833          	sub	a6,a7,s4
    3c60:	040a1263          	bnez	s4,3ca4 <__adddf3+0x4d4>
    3c64:	00a7e733          	or	a4,a5,a0
    3c68:	02070463          	beqz	a4,3c90 <__adddf3+0x4c0>
    3c6c:	fff80713          	addi	a4,a6,-1
    3c70:	00071e63          	bnez	a4,3c8c <__adddf3+0x4bc>
    3c74:	40a60533          	sub	a0,a2,a0
    3c78:	40f585b3          	sub	a1,a1,a5
    3c7c:	00a63633          	sltu	a2,a2,a0
    3c80:	40c587b3          	sub	a5,a1,a2
    3c84:	00068993          	mv	s3,a3
    3c88:	f15ff06f          	j	3b9c <__adddf3+0x3cc>
    3c8c:	02681463          	bne	a6,t1,3cb4 <__adddf3+0x4e4>
    3c90:	00068993          	mv	s3,a3
    3c94:	00058793          	mv	a5,a1
    3c98:	00060513          	mv	a0,a2
    3c9c:	00080a13          	mv	s4,a6
    3ca0:	bddff06f          	j	387c <__adddf3+0xac>
    3ca4:	28688663          	beq	a7,t1,3f30 <__adddf3+0x760>
    3ca8:	00800737          	lui	a4,0x800
    3cac:	00e7e7b3          	or	a5,a5,a4
    3cb0:	00080713          	mv	a4,a6
    3cb4:	03800813          	li	a6,56
    3cb8:	06e84e63          	blt	a6,a4,3d34 <__adddf3+0x564>
    3cbc:	01f00813          	li	a6,31
    3cc0:	02000e13          	li	t3,32
    3cc4:	04e84063          	blt	a6,a4,3d04 <__adddf3+0x534>
    3cc8:	40ee0e33          	sub	t3,t3,a4
    3ccc:	00e55333          	srl	t1,a0,a4
    3cd0:	01c79833          	sll	a6,a5,t3
    3cd4:	01c51e33          	sll	t3,a0,t3
    3cd8:	00686833          	or	a6,a6,t1
    3cdc:	01c03e33          	snez	t3,t3
    3ce0:	01c86533          	or	a0,a6,t3
    3ce4:	00e7d733          	srl	a4,a5,a4
    3ce8:	40a60533          	sub	a0,a2,a0
    3cec:	40e58733          	sub	a4,a1,a4
    3cf0:	00a63633          	sltu	a2,a2,a0
    3cf4:	40c707b3          	sub	a5,a4,a2
    3cf8:	00088a13          	mv	s4,a7
    3cfc:	00068993          	mv	s3,a3
    3d00:	ef1ff06f          	j	3bf0 <__adddf3+0x420>
    3d04:	fe070813          	addi	a6,a4,-32 # 7fffe0 <_ctype_+0x7de798>
    3d08:	0107d833          	srl	a6,a5,a6
    3d0c:	00000313          	li	t1,0
    3d10:	01c70863          	beq	a4,t3,3d20 <__adddf3+0x550>
    3d14:	04000313          	li	t1,64
    3d18:	40e30333          	sub	t1,t1,a4
    3d1c:	00679333          	sll	t1,a5,t1
    3d20:	00a36333          	or	t1,t1,a0
    3d24:	00603333          	snez	t1,t1
    3d28:	00686533          	or	a0,a6,t1
    3d2c:	00000713          	li	a4,0
    3d30:	fb9ff06f          	j	3ce8 <__adddf3+0x518>
    3d34:	00a7e533          	or	a0,a5,a0
    3d38:	00a03533          	snez	a0,a0
    3d3c:	ff1ff06f          	j	3d2c <__adddf3+0x55c>
    3d40:	001a0713          	addi	a4,s4,1
    3d44:	7fe77713          	andi	a4,a4,2046
    3d48:	0a071463          	bnez	a4,3df0 <__adddf3+0x620>
    3d4c:	00a7e833          	or	a6,a5,a0
    3d50:	00c5e733          	or	a4,a1,a2
    3d54:	060a1a63          	bnez	s4,3dc8 <__adddf3+0x5f8>
    3d58:	00081a63          	bnez	a6,3d6c <__adddf3+0x59c>
    3d5c:	00058793          	mv	a5,a1
    3d60:	02071e63          	bnez	a4,3d9c <__adddf3+0x5cc>
    3d64:	00000993          	li	s3,0
    3d68:	1c00006f          	j	3f28 <__adddf3+0x758>
    3d6c:	1a070063          	beqz	a4,3f0c <__adddf3+0x73c>
    3d70:	40c50833          	sub	a6,a0,a2
    3d74:	010538b3          	sltu	a7,a0,a6
    3d78:	40b78733          	sub	a4,a5,a1
    3d7c:	41170733          	sub	a4,a4,a7
    3d80:	00871893          	slli	a7,a4,0x8
    3d84:	0208d863          	bgez	a7,3db4 <__adddf3+0x5e4>
    3d88:	40a60533          	sub	a0,a2,a0
    3d8c:	00a63733          	sltu	a4,a2,a0
    3d90:	40f585b3          	sub	a1,a1,a5
    3d94:	00050613          	mv	a2,a0
    3d98:	40e587b3          	sub	a5,a1,a4
    3d9c:	00068993          	mv	s3,a3
    3da0:	00c7e533          	or	a0,a5,a2
    3da4:	0e050663          	beqz	a0,3e90 <__adddf3+0x6c0>
    3da8:	00060513          	mv	a0,a2
    3dac:	00000a13          	li	s4,0
    3db0:	d79ff06f          	j	3b28 <__adddf3+0x358>
    3db4:	00e86533          	or	a0,a6,a4
    3db8:	18050663          	beqz	a0,3f44 <__adddf3+0x774>
    3dbc:	00070793          	mv	a5,a4
    3dc0:	00080613          	mv	a2,a6
    3dc4:	fddff06f          	j	3da0 <__adddf3+0x5d0>
    3dc8:	00081e63          	bnez	a6,3de4 <__adddf3+0x614>
    3dcc:	00068993          	mv	s3,a3
    3dd0:	14071263          	bnez	a4,3f14 <__adddf3+0x744>
    3dd4:	00000993          	li	s3,0
    3dd8:	004007b7          	lui	a5,0x400
    3ddc:	00000513          	li	a0,0
    3de0:	13c0006f          	j	3f1c <__adddf3+0x74c>
    3de4:	00030a13          	mv	s4,t1
    3de8:	a8070ae3          	beqz	a4,387c <__adddf3+0xac>
    3dec:	d05ff06f          	j	3af0 <__adddf3+0x320>
    3df0:	40c50733          	sub	a4,a0,a2
    3df4:	00e53833          	sltu	a6,a0,a4
    3df8:	40b78933          	sub	s2,a5,a1
    3dfc:	41090933          	sub	s2,s2,a6
    3e00:	00891813          	slli	a6,s2,0x8
    3e04:	00070a93          	mv	s5,a4
    3e08:	06085e63          	bgez	a6,3e84 <__adddf3+0x6b4>
    3e0c:	40a60ab3          	sub	s5,a2,a0
    3e10:	40f58933          	sub	s2,a1,a5
    3e14:	01563633          	sltu	a2,a2,s5
    3e18:	40c90933          	sub	s2,s2,a2
    3e1c:	00068993          	mv	s3,a3
    3e20:	06090e63          	beqz	s2,3e9c <__adddf3+0x6cc>
    3e24:	00090513          	mv	a0,s2
    3e28:	c6dfe0ef          	jal	2a94 <__clzsi2>
    3e2c:	ff850613          	addi	a2,a0,-8
    3e30:	02000793          	li	a5,32
    3e34:	40c787b3          	sub	a5,a5,a2
    3e38:	00c91933          	sll	s2,s2,a2
    3e3c:	00fad7b3          	srl	a5,s5,a5
    3e40:	0127e7b3          	or	a5,a5,s2
    3e44:	00ca9933          	sll	s2,s5,a2
    3e48:	0b464263          	blt	a2,s4,3eec <__adddf3+0x71c>
    3e4c:	41460633          	sub	a2,a2,s4
    3e50:	00160593          	addi	a1,a2,1 # 7ff00001 <_ctype_+0x7fede7b9>
    3e54:	01f00713          	li	a4,31
    3e58:	02000693          	li	a3,32
    3e5c:	06b74063          	blt	a4,a1,3ebc <__adddf3+0x6ec>
    3e60:	40b686b3          	sub	a3,a3,a1
    3e64:	00d79633          	sll	a2,a5,a3
    3e68:	00b95733          	srl	a4,s2,a1
    3e6c:	00d916b3          	sll	a3,s2,a3
    3e70:	00e66633          	or	a2,a2,a4
    3e74:	00d036b3          	snez	a3,a3
    3e78:	00d66633          	or	a2,a2,a3
    3e7c:	00b7d7b3          	srl	a5,a5,a1
    3e80:	f21ff06f          	j	3da0 <__adddf3+0x5d0>
    3e84:	01276533          	or	a0,a4,s2
    3e88:	f8051ce3          	bnez	a0,3e20 <__adddf3+0x650>
    3e8c:	00000993          	li	s3,0
    3e90:	00000793          	li	a5,0
    3e94:	00000a13          	li	s4,0
    3e98:	9e5ff06f          	j	387c <__adddf3+0xac>
    3e9c:	000a8513          	mv	a0,s5
    3ea0:	bf5fe0ef          	jal	2a94 <__clzsi2>
    3ea4:	01850613          	addi	a2,a0,24
    3ea8:	01f00793          	li	a5,31
    3eac:	f8c7d2e3          	bge	a5,a2,3e30 <__adddf3+0x660>
    3eb0:	ff850793          	addi	a5,a0,-8
    3eb4:	00fa97b3          	sll	a5,s5,a5
    3eb8:	f91ff06f          	j	3e48 <__adddf3+0x678>
    3ebc:	fe160613          	addi	a2,a2,-31
    3ec0:	00c7d633          	srl	a2,a5,a2
    3ec4:	00000713          	li	a4,0
    3ec8:	00d58863          	beq	a1,a3,3ed8 <__adddf3+0x708>
    3ecc:	04000713          	li	a4,64
    3ed0:	40b70733          	sub	a4,a4,a1
    3ed4:	00e79733          	sll	a4,a5,a4
    3ed8:	00e96733          	or	a4,s2,a4
    3edc:	00e03733          	snez	a4,a4
    3ee0:	00e66633          	or	a2,a2,a4
    3ee4:	00000793          	li	a5,0
    3ee8:	eb9ff06f          	j	3da0 <__adddf3+0x5d0>
    3eec:	ff800737          	lui	a4,0xff800
    3ef0:	fff70713          	addi	a4,a4,-1 # ff7fffff <_ctype_+0xff7de7b7>
    3ef4:	40ca0a33          	sub	s4,s4,a2
    3ef8:	00e7f7b3          	and	a5,a5,a4
    3efc:	00090513          	mv	a0,s2
    3f00:	c29ff06f          	j	3b28 <__adddf3+0x358>
    3f04:	00058793          	mv	a5,a1
    3f08:	e99ff06f          	j	3da0 <__adddf3+0x5d0>
    3f0c:	00050613          	mv	a2,a0
    3f10:	e91ff06f          	j	3da0 <__adddf3+0x5d0>
    3f14:	00058793          	mv	a5,a1
    3f18:	00060513          	mv	a0,a2
    3f1c:	00030a13          	mv	s4,t1
    3f20:	95dff06f          	j	387c <__adddf3+0xac>
    3f24:	00070a13          	mv	s4,a4
    3f28:	00000793          	li	a5,0
    3f2c:	bcdff06f          	j	3af8 <__adddf3+0x328>
    3f30:	00068993          	mv	s3,a3
    3f34:	00058793          	mv	a5,a1
    3f38:	00060513          	mv	a0,a2
    3f3c:	00088a13          	mv	s4,a7
    3f40:	93dff06f          	j	387c <__adddf3+0xac>
    3f44:	00000993          	li	s3,0
    3f48:	00000793          	li	a5,0
    3f4c:	931ff06f          	j	387c <__adddf3+0xac>

00003f50 <__eqdf2>:
    3f50:	0145d713          	srli	a4,a1,0x14
    3f54:	001007b7          	lui	a5,0x100
    3f58:	fff78793          	addi	a5,a5,-1 # fffff <_ctype_+0xde7b7>
    3f5c:	0146d813          	srli	a6,a3,0x14
    3f60:	00050313          	mv	t1,a0
    3f64:	00050e93          	mv	t4,a0
    3f68:	7ff77713          	andi	a4,a4,2047
    3f6c:	7ff00513          	li	a0,2047
    3f70:	00b7f8b3          	and	a7,a5,a1
    3f74:	00060f13          	mv	t5,a2
    3f78:	00d7f7b3          	and	a5,a5,a3
    3f7c:	01f5d593          	srli	a1,a1,0x1f
    3f80:	7ff87813          	andi	a6,a6,2047
    3f84:	01f6d693          	srli	a3,a3,0x1f
    3f88:	00a71c63          	bne	a4,a0,3fa0 <__eqdf2+0x50>
    3f8c:	0068ee33          	or	t3,a7,t1
    3f90:	00100513          	li	a0,1
    3f94:	000e1463          	bnez	t3,3f9c <__eqdf2+0x4c>
    3f98:	00e80663          	beq	a6,a4,3fa4 <__eqdf2+0x54>
    3f9c:	00008067          	ret
    3fa0:	00a81863          	bne	a6,a0,3fb0 <__eqdf2+0x60>
    3fa4:	00c7e633          	or	a2,a5,a2
    3fa8:	00100513          	li	a0,1
    3fac:	fe0618e3          	bnez	a2,3f9c <__eqdf2+0x4c>
    3fb0:	00100513          	li	a0,1
    3fb4:	ff0714e3          	bne	a4,a6,3f9c <__eqdf2+0x4c>
    3fb8:	fef892e3          	bne	a7,a5,3f9c <__eqdf2+0x4c>
    3fbc:	ffee90e3          	bne	t4,t5,3f9c <__eqdf2+0x4c>
    3fc0:	00d58a63          	beq	a1,a3,3fd4 <__eqdf2+0x84>
    3fc4:	fc071ce3          	bnez	a4,3f9c <__eqdf2+0x4c>
    3fc8:	0068e8b3          	or	a7,a7,t1
    3fcc:	01103533          	snez	a0,a7
    3fd0:	00008067          	ret
    3fd4:	00000513          	li	a0,0
    3fd8:	00008067          	ret

00003fdc <__muldf3>:
    3fdc:	fd010113          	addi	sp,sp,-48
    3fe0:	01612823          	sw	s6,16(sp)
    3fe4:	0145db13          	srli	s6,a1,0x14
    3fe8:	02812423          	sw	s0,40(sp)
    3fec:	02912223          	sw	s1,36(sp)
    3ff0:	01412c23          	sw	s4,24(sp)
    3ff4:	01512a23          	sw	s5,20(sp)
    3ff8:	01812423          	sw	s8,8(sp)
    3ffc:	00c59493          	slli	s1,a1,0xc
    4000:	02112623          	sw	ra,44(sp)
    4004:	03212023          	sw	s2,32(sp)
    4008:	01312e23          	sw	s3,28(sp)
    400c:	01712623          	sw	s7,12(sp)
    4010:	01912223          	sw	s9,4(sp)
    4014:	7ffb7b13          	andi	s6,s6,2047
    4018:	00050413          	mv	s0,a0
    401c:	00060c13          	mv	s8,a2
    4020:	00068a13          	mv	s4,a3
    4024:	00c4d493          	srli	s1,s1,0xc
    4028:	01f5da93          	srli	s5,a1,0x1f
    402c:	0c0b0263          	beqz	s6,40f0 <__muldf3+0x114>
    4030:	7ff00793          	li	a5,2047
    4034:	12fb0463          	beq	s6,a5,415c <__muldf3+0x180>
    4038:	00349493          	slli	s1,s1,0x3
    403c:	01d55793          	srli	a5,a0,0x1d
    4040:	0097e7b3          	or	a5,a5,s1
    4044:	008004b7          	lui	s1,0x800
    4048:	0097e4b3          	or	s1,a5,s1
    404c:	00351b93          	slli	s7,a0,0x3
    4050:	c01b0b13          	addi	s6,s6,-1023
    4054:	00000c93          	li	s9,0
    4058:	014a5693          	srli	a3,s4,0x14
    405c:	00ca1413          	slli	s0,s4,0xc
    4060:	7ff6f693          	andi	a3,a3,2047
    4064:	00c45413          	srli	s0,s0,0xc
    4068:	01fa5a13          	srli	s4,s4,0x1f
    406c:	12068063          	beqz	a3,418c <__muldf3+0x1b0>
    4070:	7ff00793          	li	a5,2047
    4074:	18f68463          	beq	a3,a5,41fc <__muldf3+0x220>
    4078:	00341413          	slli	s0,s0,0x3
    407c:	01dc5793          	srli	a5,s8,0x1d
    4080:	0087e7b3          	or	a5,a5,s0
    4084:	00800437          	lui	s0,0x800
    4088:	0087e433          	or	s0,a5,s0
    408c:	c0168693          	addi	a3,a3,-1023
    4090:	003c1793          	slli	a5,s8,0x3
    4094:	00000613          	li	a2,0
    4098:	002c9713          	slli	a4,s9,0x2
    409c:	00db0b33          	add	s6,s6,a3
    40a0:	00c76733          	or	a4,a4,a2
    40a4:	00a00693          	li	a3,10
    40a8:	001b0893          	addi	a7,s6,1
    40ac:	1ae6c263          	blt	a3,a4,4250 <__muldf3+0x274>
    40b0:	00200593          	li	a1,2
    40b4:	014ac833          	xor	a6,s5,s4
    40b8:	00100693          	li	a3,1
    40bc:	16e5c863          	blt	a1,a4,422c <__muldf3+0x250>
    40c0:	fff70713          	addi	a4,a4,-1
    40c4:	1ae6e663          	bltu	a3,a4,4270 <__muldf3+0x294>
    40c8:	00060c93          	mv	s9,a2
    40cc:	00200713          	li	a4,2
    40d0:	5aec8063          	beq	s9,a4,4670 <__muldf3+0x694>
    40d4:	00300713          	li	a4,3
    40d8:	58ec8663          	beq	s9,a4,4664 <__muldf3+0x688>
    40dc:	00100713          	li	a4,1
    40e0:	40ec9463          	bne	s9,a4,44e8 <__muldf3+0x50c>
    40e4:	00000413          	li	s0,0
    40e8:	00000693          	li	a3,0
    40ec:	52c0006f          	j	4618 <__muldf3+0x63c>
    40f0:	00a4ebb3          	or	s7,s1,a0
    40f4:	060b8e63          	beqz	s7,4170 <__muldf3+0x194>
    40f8:	04048063          	beqz	s1,4138 <__muldf3+0x15c>
    40fc:	00048513          	mv	a0,s1
    4100:	995fe0ef          	jal	2a94 <__clzsi2>
    4104:	ff550713          	addi	a4,a0,-11
    4108:	01d00793          	li	a5,29
    410c:	ff850693          	addi	a3,a0,-8
    4110:	40e787b3          	sub	a5,a5,a4
    4114:	00d494b3          	sll	s1,s1,a3
    4118:	00f457b3          	srl	a5,s0,a5
    411c:	0097e7b3          	or	a5,a5,s1
    4120:	00d414b3          	sll	s1,s0,a3
    4124:	c0d00b13          	li	s6,-1011
    4128:	00048b93          	mv	s7,s1
    412c:	40ab0b33          	sub	s6,s6,a0
    4130:	00078493          	mv	s1,a5
    4134:	f21ff06f          	j	4054 <__muldf3+0x78>
    4138:	95dfe0ef          	jal	2a94 <__clzsi2>
    413c:	00050793          	mv	a5,a0
    4140:	01578713          	addi	a4,a5,21
    4144:	01c00693          	li	a3,28
    4148:	02050513          	addi	a0,a0,32
    414c:	fae6dee3          	bge	a3,a4,4108 <__muldf3+0x12c>
    4150:	ff878793          	addi	a5,a5,-8
    4154:	00f417b3          	sll	a5,s0,a5
    4158:	fcdff06f          	j	4124 <__muldf3+0x148>
    415c:	00a4ebb3          	or	s7,s1,a0
    4160:	020b9063          	bnez	s7,4180 <__muldf3+0x1a4>
    4164:	00000493          	li	s1,0
    4168:	00200c93          	li	s9,2
    416c:	eedff06f          	j	4058 <__muldf3+0x7c>
    4170:	00000493          	li	s1,0
    4174:	00000b13          	li	s6,0
    4178:	00100c93          	li	s9,1
    417c:	eddff06f          	j	4058 <__muldf3+0x7c>
    4180:	00050b93          	mv	s7,a0
    4184:	00300c93          	li	s9,3
    4188:	ed1ff06f          	j	4058 <__muldf3+0x7c>
    418c:	018467b3          	or	a5,s0,s8
    4190:	08078063          	beqz	a5,4210 <__muldf3+0x234>
    4194:	04040063          	beqz	s0,41d4 <__muldf3+0x1f8>
    4198:	00040513          	mv	a0,s0
    419c:	8f9fe0ef          	jal	2a94 <__clzsi2>
    41a0:	ff550693          	addi	a3,a0,-11
    41a4:	01d00713          	li	a4,29
    41a8:	ff850793          	addi	a5,a0,-8
    41ac:	40d70733          	sub	a4,a4,a3
    41b0:	00f41433          	sll	s0,s0,a5
    41b4:	00ec5733          	srl	a4,s8,a4
    41b8:	00876733          	or	a4,a4,s0
    41bc:	00fc1433          	sll	s0,s8,a5
    41c0:	c0d00693          	li	a3,-1011
    41c4:	00040793          	mv	a5,s0
    41c8:	40a686b3          	sub	a3,a3,a0
    41cc:	00070413          	mv	s0,a4
    41d0:	ec5ff06f          	j	4094 <__muldf3+0xb8>
    41d4:	000c0513          	mv	a0,s8
    41d8:	8bdfe0ef          	jal	2a94 <__clzsi2>
    41dc:	00050793          	mv	a5,a0
    41e0:	01578693          	addi	a3,a5,21
    41e4:	01c00713          	li	a4,28
    41e8:	02050513          	addi	a0,a0,32
    41ec:	fad75ce3          	bge	a4,a3,41a4 <__muldf3+0x1c8>
    41f0:	ff878793          	addi	a5,a5,-8
    41f4:	00fc1733          	sll	a4,s8,a5
    41f8:	fc9ff06f          	j	41c0 <__muldf3+0x1e4>
    41fc:	018467b3          	or	a5,s0,s8
    4200:	02079063          	bnez	a5,4220 <__muldf3+0x244>
    4204:	00000413          	li	s0,0
    4208:	00200613          	li	a2,2
    420c:	e8dff06f          	j	4098 <__muldf3+0xbc>
    4210:	00000413          	li	s0,0
    4214:	00000693          	li	a3,0
    4218:	00100613          	li	a2,1
    421c:	e7dff06f          	j	4098 <__muldf3+0xbc>
    4220:	000c0793          	mv	a5,s8
    4224:	00300613          	li	a2,3
    4228:	e71ff06f          	j	4098 <__muldf3+0xbc>
    422c:	00e69733          	sll	a4,a3,a4
    4230:	53077693          	andi	a3,a4,1328
    4234:	02069863          	bnez	a3,4264 <__muldf3+0x288>
    4238:	24077593          	andi	a1,a4,576
    423c:	40059c63          	bnez	a1,4654 <__muldf3+0x678>
    4240:	08877713          	andi	a4,a4,136
    4244:	02070663          	beqz	a4,4270 <__muldf3+0x294>
    4248:	000a0813          	mv	a6,s4
    424c:	e7dff06f          	j	40c8 <__muldf3+0xec>
    4250:	00f00693          	li	a3,15
    4254:	40d70863          	beq	a4,a3,4664 <__muldf3+0x688>
    4258:	00b00693          	li	a3,11
    425c:	000a8813          	mv	a6,s5
    4260:	fed704e3          	beq	a4,a3,4248 <__muldf3+0x26c>
    4264:	00048413          	mv	s0,s1
    4268:	000b8793          	mv	a5,s7
    426c:	e61ff06f          	j	40cc <__muldf3+0xf0>
    4270:	010bd713          	srli	a4,s7,0x10
    4274:	01079393          	slli	t2,a5,0x10
    4278:	010b9b93          	slli	s7,s7,0x10
    427c:	010bdb93          	srli	s7,s7,0x10
    4280:	0103d393          	srli	t2,t2,0x10
    4284:	0107de13          	srli	t3,a5,0x10
    4288:	000b8513          	mv	a0,s7
    428c:	00038593          	mv	a1,t2
    4290:	f2cfe0ef          	jal	29bc <__mulsi3>
    4294:	00050793          	mv	a5,a0
    4298:	000e0593          	mv	a1,t3
    429c:	000b8513          	mv	a0,s7
    42a0:	f1cfe0ef          	jal	29bc <__mulsi3>
    42a4:	00050e93          	mv	t4,a0
    42a8:	00038593          	mv	a1,t2
    42ac:	00070513          	mv	a0,a4
    42b0:	f0cfe0ef          	jal	29bc <__mulsi3>
    42b4:	00050f13          	mv	t5,a0
    42b8:	000e0593          	mv	a1,t3
    42bc:	00070513          	mv	a0,a4
    42c0:	efcfe0ef          	jal	29bc <__mulsi3>
    42c4:	0107d313          	srli	t1,a5,0x10
    42c8:	01ee8eb3          	add	t4,t4,t5
    42cc:	01d30333          	add	t1,t1,t4
    42d0:	00050293          	mv	t0,a0
    42d4:	01e37663          	bgeu	t1,t5,42e0 <__muldf3+0x304>
    42d8:	000106b7          	lui	a3,0x10
    42dc:	00d502b3          	add	t0,a0,a3
    42e0:	01045f13          	srli	t5,s0,0x10
    42e4:	01079793          	slli	a5,a5,0x10
    42e8:	01041413          	slli	s0,s0,0x10
    42ec:	01035a13          	srli	s4,t1,0x10
    42f0:	0107d793          	srli	a5,a5,0x10
    42f4:	01045413          	srli	s0,s0,0x10
    42f8:	01031313          	slli	t1,t1,0x10
    42fc:	00f30333          	add	t1,t1,a5
    4300:	000b8513          	mv	a0,s7
    4304:	00040593          	mv	a1,s0
    4308:	eb4fe0ef          	jal	29bc <__mulsi3>
    430c:	00050f93          	mv	t6,a0
    4310:	000f0593          	mv	a1,t5
    4314:	000b8513          	mv	a0,s7
    4318:	ea4fe0ef          	jal	29bc <__mulsi3>
    431c:	00050e93          	mv	t4,a0
    4320:	00040593          	mv	a1,s0
    4324:	00070513          	mv	a0,a4
    4328:	e94fe0ef          	jal	29bc <__mulsi3>
    432c:	00050a93          	mv	s5,a0
    4330:	000f0593          	mv	a1,t5
    4334:	00070513          	mv	a0,a4
    4338:	e84fe0ef          	jal	29bc <__mulsi3>
    433c:	010fd713          	srli	a4,t6,0x10
    4340:	015e8eb3          	add	t4,t4,s5
    4344:	01d70733          	add	a4,a4,t4
    4348:	00050793          	mv	a5,a0
    434c:	01577663          	bgeu	a4,s5,4358 <__muldf3+0x37c>
    4350:	000106b7          	lui	a3,0x10
    4354:	00d507b3          	add	a5,a0,a3
    4358:	01075e93          	srli	t4,a4,0x10
    435c:	010f9f93          	slli	t6,t6,0x10
    4360:	00fe8eb3          	add	t4,t4,a5
    4364:	010fdf93          	srli	t6,t6,0x10
    4368:	01071793          	slli	a5,a4,0x10
    436c:	01f787b3          	add	a5,a5,t6
    4370:	00fa0733          	add	a4,s4,a5
    4374:	0104da13          	srli	s4,s1,0x10
    4378:	01049493          	slli	s1,s1,0x10
    437c:	0104d493          	srli	s1,s1,0x10
    4380:	00048513          	mv	a0,s1
    4384:	00038593          	mv	a1,t2
    4388:	e34fe0ef          	jal	29bc <__mulsi3>
    438c:	00050f93          	mv	t6,a0
    4390:	000e0593          	mv	a1,t3
    4394:	00048513          	mv	a0,s1
    4398:	e24fe0ef          	jal	29bc <__mulsi3>
    439c:	00050a93          	mv	s5,a0
    43a0:	00038593          	mv	a1,t2
    43a4:	000a0513          	mv	a0,s4
    43a8:	e14fe0ef          	jal	29bc <__mulsi3>
    43ac:	00050393          	mv	t2,a0
    43b0:	000e0593          	mv	a1,t3
    43b4:	000a0513          	mv	a0,s4
    43b8:	e04fe0ef          	jal	29bc <__mulsi3>
    43bc:	010fd593          	srli	a1,t6,0x10
    43c0:	007a8ab3          	add	s5,s5,t2
    43c4:	015585b3          	add	a1,a1,s5
    43c8:	00050693          	mv	a3,a0
    43cc:	0075f663          	bgeu	a1,t2,43d8 <__muldf3+0x3fc>
    43d0:	00010637          	lui	a2,0x10
    43d4:	00c506b3          	add	a3,a0,a2
    43d8:	010f9f93          	slli	t6,t6,0x10
    43dc:	0105de13          	srli	t3,a1,0x10
    43e0:	010fdf93          	srli	t6,t6,0x10
    43e4:	01059593          	slli	a1,a1,0x10
    43e8:	01f58fb3          	add	t6,a1,t6
    43ec:	00de0e33          	add	t3,t3,a3
    43f0:	00048513          	mv	a0,s1
    43f4:	00040593          	mv	a1,s0
    43f8:	dc4fe0ef          	jal	29bc <__mulsi3>
    43fc:	00050393          	mv	t2,a0
    4400:	000f0593          	mv	a1,t5
    4404:	00048513          	mv	a0,s1
    4408:	db4fe0ef          	jal	29bc <__mulsi3>
    440c:	00050493          	mv	s1,a0
    4410:	00040593          	mv	a1,s0
    4414:	000a0513          	mv	a0,s4
    4418:	da4fe0ef          	jal	29bc <__mulsi3>
    441c:	00050413          	mv	s0,a0
    4420:	000f0593          	mv	a1,t5
    4424:	000a0513          	mv	a0,s4
    4428:	d94fe0ef          	jal	29bc <__mulsi3>
    442c:	0103d593          	srli	a1,t2,0x10
    4430:	008484b3          	add	s1,s1,s0
    4434:	009585b3          	add	a1,a1,s1
    4438:	00050f13          	mv	t5,a0
    443c:	0085f663          	bgeu	a1,s0,4448 <__muldf3+0x46c>
    4440:	000106b7          	lui	a3,0x10
    4444:	00d50f33          	add	t5,a0,a3
    4448:	01039393          	slli	t2,t2,0x10
    444c:	00e286b3          	add	a3,t0,a4
    4450:	0103d393          	srli	t2,t2,0x10
    4454:	01059713          	slli	a4,a1,0x10
    4458:	00770733          	add	a4,a4,t2
    445c:	01d70eb3          	add	t4,a4,t4
    4460:	00f6b7b3          	sltu	a5,a3,a5
    4464:	00fe87b3          	add	a5,t4,a5
    4468:	00eeb633          	sltu	a2,t4,a4
    446c:	01d7beb3          	sltu	t4,a5,t4
    4470:	0105d593          	srli	a1,a1,0x10
    4474:	01d66633          	or	a2,a2,t4
    4478:	00b60633          	add	a2,a2,a1
    447c:	01f685b3          	add	a1,a3,t6
    4480:	01c78e33          	add	t3,a5,t3
    4484:	00d5b6b3          	sltu	a3,a1,a3
    4488:	00de06b3          	add	a3,t3,a3
    448c:	00fe3733          	sltu	a4,t3,a5
    4490:	01c6be33          	sltu	t3,a3,t3
    4494:	00959793          	slli	a5,a1,0x9
    4498:	01c76733          	or	a4,a4,t3
    449c:	00c70733          	add	a4,a4,a2
    44a0:	0067e7b3          	or	a5,a5,t1
    44a4:	01e70733          	add	a4,a4,t5
    44a8:	00f037b3          	snez	a5,a5
    44ac:	0175d593          	srli	a1,a1,0x17
    44b0:	00971713          	slli	a4,a4,0x9
    44b4:	0176d413          	srli	s0,a3,0x17
    44b8:	00b7e7b3          	or	a5,a5,a1
    44bc:	00969693          	slli	a3,a3,0x9
    44c0:	00d7e7b3          	or	a5,a5,a3
    44c4:	00771693          	slli	a3,a4,0x7
    44c8:	00876433          	or	s0,a4,s0
    44cc:	0c06d663          	bgez	a3,4598 <__muldf3+0x5bc>
    44d0:	0017d713          	srli	a4,a5,0x1
    44d4:	0017f793          	andi	a5,a5,1
    44d8:	00f76733          	or	a4,a4,a5
    44dc:	01f41793          	slli	a5,s0,0x1f
    44e0:	00f767b3          	or	a5,a4,a5
    44e4:	00145413          	srli	s0,s0,0x1
    44e8:	3ff88713          	addi	a4,a7,1023
    44ec:	0ae05a63          	blez	a4,45a0 <__muldf3+0x5c4>
    44f0:	0077f693          	andi	a3,a5,7
    44f4:	02068063          	beqz	a3,4514 <__muldf3+0x538>
    44f8:	00f7f693          	andi	a3,a5,15
    44fc:	00400613          	li	a2,4
    4500:	00c68a63          	beq	a3,a2,4514 <__muldf3+0x538>
    4504:	00c786b3          	add	a3,a5,a2
    4508:	00f6b633          	sltu	a2,a3,a5
    450c:	00c40433          	add	s0,s0,a2
    4510:	00068793          	mv	a5,a3
    4514:	00741693          	slli	a3,s0,0x7
    4518:	0006da63          	bgez	a3,452c <__muldf3+0x550>
    451c:	ff000737          	lui	a4,0xff000
    4520:	fff70713          	addi	a4,a4,-1 # feffffff <_ctype_+0xfefde7b7>
    4524:	00e47433          	and	s0,s0,a4
    4528:	40088713          	addi	a4,a7,1024
    452c:	7fe00693          	li	a3,2046
    4530:	14e6c063          	blt	a3,a4,4670 <__muldf3+0x694>
    4534:	01d41693          	slli	a3,s0,0x1d
    4538:	0037d793          	srli	a5,a5,0x3
    453c:	00f6e6b3          	or	a3,a3,a5
    4540:	00345413          	srli	s0,s0,0x3
    4544:	00c41413          	slli	s0,s0,0xc
    4548:	00c45413          	srli	s0,s0,0xc
    454c:	01471713          	slli	a4,a4,0x14
    4550:	02c12083          	lw	ra,44(sp)
    4554:	00876733          	or	a4,a4,s0
    4558:	02812403          	lw	s0,40(sp)
    455c:	01f81813          	slli	a6,a6,0x1f
    4560:	010767b3          	or	a5,a4,a6
    4564:	02412483          	lw	s1,36(sp)
    4568:	02012903          	lw	s2,32(sp)
    456c:	01c12983          	lw	s3,28(sp)
    4570:	01812a03          	lw	s4,24(sp)
    4574:	01412a83          	lw	s5,20(sp)
    4578:	01012b03          	lw	s6,16(sp)
    457c:	00c12b83          	lw	s7,12(sp)
    4580:	00812c03          	lw	s8,8(sp)
    4584:	00412c83          	lw	s9,4(sp)
    4588:	00068513          	mv	a0,a3
    458c:	00078593          	mv	a1,a5
    4590:	03010113          	addi	sp,sp,48
    4594:	00008067          	ret
    4598:	000b0893          	mv	a7,s6
    459c:	f4dff06f          	j	44e8 <__muldf3+0x50c>
    45a0:	00100613          	li	a2,1
    45a4:	00070c63          	beqz	a4,45bc <__muldf3+0x5e0>
    45a8:	40e60633          	sub	a2,a2,a4
    45ac:	03800693          	li	a3,56
    45b0:	b2c6cae3          	blt	a3,a2,40e4 <__muldf3+0x108>
    45b4:	01f00693          	li	a3,31
    45b8:	06c6c463          	blt	a3,a2,4620 <__muldf3+0x644>
    45bc:	41e88893          	addi	a7,a7,1054
    45c0:	00c7d733          	srl	a4,a5,a2
    45c4:	011797b3          	sll	a5,a5,a7
    45c8:	00f037b3          	snez	a5,a5
    45cc:	011418b3          	sll	a7,s0,a7
    45d0:	0117e7b3          	or	a5,a5,a7
    45d4:	00f767b3          	or	a5,a4,a5
    45d8:	00c45433          	srl	s0,s0,a2
    45dc:	0077f713          	andi	a4,a5,7
    45e0:	02070063          	beqz	a4,4600 <__muldf3+0x624>
    45e4:	00f7f713          	andi	a4,a5,15
    45e8:	00400693          	li	a3,4
    45ec:	00d70a63          	beq	a4,a3,4600 <__muldf3+0x624>
    45f0:	00d78733          	add	a4,a5,a3
    45f4:	00f736b3          	sltu	a3,a4,a5
    45f8:	00d40433          	add	s0,s0,a3
    45fc:	00070793          	mv	a5,a4
    4600:	00841713          	slli	a4,s0,0x8
    4604:	06074e63          	bltz	a4,4680 <__muldf3+0x6a4>
    4608:	01d41693          	slli	a3,s0,0x1d
    460c:	0037d793          	srli	a5,a5,0x3
    4610:	00f6e6b3          	or	a3,a3,a5
    4614:	00345413          	srli	s0,s0,0x3
    4618:	00000713          	li	a4,0
    461c:	f29ff06f          	j	4544 <__muldf3+0x568>
    4620:	fe100693          	li	a3,-31
    4624:	40e68733          	sub	a4,a3,a4
    4628:	02000593          	li	a1,32
    462c:	00e45733          	srl	a4,s0,a4
    4630:	00000693          	li	a3,0
    4634:	00b60663          	beq	a2,a1,4640 <__muldf3+0x664>
    4638:	43e88893          	addi	a7,a7,1086
    463c:	011416b3          	sll	a3,s0,a7
    4640:	00f6e6b3          	or	a3,a3,a5
    4644:	00d036b3          	snez	a3,a3
    4648:	00d767b3          	or	a5,a4,a3
    464c:	00000413          	li	s0,0
    4650:	f8dff06f          	j	45dc <__muldf3+0x600>
    4654:	00080437          	lui	s0,0x80
    4658:	7ff00713          	li	a4,2047
    465c:	00000813          	li	a6,0
    4660:	ee5ff06f          	j	4544 <__muldf3+0x568>
    4664:	00080437          	lui	s0,0x80
    4668:	00000693          	li	a3,0
    466c:	fedff06f          	j	4658 <__muldf3+0x67c>
    4670:	00000413          	li	s0,0
    4674:	00000693          	li	a3,0
    4678:	7ff00713          	li	a4,2047
    467c:	ec9ff06f          	j	4544 <__muldf3+0x568>
    4680:	00000413          	li	s0,0
    4684:	00000693          	li	a3,0
    4688:	00100713          	li	a4,1
    468c:	eb9ff06f          	j	4544 <__muldf3+0x568>

00004690 <__subdf3>:
    4690:	00100837          	lui	a6,0x100
    4694:	fff80813          	addi	a6,a6,-1 # fffff <_ctype_+0xde7b7>
    4698:	fe010113          	addi	sp,sp,-32
    469c:	00b878b3          	and	a7,a6,a1
    46a0:	0145d713          	srli	a4,a1,0x14
    46a4:	01d55793          	srli	a5,a0,0x1d
    46a8:	00d87833          	and	a6,a6,a3
    46ac:	01412423          	sw	s4,8(sp)
    46b0:	7ff77a13          	andi	s4,a4,2047
    46b4:	00389713          	slli	a4,a7,0x3
    46b8:	0146d893          	srli	a7,a3,0x14
    46bc:	01312623          	sw	s3,12(sp)
    46c0:	00e7e7b3          	or	a5,a5,a4
    46c4:	01f5d993          	srli	s3,a1,0x1f
    46c8:	00381813          	slli	a6,a6,0x3
    46cc:	01d65593          	srli	a1,a2,0x1d
    46d0:	00112e23          	sw	ra,28(sp)
    46d4:	00812c23          	sw	s0,24(sp)
    46d8:	00912a23          	sw	s1,20(sp)
    46dc:	01212823          	sw	s2,16(sp)
    46e0:	01512223          	sw	s5,4(sp)
    46e4:	7ff8f893          	andi	a7,a7,2047
    46e8:	7ff00713          	li	a4,2047
    46ec:	00351513          	slli	a0,a0,0x3
    46f0:	01f6d693          	srli	a3,a3,0x1f
    46f4:	0105e5b3          	or	a1,a1,a6
    46f8:	00361613          	slli	a2,a2,0x3
    46fc:	00e89663          	bne	a7,a4,4708 <__subdf3+0x78>
    4700:	00c5e733          	or	a4,a1,a2
    4704:	00071463          	bnez	a4,470c <__subdf3+0x7c>
    4708:	0016c693          	xori	a3,a3,1
    470c:	411a0833          	sub	a6,s4,a7
    4710:	7ff00313          	li	t1,2047
    4714:	33369663          	bne	a3,s3,4a40 <__subdf3+0x3b0>
    4718:	17005e63          	blez	a6,4894 <__subdf3+0x204>
    471c:	0a089863          	bnez	a7,47cc <__subdf3+0x13c>
    4720:	00c5e733          	or	a4,a1,a2
    4724:	02070663          	beqz	a4,4750 <__subdf3+0xc0>
    4728:	fffa0813          	addi	a6,s4,-1
    472c:	02081063          	bnez	a6,474c <__subdf3+0xbc>
    4730:	00c50633          	add	a2,a0,a2
    4734:	00a63733          	sltu	a4,a2,a0
    4738:	00b786b3          	add	a3,a5,a1
    473c:	00060513          	mv	a0,a2
    4740:	00e687b3          	add	a5,a3,a4
    4744:	00100a13          	li	s4,1
    4748:	0d40006f          	j	481c <__subdf3+0x18c>
    474c:	086a1663          	bne	s4,t1,47d8 <__subdf3+0x148>
    4750:	01d79693          	slli	a3,a5,0x1d
    4754:	00355513          	srli	a0,a0,0x3
    4758:	7ff00713          	li	a4,2047
    475c:	00a6e6b3          	or	a3,a3,a0
    4760:	0037d793          	srli	a5,a5,0x3
    4764:	00ea1e63          	bne	s4,a4,4780 <__subdf3+0xf0>
    4768:	00f6e6b3          	or	a3,a3,a5
    476c:	00000793          	li	a5,0
    4770:	00068863          	beqz	a3,4780 <__subdf3+0xf0>
    4774:	000807b7          	lui	a5,0x80
    4778:	00000693          	li	a3,0
    477c:	00000993          	li	s3,0
    4780:	014a1713          	slli	a4,s4,0x14
    4784:	7ff00637          	lui	a2,0x7ff00
    4788:	00c79793          	slli	a5,a5,0xc
    478c:	00c77733          	and	a4,a4,a2
    4790:	01c12083          	lw	ra,28(sp)
    4794:	01812403          	lw	s0,24(sp)
    4798:	00c7d793          	srli	a5,a5,0xc
    479c:	00f767b3          	or	a5,a4,a5
    47a0:	01f99713          	slli	a4,s3,0x1f
    47a4:	00e7e633          	or	a2,a5,a4
    47a8:	01412483          	lw	s1,20(sp)
    47ac:	01012903          	lw	s2,16(sp)
    47b0:	00c12983          	lw	s3,12(sp)
    47b4:	00812a03          	lw	s4,8(sp)
    47b8:	00412a83          	lw	s5,4(sp)
    47bc:	00068513          	mv	a0,a3
    47c0:	00060593          	mv	a1,a2
    47c4:	02010113          	addi	sp,sp,32
    47c8:	00008067          	ret
    47cc:	f86a02e3          	beq	s4,t1,4750 <__subdf3+0xc0>
    47d0:	00800737          	lui	a4,0x800
    47d4:	00e5e5b3          	or	a1,a1,a4
    47d8:	03800713          	li	a4,56
    47dc:	0b074663          	blt	a4,a6,4888 <__subdf3+0x1f8>
    47e0:	01f00713          	li	a4,31
    47e4:	02000893          	li	a7,32
    47e8:	07074863          	blt	a4,a6,4858 <__subdf3+0x1c8>
    47ec:	410888b3          	sub	a7,a7,a6
    47f0:	01159733          	sll	a4,a1,a7
    47f4:	010656b3          	srl	a3,a2,a6
    47f8:	011618b3          	sll	a7,a2,a7
    47fc:	00d76733          	or	a4,a4,a3
    4800:	011038b3          	snez	a7,a7
    4804:	01176733          	or	a4,a4,a7
    4808:	0105d833          	srl	a6,a1,a6
    480c:	00a70533          	add	a0,a4,a0
    4810:	00f80833          	add	a6,a6,a5
    4814:	00e53733          	sltu	a4,a0,a4
    4818:	00e807b3          	add	a5,a6,a4
    481c:	00879713          	slli	a4,a5,0x8
    4820:	1c075c63          	bgez	a4,49f8 <__subdf3+0x368>
    4824:	001a0a13          	addi	s4,s4,1
    4828:	7ff00713          	li	a4,2047
    482c:	5cea0263          	beq	s4,a4,4df0 <__subdf3+0x760>
    4830:	ff800737          	lui	a4,0xff800
    4834:	fff70713          	addi	a4,a4,-1 # ff7fffff <_ctype_+0xff7de7b7>
    4838:	00e7f7b3          	and	a5,a5,a4
    483c:	00155713          	srli	a4,a0,0x1
    4840:	00157513          	andi	a0,a0,1
    4844:	00a76733          	or	a4,a4,a0
    4848:	01f79513          	slli	a0,a5,0x1f
    484c:	00e56533          	or	a0,a0,a4
    4850:	0017d793          	srli	a5,a5,0x1
    4854:	1a40006f          	j	49f8 <__subdf3+0x368>
    4858:	fe080713          	addi	a4,a6,-32
    485c:	00e5d733          	srl	a4,a1,a4
    4860:	00000693          	li	a3,0
    4864:	01180863          	beq	a6,a7,4874 <__subdf3+0x1e4>
    4868:	04000693          	li	a3,64
    486c:	410686b3          	sub	a3,a3,a6
    4870:	00d596b3          	sll	a3,a1,a3
    4874:	00c6e6b3          	or	a3,a3,a2
    4878:	00d036b3          	snez	a3,a3
    487c:	00d76733          	or	a4,a4,a3
    4880:	00000813          	li	a6,0
    4884:	f89ff06f          	j	480c <__subdf3+0x17c>
    4888:	00c5e733          	or	a4,a1,a2
    488c:	00e03733          	snez	a4,a4
    4890:	ff1ff06f          	j	4880 <__subdf3+0x1f0>
    4894:	0c080663          	beqz	a6,4960 <__subdf3+0x2d0>
    4898:	41488733          	sub	a4,a7,s4
    489c:	020a1463          	bnez	s4,48c4 <__subdf3+0x234>
    48a0:	00a7e6b3          	or	a3,a5,a0
    48a4:	00068863          	beqz	a3,48b4 <__subdf3+0x224>
    48a8:	fff70693          	addi	a3,a4,-1
    48ac:	e80682e3          	beqz	a3,4730 <__subdf3+0xa0>
    48b0:	02671263          	bne	a4,t1,48d4 <__subdf3+0x244>
    48b4:	00058793          	mv	a5,a1
    48b8:	00060513          	mv	a0,a2
    48bc:	00070a13          	mv	s4,a4
    48c0:	e91ff06f          	j	4750 <__subdf3+0xc0>
    48c4:	52688c63          	beq	a7,t1,4dfc <__subdf3+0x76c>
    48c8:	008006b7          	lui	a3,0x800
    48cc:	00d7e7b3          	or	a5,a5,a3
    48d0:	00070693          	mv	a3,a4
    48d4:	03800713          	li	a4,56
    48d8:	06d74e63          	blt	a4,a3,4954 <__subdf3+0x2c4>
    48dc:	01f00713          	li	a4,31
    48e0:	02000313          	li	t1,32
    48e4:	04d74063          	blt	a4,a3,4924 <__subdf3+0x294>
    48e8:	40d30333          	sub	t1,t1,a3
    48ec:	00679733          	sll	a4,a5,t1
    48f0:	00d55833          	srl	a6,a0,a3
    48f4:	00651333          	sll	t1,a0,t1
    48f8:	01076733          	or	a4,a4,a6
    48fc:	00603333          	snez	t1,t1
    4900:	00676733          	or	a4,a4,t1
    4904:	00d7d6b3          	srl	a3,a5,a3
    4908:	00c70633          	add	a2,a4,a2
    490c:	00b686b3          	add	a3,a3,a1
    4910:	00e63733          	sltu	a4,a2,a4
    4914:	00060513          	mv	a0,a2
    4918:	00e687b3          	add	a5,a3,a4
    491c:	00088a13          	mv	s4,a7
    4920:	efdff06f          	j	481c <__subdf3+0x18c>
    4924:	fe068713          	addi	a4,a3,-32 # 7fffe0 <_ctype_+0x7de798>
    4928:	00e7d733          	srl	a4,a5,a4
    492c:	00000813          	li	a6,0
    4930:	00668863          	beq	a3,t1,4940 <__subdf3+0x2b0>
    4934:	04000813          	li	a6,64
    4938:	40d80833          	sub	a6,a6,a3
    493c:	01079833          	sll	a6,a5,a6
    4940:	00a86833          	or	a6,a6,a0
    4944:	01003833          	snez	a6,a6
    4948:	01076733          	or	a4,a4,a6
    494c:	00000693          	li	a3,0
    4950:	fb9ff06f          	j	4908 <__subdf3+0x278>
    4954:	00a7e733          	or	a4,a5,a0
    4958:	00e03733          	snez	a4,a4
    495c:	ff1ff06f          	j	494c <__subdf3+0x2bc>
    4960:	001a0713          	addi	a4,s4,1
    4964:	7fe77693          	andi	a3,a4,2046
    4968:	06069463          	bnez	a3,49d0 <__subdf3+0x340>
    496c:	00a7e733          	or	a4,a5,a0
    4970:	040a1063          	bnez	s4,49b0 <__subdf3+0x320>
    4974:	2c070063          	beqz	a4,4c34 <__subdf3+0x5a4>
    4978:	00c5e733          	or	a4,a1,a2
    497c:	44070a63          	beqz	a4,4dd0 <__subdf3+0x740>
    4980:	00c50633          	add	a2,a0,a2
    4984:	00b786b3          	add	a3,a5,a1
    4988:	00a63533          	sltu	a0,a2,a0
    498c:	00a685b3          	add	a1,a3,a0
    4990:	00859793          	slli	a5,a1,0x8
    4994:	2a07d063          	bgez	a5,4c34 <__subdf3+0x5a4>
    4998:	ff8007b7          	lui	a5,0xff800
    499c:	fff78793          	addi	a5,a5,-1 # ff7fffff <_ctype_+0xff7de7b7>
    49a0:	00f5f7b3          	and	a5,a1,a5
    49a4:	00060513          	mv	a0,a2
    49a8:	00100a13          	li	s4,1
    49ac:	da5ff06f          	j	4750 <__subdf3+0xc0>
    49b0:	42070663          	beqz	a4,4ddc <__subdf3+0x74c>
    49b4:	00c5e633          	or	a2,a1,a2
    49b8:	00030a13          	mv	s4,t1
    49bc:	d8060ae3          	beqz	a2,4750 <__subdf3+0xc0>
    49c0:	00000993          	li	s3,0
    49c4:	004007b7          	lui	a5,0x400
    49c8:	00000513          	li	a0,0
    49cc:	d85ff06f          	j	4750 <__subdf3+0xc0>
    49d0:	40670e63          	beq	a4,t1,4dec <__subdf3+0x75c>
    49d4:	00c50633          	add	a2,a0,a2
    49d8:	00a63533          	sltu	a0,a2,a0
    49dc:	00b786b3          	add	a3,a5,a1
    49e0:	00a686b3          	add	a3,a3,a0
    49e4:	01f69513          	slli	a0,a3,0x1f
    49e8:	00165613          	srli	a2,a2,0x1
    49ec:	00c56533          	or	a0,a0,a2
    49f0:	0016d793          	srli	a5,a3,0x1
    49f4:	00070a13          	mv	s4,a4
    49f8:	00757713          	andi	a4,a0,7
    49fc:	02070063          	beqz	a4,4a1c <__subdf3+0x38c>
    4a00:	00f57713          	andi	a4,a0,15
    4a04:	00400693          	li	a3,4
    4a08:	00d70a63          	beq	a4,a3,4a1c <__subdf3+0x38c>
    4a0c:	00d50733          	add	a4,a0,a3
    4a10:	00a736b3          	sltu	a3,a4,a0
    4a14:	00d787b3          	add	a5,a5,a3
    4a18:	00070513          	mv	a0,a4
    4a1c:	00879713          	slli	a4,a5,0x8
    4a20:	d20758e3          	bgez	a4,4750 <__subdf3+0xc0>
    4a24:	001a0a13          	addi	s4,s4,1
    4a28:	7ff00713          	li	a4,2047
    4a2c:	3cea0263          	beq	s4,a4,4df0 <__subdf3+0x760>
    4a30:	ff800737          	lui	a4,0xff800
    4a34:	fff70713          	addi	a4,a4,-1 # ff7fffff <_ctype_+0xff7de7b7>
    4a38:	00e7f7b3          	and	a5,a5,a4
    4a3c:	d15ff06f          	j	4750 <__subdf3+0xc0>
    4a40:	0f005463          	blez	a6,4b28 <__subdf3+0x498>
    4a44:	08089c63          	bnez	a7,4adc <__subdf3+0x44c>
    4a48:	00c5e733          	or	a4,a1,a2
    4a4c:	d00702e3          	beqz	a4,4750 <__subdf3+0xc0>
    4a50:	fffa0813          	addi	a6,s4,-1
    4a54:	02081063          	bnez	a6,4a74 <__subdf3+0x3e4>
    4a58:	40c50633          	sub	a2,a0,a2
    4a5c:	00c53733          	sltu	a4,a0,a2
    4a60:	40b786b3          	sub	a3,a5,a1
    4a64:	00060513          	mv	a0,a2
    4a68:	40e687b3          	sub	a5,a3,a4
    4a6c:	00100a13          	li	s4,1
    4a70:	0500006f          	j	4ac0 <__subdf3+0x430>
    4a74:	cc6a0ee3          	beq	s4,t1,4750 <__subdf3+0xc0>
    4a78:	03800713          	li	a4,56
    4a7c:	0b074063          	blt	a4,a6,4b1c <__subdf3+0x48c>
    4a80:	01f00713          	li	a4,31
    4a84:	02000893          	li	a7,32
    4a88:	07074263          	blt	a4,a6,4aec <__subdf3+0x45c>
    4a8c:	410888b3          	sub	a7,a7,a6
    4a90:	01159733          	sll	a4,a1,a7
    4a94:	010656b3          	srl	a3,a2,a6
    4a98:	011618b3          	sll	a7,a2,a7
    4a9c:	00d76733          	or	a4,a4,a3
    4aa0:	011038b3          	snez	a7,a7
    4aa4:	01176733          	or	a4,a4,a7
    4aa8:	0105d833          	srl	a6,a1,a6
    4aac:	40e50733          	sub	a4,a0,a4
    4ab0:	00e536b3          	sltu	a3,a0,a4
    4ab4:	41078833          	sub	a6,a5,a6
    4ab8:	00070513          	mv	a0,a4
    4abc:	40d807b3          	sub	a5,a6,a3
    4ac0:	00879713          	slli	a4,a5,0x8
    4ac4:	f2075ae3          	bgez	a4,49f8 <__subdf3+0x368>
    4ac8:	00800937          	lui	s2,0x800
    4acc:	fff90913          	addi	s2,s2,-1 # 7fffff <_ctype_+0x7de7b7>
    4ad0:	0127f933          	and	s2,a5,s2
    4ad4:	00050a93          	mv	s5,a0
    4ad8:	2140006f          	j	4cec <__subdf3+0x65c>
    4adc:	c66a0ae3          	beq	s4,t1,4750 <__subdf3+0xc0>
    4ae0:	00800737          	lui	a4,0x800
    4ae4:	00e5e5b3          	or	a1,a1,a4
    4ae8:	f91ff06f          	j	4a78 <__subdf3+0x3e8>
    4aec:	fe080713          	addi	a4,a6,-32
    4af0:	00e5d733          	srl	a4,a1,a4
    4af4:	00000693          	li	a3,0
    4af8:	01180863          	beq	a6,a7,4b08 <__subdf3+0x478>
    4afc:	04000693          	li	a3,64
    4b00:	410686b3          	sub	a3,a3,a6
    4b04:	00d596b3          	sll	a3,a1,a3
    4b08:	00c6e6b3          	or	a3,a3,a2
    4b0c:	00d036b3          	snez	a3,a3
    4b10:	00d76733          	or	a4,a4,a3
    4b14:	00000813          	li	a6,0
    4b18:	f95ff06f          	j	4aac <__subdf3+0x41c>
    4b1c:	00c5e733          	or	a4,a1,a2
    4b20:	00e03733          	snez	a4,a4
    4b24:	ff1ff06f          	j	4b14 <__subdf3+0x484>
    4b28:	0e080463          	beqz	a6,4c10 <__subdf3+0x580>
    4b2c:	41488833          	sub	a6,a7,s4
    4b30:	040a1263          	bnez	s4,4b74 <__subdf3+0x4e4>
    4b34:	00a7e733          	or	a4,a5,a0
    4b38:	02070463          	beqz	a4,4b60 <__subdf3+0x4d0>
    4b3c:	fff80713          	addi	a4,a6,-1
    4b40:	00071e63          	bnez	a4,4b5c <__subdf3+0x4cc>
    4b44:	40a60533          	sub	a0,a2,a0
    4b48:	40f585b3          	sub	a1,a1,a5
    4b4c:	00a63633          	sltu	a2,a2,a0
    4b50:	40c587b3          	sub	a5,a1,a2
    4b54:	00068993          	mv	s3,a3
    4b58:	f15ff06f          	j	4a6c <__subdf3+0x3dc>
    4b5c:	02681463          	bne	a6,t1,4b84 <__subdf3+0x4f4>
    4b60:	00068993          	mv	s3,a3
    4b64:	00058793          	mv	a5,a1
    4b68:	00060513          	mv	a0,a2
    4b6c:	00080a13          	mv	s4,a6
    4b70:	be1ff06f          	j	4750 <__subdf3+0xc0>
    4b74:	28688263          	beq	a7,t1,4df8 <__subdf3+0x768>
    4b78:	00800737          	lui	a4,0x800
    4b7c:	00e7e7b3          	or	a5,a5,a4
    4b80:	00080713          	mv	a4,a6
    4b84:	03800813          	li	a6,56
    4b88:	06e84e63          	blt	a6,a4,4c04 <__subdf3+0x574>
    4b8c:	01f00813          	li	a6,31
    4b90:	02000e13          	li	t3,32
    4b94:	04e84063          	blt	a6,a4,4bd4 <__subdf3+0x544>
    4b98:	40ee0e33          	sub	t3,t3,a4
    4b9c:	00e55333          	srl	t1,a0,a4
    4ba0:	01c79833          	sll	a6,a5,t3
    4ba4:	01c51e33          	sll	t3,a0,t3
    4ba8:	00686833          	or	a6,a6,t1
    4bac:	01c03e33          	snez	t3,t3
    4bb0:	01c86533          	or	a0,a6,t3
    4bb4:	00e7d733          	srl	a4,a5,a4
    4bb8:	40a60533          	sub	a0,a2,a0
    4bbc:	40e58733          	sub	a4,a1,a4
    4bc0:	00a63633          	sltu	a2,a2,a0
    4bc4:	40c707b3          	sub	a5,a4,a2
    4bc8:	00088a13          	mv	s4,a7
    4bcc:	00068993          	mv	s3,a3
    4bd0:	ef1ff06f          	j	4ac0 <__subdf3+0x430>
    4bd4:	fe070813          	addi	a6,a4,-32 # 7fffe0 <_ctype_+0x7de798>
    4bd8:	0107d833          	srl	a6,a5,a6
    4bdc:	00000313          	li	t1,0
    4be0:	01c70863          	beq	a4,t3,4bf0 <__subdf3+0x560>
    4be4:	04000313          	li	t1,64
    4be8:	40e30333          	sub	t1,t1,a4
    4bec:	00679333          	sll	t1,a5,t1
    4bf0:	00a36333          	or	t1,t1,a0
    4bf4:	00603333          	snez	t1,t1
    4bf8:	00686533          	or	a0,a6,t1
    4bfc:	00000713          	li	a4,0
    4c00:	fb9ff06f          	j	4bb8 <__subdf3+0x528>
    4c04:	00a7e533          	or	a0,a5,a0
    4c08:	00a03533          	snez	a0,a0
    4c0c:	ff1ff06f          	j	4bfc <__subdf3+0x56c>
    4c10:	001a0713          	addi	a4,s4,1
    4c14:	7fe77713          	andi	a4,a4,2046
    4c18:	0a071263          	bnez	a4,4cbc <__subdf3+0x62c>
    4c1c:	00c5e733          	or	a4,a1,a2
    4c20:	00a7e833          	or	a6,a5,a0
    4c24:	060a1863          	bnez	s4,4c94 <__subdf3+0x604>
    4c28:	02081263          	bnez	a6,4c4c <__subdf3+0x5bc>
    4c2c:	1e070063          	beqz	a4,4e0c <__subdf3+0x77c>
    4c30:	00068993          	mv	s3,a3
    4c34:	00b66533          	or	a0,a2,a1
    4c38:	12050263          	beqz	a0,4d5c <__subdf3+0x6cc>
    4c3c:	00058793          	mv	a5,a1
    4c40:	00060513          	mv	a0,a2
    4c44:	00000a13          	li	s4,0
    4c48:	db1ff06f          	j	49f8 <__subdf3+0x368>
    4c4c:	18070263          	beqz	a4,4dd0 <__subdf3+0x740>
    4c50:	40c50833          	sub	a6,a0,a2
    4c54:	010538b3          	sltu	a7,a0,a6
    4c58:	40b78733          	sub	a4,a5,a1
    4c5c:	41170733          	sub	a4,a4,a7
    4c60:	00871893          	slli	a7,a4,0x8
    4c64:	0008de63          	bgez	a7,4c80 <__subdf3+0x5f0>
    4c68:	40a60533          	sub	a0,a2,a0
    4c6c:	00a63733          	sltu	a4,a2,a0
    4c70:	40f585b3          	sub	a1,a1,a5
    4c74:	00050613          	mv	a2,a0
    4c78:	40e585b3          	sub	a1,a1,a4
    4c7c:	fb5ff06f          	j	4c30 <__subdf3+0x5a0>
    4c80:	00e86533          	or	a0,a6,a4
    4c84:	18050863          	beqz	a0,4e14 <__subdf3+0x784>
    4c88:	00070593          	mv	a1,a4
    4c8c:	00080613          	mv	a2,a6
    4c90:	fa5ff06f          	j	4c34 <__subdf3+0x5a4>
    4c94:	00081e63          	bnez	a6,4cb0 <__subdf3+0x620>
    4c98:	00068993          	mv	s3,a3
    4c9c:	14071063          	bnez	a4,4ddc <__subdf3+0x74c>
    4ca0:	00000993          	li	s3,0
    4ca4:	004007b7          	lui	a5,0x400
    4ca8:	00000513          	li	a0,0
    4cac:	1380006f          	j	4de4 <__subdf3+0x754>
    4cb0:	00030a13          	mv	s4,t1
    4cb4:	a8070ee3          	beqz	a4,4750 <__subdf3+0xc0>
    4cb8:	d09ff06f          	j	49c0 <__subdf3+0x330>
    4cbc:	40c50733          	sub	a4,a0,a2
    4cc0:	00e53833          	sltu	a6,a0,a4
    4cc4:	40b78933          	sub	s2,a5,a1
    4cc8:	41090933          	sub	s2,s2,a6
    4ccc:	00891813          	slli	a6,s2,0x8
    4cd0:	00070a93          	mv	s5,a4
    4cd4:	06085e63          	bgez	a6,4d50 <__subdf3+0x6c0>
    4cd8:	40a60ab3          	sub	s5,a2,a0
    4cdc:	40f58933          	sub	s2,a1,a5
    4ce0:	01563633          	sltu	a2,a2,s5
    4ce4:	40c90933          	sub	s2,s2,a2
    4ce8:	00068993          	mv	s3,a3
    4cec:	06090e63          	beqz	s2,4d68 <__subdf3+0x6d8>
    4cf0:	00090513          	mv	a0,s2
    4cf4:	da1fd0ef          	jal	2a94 <__clzsi2>
    4cf8:	ff850613          	addi	a2,a0,-8
    4cfc:	02000693          	li	a3,32
    4d00:	40c686b3          	sub	a3,a3,a2
    4d04:	00c91933          	sll	s2,s2,a2
    4d08:	00dad6b3          	srl	a3,s5,a3
    4d0c:	0126e6b3          	or	a3,a3,s2
    4d10:	00ca9933          	sll	s2,s5,a2
    4d14:	0b464263          	blt	a2,s4,4db8 <__subdf3+0x728>
    4d18:	41460633          	sub	a2,a2,s4
    4d1c:	00160593          	addi	a1,a2,1 # 7ff00001 <_ctype_+0x7fede7b9>
    4d20:	01f00793          	li	a5,31
    4d24:	02000713          	li	a4,32
    4d28:	06b7c063          	blt	a5,a1,4d88 <__subdf3+0x6f8>
    4d2c:	40b70733          	sub	a4,a4,a1
    4d30:	00e69633          	sll	a2,a3,a4
    4d34:	00b957b3          	srl	a5,s2,a1
    4d38:	00e91733          	sll	a4,s2,a4
    4d3c:	00f66633          	or	a2,a2,a5
    4d40:	00e03733          	snez	a4,a4
    4d44:	00e66633          	or	a2,a2,a4
    4d48:	00b6d5b3          	srl	a1,a3,a1
    4d4c:	ee9ff06f          	j	4c34 <__subdf3+0x5a4>
    4d50:	01276533          	or	a0,a4,s2
    4d54:	f8051ce3          	bnez	a0,4cec <__subdf3+0x65c>
    4d58:	00000993          	li	s3,0
    4d5c:	00000793          	li	a5,0
    4d60:	00000a13          	li	s4,0
    4d64:	9edff06f          	j	4750 <__subdf3+0xc0>
    4d68:	000a8513          	mv	a0,s5
    4d6c:	d29fd0ef          	jal	2a94 <__clzsi2>
    4d70:	01850613          	addi	a2,a0,24
    4d74:	01f00793          	li	a5,31
    4d78:	f8c7d2e3          	bge	a5,a2,4cfc <__subdf3+0x66c>
    4d7c:	ff850693          	addi	a3,a0,-8
    4d80:	00da96b3          	sll	a3,s5,a3
    4d84:	f91ff06f          	j	4d14 <__subdf3+0x684>
    4d88:	fe160613          	addi	a2,a2,-31
    4d8c:	00c6d633          	srl	a2,a3,a2
    4d90:	00000793          	li	a5,0
    4d94:	00e58863          	beq	a1,a4,4da4 <__subdf3+0x714>
    4d98:	04000793          	li	a5,64
    4d9c:	40b787b3          	sub	a5,a5,a1
    4da0:	00f697b3          	sll	a5,a3,a5
    4da4:	00f967b3          	or	a5,s2,a5
    4da8:	00f037b3          	snez	a5,a5
    4dac:	00f66633          	or	a2,a2,a5
    4db0:	00000593          	li	a1,0
    4db4:	e81ff06f          	j	4c34 <__subdf3+0x5a4>
    4db8:	ff8007b7          	lui	a5,0xff800
    4dbc:	fff78793          	addi	a5,a5,-1 # ff7fffff <_ctype_+0xff7de7b7>
    4dc0:	40ca0a33          	sub	s4,s4,a2
    4dc4:	00f6f7b3          	and	a5,a3,a5
    4dc8:	00090513          	mv	a0,s2
    4dcc:	c2dff06f          	j	49f8 <__subdf3+0x368>
    4dd0:	00078593          	mv	a1,a5
    4dd4:	00050613          	mv	a2,a0
    4dd8:	e5dff06f          	j	4c34 <__subdf3+0x5a4>
    4ddc:	00058793          	mv	a5,a1
    4de0:	00060513          	mv	a0,a2
    4de4:	00030a13          	mv	s4,t1
    4de8:	969ff06f          	j	4750 <__subdf3+0xc0>
    4dec:	00070a13          	mv	s4,a4
    4df0:	00000793          	li	a5,0
    4df4:	bd5ff06f          	j	49c8 <__subdf3+0x338>
    4df8:	00068993          	mv	s3,a3
    4dfc:	00058793          	mv	a5,a1
    4e00:	00060513          	mv	a0,a2
    4e04:	00088a13          	mv	s4,a7
    4e08:	949ff06f          	j	4750 <__subdf3+0xc0>
    4e0c:	00000993          	li	s3,0
    4e10:	fe1ff06f          	j	4df0 <__subdf3+0x760>
    4e14:	00000993          	li	s3,0
    4e18:	00000793          	li	a5,0
    4e1c:	935ff06f          	j	4750 <__subdf3+0xc0>

00004e20 <__fixdfsi>:
    4e20:	0145d713          	srli	a4,a1,0x14
    4e24:	001006b7          	lui	a3,0x100
    4e28:	fff68793          	addi	a5,a3,-1 # fffff <_ctype_+0xde7b7>
    4e2c:	7ff77713          	andi	a4,a4,2047
    4e30:	3fe00613          	li	a2,1022
    4e34:	00b7f7b3          	and	a5,a5,a1
    4e38:	01f5d593          	srli	a1,a1,0x1f
    4e3c:	04e65e63          	bge	a2,a4,4e98 <__fixdfsi+0x78>
    4e40:	41d00613          	li	a2,1053
    4e44:	00e65a63          	bge	a2,a4,4e58 <__fixdfsi+0x38>
    4e48:	80000537          	lui	a0,0x80000
    4e4c:	fff50513          	addi	a0,a0,-1 # 7fffffff <_ctype_+0x7ffde7b7>
    4e50:	00a58533          	add	a0,a1,a0
    4e54:	00008067          	ret
    4e58:	00d7e7b3          	or	a5,a5,a3
    4e5c:	43300693          	li	a3,1075
    4e60:	40e686b3          	sub	a3,a3,a4
    4e64:	01f00613          	li	a2,31
    4e68:	02d64063          	blt	a2,a3,4e88 <__fixdfsi+0x68>
    4e6c:	bed70713          	addi	a4,a4,-1043
    4e70:	00e797b3          	sll	a5,a5,a4
    4e74:	00d55533          	srl	a0,a0,a3
    4e78:	00a7e533          	or	a0,a5,a0
    4e7c:	02058063          	beqz	a1,4e9c <__fixdfsi+0x7c>
    4e80:	40a00533          	neg	a0,a0
    4e84:	00008067          	ret
    4e88:	41300693          	li	a3,1043
    4e8c:	40e68733          	sub	a4,a3,a4
    4e90:	00e7d533          	srl	a0,a5,a4
    4e94:	fe9ff06f          	j	4e7c <__fixdfsi+0x5c>
    4e98:	00000513          	li	a0,0
    4e9c:	00008067          	ret

00004ea0 <__floatsidf>:
    4ea0:	fe010113          	addi	sp,sp,-32
    4ea4:	00112e23          	sw	ra,28(sp)
    4ea8:	00812c23          	sw	s0,24(sp)
    4eac:	00912a23          	sw	s1,20(sp)
    4eb0:	01212823          	sw	s2,16(sp)
    4eb4:	01312623          	sw	s3,12(sp)
    4eb8:	00050793          	mv	a5,a0
    4ebc:	08050663          	beqz	a0,4f48 <__floatsidf+0xa8>
    4ec0:	41f55713          	srai	a4,a0,0x1f
    4ec4:	00a74933          	xor	s2,a4,a0
    4ec8:	40e90933          	sub	s2,s2,a4
    4ecc:	01f55993          	srli	s3,a0,0x1f
    4ed0:	00090513          	mv	a0,s2
    4ed4:	bc1fd0ef          	jal	2a94 <__clzsi2>
    4ed8:	41e00793          	li	a5,1054
    4edc:	00a00713          	li	a4,10
    4ee0:	40a787b3          	sub	a5,a5,a0
    4ee4:	04a74a63          	blt	a4,a0,4f38 <__floatsidf+0x98>
    4ee8:	00b00713          	li	a4,11
    4eec:	40a70733          	sub	a4,a4,a0
    4ef0:	01550513          	addi	a0,a0,21
    4ef4:	00e95733          	srl	a4,s2,a4
    4ef8:	00a91933          	sll	s2,s2,a0
    4efc:	00c71713          	slli	a4,a4,0xc
    4f00:	01c12083          	lw	ra,28(sp)
    4f04:	01812403          	lw	s0,24(sp)
    4f08:	00c75713          	srli	a4,a4,0xc
    4f0c:	01479793          	slli	a5,a5,0x14
    4f10:	01f99993          	slli	s3,s3,0x1f
    4f14:	00e7e7b3          	or	a5,a5,a4
    4f18:	0137e733          	or	a4,a5,s3
    4f1c:	01412483          	lw	s1,20(sp)
    4f20:	00c12983          	lw	s3,12(sp)
    4f24:	00090513          	mv	a0,s2
    4f28:	00070593          	mv	a1,a4
    4f2c:	01012903          	lw	s2,16(sp)
    4f30:	02010113          	addi	sp,sp,32
    4f34:	00008067          	ret
    4f38:	ff550513          	addi	a0,a0,-11
    4f3c:	00a91733          	sll	a4,s2,a0
    4f40:	00000913          	li	s2,0
    4f44:	fb9ff06f          	j	4efc <__floatsidf+0x5c>
    4f48:	00000993          	li	s3,0
    4f4c:	00000713          	li	a4,0
    4f50:	ff1ff06f          	j	4f40 <__floatsidf+0xa0>

00004f54 <__eqtf2>:
    4f54:	00c52703          	lw	a4,12(a0)
    4f58:	00052f03          	lw	t5,0(a0)
    4f5c:	00452303          	lw	t1,4(a0)
    4f60:	00852e03          	lw	t3,8(a0)
    4f64:	00c5a503          	lw	a0,12(a1) # 1000c <__nrv_alloc_D2A+0x8>
    4f68:	000086b7          	lui	a3,0x8
    4f6c:	01075613          	srli	a2,a4,0x10
    4f70:	fff68693          	addi	a3,a3,-1 # 7fff <main+0x13b>
    4f74:	01071893          	slli	a7,a4,0x10
    4f78:	0005a783          	lw	a5,0(a1)
    4f7c:	0045af83          	lw	t6,4(a1)
    4f80:	0085a283          	lw	t0,8(a1)
    4f84:	01051e93          	slli	t4,a0,0x10
    4f88:	01f75593          	srli	a1,a4,0x1f
    4f8c:	00d67633          	and	a2,a2,a3
    4f90:	01055713          	srli	a4,a0,0x10
    4f94:	ff010113          	addi	sp,sp,-16
    4f98:	0108d893          	srli	a7,a7,0x10
    4f9c:	010ede93          	srli	t4,t4,0x10
    4fa0:	00d77733          	and	a4,a4,a3
    4fa4:	01f55813          	srli	a6,a0,0x1f
    4fa8:	02d61063          	bne	a2,a3,4fc8 <__eqtf2+0x74>
    4fac:	01e366b3          	or	a3,t1,t5
    4fb0:	01c6e6b3          	or	a3,a3,t3
    4fb4:	0116e6b3          	or	a3,a3,a7
    4fb8:	00100513          	li	a0,1
    4fbc:	04069a63          	bnez	a3,5010 <__eqtf2+0xbc>
    4fc0:	04c71863          	bne	a4,a2,5010 <__eqtf2+0xbc>
    4fc4:	0080006f          	j	4fcc <__eqtf2+0x78>
    4fc8:	00d71c63          	bne	a4,a3,4fe0 <__eqtf2+0x8c>
    4fcc:	01f7e6b3          	or	a3,a5,t6
    4fd0:	0056e6b3          	or	a3,a3,t0
    4fd4:	01d6e6b3          	or	a3,a3,t4
    4fd8:	00100513          	li	a0,1
    4fdc:	02069a63          	bnez	a3,5010 <__eqtf2+0xbc>
    4fe0:	00100513          	li	a0,1
    4fe4:	02c71663          	bne	a4,a2,5010 <__eqtf2+0xbc>
    4fe8:	03e79463          	bne	a5,t5,5010 <__eqtf2+0xbc>
    4fec:	03f31263          	bne	t1,t6,5010 <__eqtf2+0xbc>
    4ff0:	025e1063          	bne	t3,t0,5010 <__eqtf2+0xbc>
    4ff4:	01d89e63          	bne	a7,t4,5010 <__eqtf2+0xbc>
    4ff8:	03058063          	beq	a1,a6,5018 <__eqtf2+0xc4>
    4ffc:	00071a63          	bnez	a4,5010 <__eqtf2+0xbc>
    5000:	00f36533          	or	a0,t1,a5
    5004:	01c56533          	or	a0,a0,t3
    5008:	01156533          	or	a0,a0,a7
    500c:	00a03533          	snez	a0,a0
    5010:	01010113          	addi	sp,sp,16
    5014:	00008067          	ret
    5018:	00000513          	li	a0,0
    501c:	ff5ff06f          	j	5010 <__eqtf2+0xbc>

00005020 <__getf2>:
    5020:	00c52783          	lw	a5,12(a0)
    5024:	00c5a683          	lw	a3,12(a1)
    5028:	00008737          	lui	a4,0x8
    502c:	0107d613          	srli	a2,a5,0x10
    5030:	fff70713          	addi	a4,a4,-1 # 7fff <main+0x13b>
    5034:	01079813          	slli	a6,a5,0x10
    5038:	01069293          	slli	t0,a3,0x10
    503c:	00052883          	lw	a7,0(a0)
    5040:	00452303          	lw	t1,4(a0)
    5044:	00852e03          	lw	t3,8(a0)
    5048:	00e67633          	and	a2,a2,a4
    504c:	0106d513          	srli	a0,a3,0x10
    5050:	0005ae83          	lw	t4,0(a1)
    5054:	0045af03          	lw	t5,4(a1)
    5058:	0085af83          	lw	t6,8(a1)
    505c:	ff010113          	addi	sp,sp,-16
    5060:	01085813          	srli	a6,a6,0x10
    5064:	01f7d793          	srli	a5,a5,0x1f
    5068:	0102d293          	srli	t0,t0,0x10
    506c:	00e57533          	and	a0,a0,a4
    5070:	01f6d693          	srli	a3,a3,0x1f
    5074:	00e61a63          	bne	a2,a4,5088 <__getf2+0x68>
    5078:	0068e733          	or	a4,a7,t1
    507c:	01c76733          	or	a4,a4,t3
    5080:	01076733          	or	a4,a4,a6
    5084:	08071c63          	bnez	a4,511c <__getf2+0xfc>
    5088:	00008737          	lui	a4,0x8
    508c:	fff70713          	addi	a4,a4,-1 # 7fff <main+0x13b>
    5090:	00e51a63          	bne	a0,a4,50a4 <__getf2+0x84>
    5094:	01df6733          	or	a4,t5,t4
    5098:	01f76733          	or	a4,a4,t6
    509c:	00576733          	or	a4,a4,t0
    50a0:	06071e63          	bnez	a4,511c <__getf2+0xfc>
    50a4:	00000713          	li	a4,0
    50a8:	00061a63          	bnez	a2,50bc <__getf2+0x9c>
    50ac:	0068e733          	or	a4,a7,t1
    50b0:	01c76733          	or	a4,a4,t3
    50b4:	01076733          	or	a4,a4,a6
    50b8:	00173713          	seqz	a4,a4
    50bc:	06051463          	bnez	a0,5124 <__getf2+0x104>
    50c0:	01df65b3          	or	a1,t5,t4
    50c4:	01f5e5b3          	or	a1,a1,t6
    50c8:	0055e5b3          	or	a1,a1,t0
    50cc:	00070a63          	beqz	a4,50e0 <__getf2+0xc0>
    50d0:	06058463          	beqz	a1,5138 <__getf2+0x118>
    50d4:	00169513          	slli	a0,a3,0x1
    50d8:	fff50513          	addi	a0,a0,-1
    50dc:	05c0006f          	j	5138 <__getf2+0x118>
    50e0:	04059463          	bnez	a1,5128 <__getf2+0x108>
    50e4:	40f00533          	neg	a0,a5
    50e8:	04c0006f          	j	5134 <__getf2+0x114>
    50ec:	fea644e3          	blt	a2,a0,50d4 <__getf2+0xb4>
    50f0:	ff02eae3          	bltu	t0,a6,50e4 <__getf2+0xc4>
    50f4:	02581063          	bne	a6,t0,5114 <__getf2+0xf4>
    50f8:	ffcfe6e3          	bltu	t6,t3,50e4 <__getf2+0xc4>
    50fc:	01fe1c63          	bne	t3,t6,5114 <__getf2+0xf4>
    5100:	fe6f62e3          	bltu	t5,t1,50e4 <__getf2+0xc4>
    5104:	006f1863          	bne	t5,t1,5114 <__getf2+0xf4>
    5108:	fd1eeee3          	bltu	t4,a7,50e4 <__getf2+0xc4>
    510c:	00000513          	li	a0,0
    5110:	03d8f463          	bgeu	a7,t4,5138 <__getf2+0x118>
    5114:	00179513          	slli	a0,a5,0x1
    5118:	fc1ff06f          	j	50d8 <__getf2+0xb8>
    511c:	ffe00513          	li	a0,-2
    5120:	0180006f          	j	5138 <__getf2+0x118>
    5124:	fa0718e3          	bnez	a4,50d4 <__getf2+0xb4>
    5128:	faf69ee3          	bne	a3,a5,50e4 <__getf2+0xc4>
    512c:	fcc550e3          	bge	a0,a2,50ec <__getf2+0xcc>
    5130:	40d00533          	neg	a0,a3
    5134:	00156513          	ori	a0,a0,1
    5138:	01010113          	addi	sp,sp,16
    513c:	00008067          	ret

00005140 <__letf2>:
    5140:	00c52783          	lw	a5,12(a0)
    5144:	00c5a683          	lw	a3,12(a1)
    5148:	00008737          	lui	a4,0x8
    514c:	0107d613          	srli	a2,a5,0x10
    5150:	fff70713          	addi	a4,a4,-1 # 7fff <main+0x13b>
    5154:	01079813          	slli	a6,a5,0x10
    5158:	01069293          	slli	t0,a3,0x10
    515c:	00052883          	lw	a7,0(a0)
    5160:	00452303          	lw	t1,4(a0)
    5164:	00852e03          	lw	t3,8(a0)
    5168:	00e67633          	and	a2,a2,a4
    516c:	0106d513          	srli	a0,a3,0x10
    5170:	0005ae83          	lw	t4,0(a1)
    5174:	0045af03          	lw	t5,4(a1)
    5178:	0085af83          	lw	t6,8(a1)
    517c:	ff010113          	addi	sp,sp,-16
    5180:	01085813          	srli	a6,a6,0x10
    5184:	01f7d793          	srli	a5,a5,0x1f
    5188:	0102d293          	srli	t0,t0,0x10
    518c:	00e57533          	and	a0,a0,a4
    5190:	01f6d693          	srli	a3,a3,0x1f
    5194:	00e61a63          	bne	a2,a4,51a8 <__letf2+0x68>
    5198:	0068e733          	or	a4,a7,t1
    519c:	01c76733          	or	a4,a4,t3
    51a0:	01076733          	or	a4,a4,a6
    51a4:	08071c63          	bnez	a4,523c <__letf2+0xfc>
    51a8:	00008737          	lui	a4,0x8
    51ac:	fff70713          	addi	a4,a4,-1 # 7fff <main+0x13b>
    51b0:	00e51a63          	bne	a0,a4,51c4 <__letf2+0x84>
    51b4:	01df6733          	or	a4,t5,t4
    51b8:	01f76733          	or	a4,a4,t6
    51bc:	00576733          	or	a4,a4,t0
    51c0:	06071e63          	bnez	a4,523c <__letf2+0xfc>
    51c4:	00000713          	li	a4,0
    51c8:	00061a63          	bnez	a2,51dc <__letf2+0x9c>
    51cc:	0068e733          	or	a4,a7,t1
    51d0:	01c76733          	or	a4,a4,t3
    51d4:	01076733          	or	a4,a4,a6
    51d8:	00173713          	seqz	a4,a4
    51dc:	06051463          	bnez	a0,5244 <__letf2+0x104>
    51e0:	01df65b3          	or	a1,t5,t4
    51e4:	01f5e5b3          	or	a1,a1,t6
    51e8:	0055e5b3          	or	a1,a1,t0
    51ec:	00070a63          	beqz	a4,5200 <__letf2+0xc0>
    51f0:	06058463          	beqz	a1,5258 <__letf2+0x118>
    51f4:	00169513          	slli	a0,a3,0x1
    51f8:	fff50513          	addi	a0,a0,-1
    51fc:	05c0006f          	j	5258 <__letf2+0x118>
    5200:	04059463          	bnez	a1,5248 <__letf2+0x108>
    5204:	40f00533          	neg	a0,a5
    5208:	04c0006f          	j	5254 <__letf2+0x114>
    520c:	fea644e3          	blt	a2,a0,51f4 <__letf2+0xb4>
    5210:	ff02eae3          	bltu	t0,a6,5204 <__letf2+0xc4>
    5214:	02581063          	bne	a6,t0,5234 <__letf2+0xf4>
    5218:	ffcfe6e3          	bltu	t6,t3,5204 <__letf2+0xc4>
    521c:	01fe1c63          	bne	t3,t6,5234 <__letf2+0xf4>
    5220:	fe6f62e3          	bltu	t5,t1,5204 <__letf2+0xc4>
    5224:	006f1863          	bne	t5,t1,5234 <__letf2+0xf4>
    5228:	fd1eeee3          	bltu	t4,a7,5204 <__letf2+0xc4>
    522c:	00000513          	li	a0,0
    5230:	03d8f463          	bgeu	a7,t4,5258 <__letf2+0x118>
    5234:	00179513          	slli	a0,a5,0x1
    5238:	fc1ff06f          	j	51f8 <__letf2+0xb8>
    523c:	00200513          	li	a0,2
    5240:	0180006f          	j	5258 <__letf2+0x118>
    5244:	fa0718e3          	bnez	a4,51f4 <__letf2+0xb4>
    5248:	faf69ee3          	bne	a3,a5,5204 <__letf2+0xc4>
    524c:	fcc550e3          	bge	a0,a2,520c <__letf2+0xcc>
    5250:	40d00533          	neg	a0,a3
    5254:	00156513          	ori	a0,a0,1
    5258:	01010113          	addi	sp,sp,16
    525c:	00008067          	ret

00005260 <__multf3>:
    5260:	00c5a883          	lw	a7,12(a1)
    5264:	f7010113          	addi	sp,sp,-144
    5268:	0045a783          	lw	a5,4(a1)
    526c:	0085a683          	lw	a3,8(a1)
    5270:	08812423          	sw	s0,136(sp)
    5274:	00050413          	mv	s0,a0
    5278:	0005a503          	lw	a0,0(a1)
    527c:	09212023          	sw	s2,128(sp)
    5280:	07512a23          	sw	s5,116(sp)
    5284:	00c62903          	lw	s2,12(a2)
    5288:	00462a83          	lw	s5,4(a2)
    528c:	07612823          	sw	s6,112(sp)
    5290:	07712623          	sw	s7,108(sp)
    5294:	00862b03          	lw	s6,8(a2)
    5298:	00062b83          	lw	s7,0(a2)
    529c:	01089713          	slli	a4,a7,0x10
    52a0:	00008637          	lui	a2,0x8
    52a4:	08912223          	sw	s1,132(sp)
    52a8:	01075713          	srli	a4,a4,0x10
    52ac:	0108d493          	srli	s1,a7,0x10
    52b0:	fff60613          	addi	a2,a2,-1 # 7fff <main+0x13b>
    52b4:	07412c23          	sw	s4,120(sp)
    52b8:	08112623          	sw	ra,140(sp)
    52bc:	07312e23          	sw	s3,124(sp)
    52c0:	07812423          	sw	s8,104(sp)
    52c4:	07912223          	sw	s9,100(sp)
    52c8:	07a12023          	sw	s10,96(sp)
    52cc:	05b12e23          	sw	s11,92(sp)
    52d0:	02a12823          	sw	a0,48(sp)
    52d4:	02f12a23          	sw	a5,52(sp)
    52d8:	02d12c23          	sw	a3,56(sp)
    52dc:	03112e23          	sw	a7,60(sp)
    52e0:	00a12023          	sw	a0,0(sp)
    52e4:	00f12223          	sw	a5,4(sp)
    52e8:	00d12423          	sw	a3,8(sp)
    52ec:	00e12623          	sw	a4,12(sp)
    52f0:	00c4f4b3          	and	s1,s1,a2
    52f4:	01f8da13          	srli	s4,a7,0x1f
    52f8:	5c0484e3          	beqz	s1,60c0 <__multf3+0xe60>
    52fc:	6ec480e3          	beq	s1,a2,61dc <__multf3+0xf7c>
    5300:	000107b7          	lui	a5,0x10
    5304:	00f76733          	or	a4,a4,a5
    5308:	00e12623          	sw	a4,12(sp)
    530c:	00010613          	mv	a2,sp
    5310:	00c10793          	addi	a5,sp,12
    5314:	0007a703          	lw	a4,0(a5) # 10000 <__rv_alloc_D2A+0x68>
    5318:	ffc7a683          	lw	a3,-4(a5)
    531c:	ffc78793          	addi	a5,a5,-4
    5320:	00371713          	slli	a4,a4,0x3
    5324:	01d6d693          	srli	a3,a3,0x1d
    5328:	00d76733          	or	a4,a4,a3
    532c:	00e7a223          	sw	a4,4(a5)
    5330:	fef612e3          	bne	a2,a5,5314 <__multf3+0xb4>
    5334:	ffffc7b7          	lui	a5,0xffffc
    5338:	00351513          	slli	a0,a0,0x3
    533c:	00178793          	addi	a5,a5,1 # ffffc001 <_ctype_+0xfffda7b9>
    5340:	00a12023          	sw	a0,0(sp)
    5344:	00f484b3          	add	s1,s1,a5
    5348:	00000993          	li	s3,0
    534c:	01091513          	slli	a0,s2,0x10
    5350:	000087b7          	lui	a5,0x8
    5354:	01095813          	srli	a6,s2,0x10
    5358:	01055513          	srli	a0,a0,0x10
    535c:	fff78793          	addi	a5,a5,-1 # 7fff <main+0x13b>
    5360:	03212e23          	sw	s2,60(sp)
    5364:	03712823          	sw	s7,48(sp)
    5368:	03512a23          	sw	s5,52(sp)
    536c:	03612c23          	sw	s6,56(sp)
    5370:	01712823          	sw	s7,16(sp)
    5374:	01512a23          	sw	s5,20(sp)
    5378:	01612c23          	sw	s6,24(sp)
    537c:	00a12e23          	sw	a0,28(sp)
    5380:	00f87833          	and	a6,a6,a5
    5384:	01f95913          	srli	s2,s2,0x1f
    5388:	66080ee3          	beqz	a6,6204 <__multf3+0xfa4>
    538c:	00f81463          	bne	a6,a5,5394 <__multf3+0x134>
    5390:	7910006f          	j	6320 <__multf3+0x10c0>
    5394:	000107b7          	lui	a5,0x10
    5398:	00f56533          	or	a0,a0,a5
    539c:	00a12e23          	sw	a0,28(sp)
    53a0:	01010613          	addi	a2,sp,16
    53a4:	01c10793          	addi	a5,sp,28
    53a8:	0007a703          	lw	a4,0(a5) # 10000 <__rv_alloc_D2A+0x68>
    53ac:	ffc7a683          	lw	a3,-4(a5)
    53b0:	ffc78793          	addi	a5,a5,-4
    53b4:	00371713          	slli	a4,a4,0x3
    53b8:	01d6d693          	srli	a3,a3,0x1d
    53bc:	00d76733          	or	a4,a4,a3
    53c0:	00e7a223          	sw	a4,4(a5)
    53c4:	fef612e3          	bne	a2,a5,53a8 <__multf3+0x148>
    53c8:	ffffc7b7          	lui	a5,0xffffc
    53cc:	003b9b93          	slli	s7,s7,0x3
    53d0:	00178793          	addi	a5,a5,1 # ffffc001 <_ctype_+0xfffda7b9>
    53d4:	01712823          	sw	s7,16(sp)
    53d8:	00f80833          	add	a6,a6,a5
    53dc:	00000713          	li	a4,0
    53e0:	00299793          	slli	a5,s3,0x2
    53e4:	00980833          	add	a6,a6,s1
    53e8:	00e7e7b3          	or	a5,a5,a4
    53ec:	00a00693          	li	a3,10
    53f0:	00180d13          	addi	s10,a6,1
    53f4:	00f6d463          	bge	a3,a5,53fc <__multf3+0x19c>
    53f8:	7950006f          	j	638c <__multf3+0x112c>
    53fc:	00200613          	li	a2,2
    5400:	012a48b3          	xor	a7,s4,s2
    5404:	00100693          	li	a3,1
    5408:	00f65463          	bge	a2,a5,5410 <__multf3+0x1b0>
    540c:	7410006f          	j	634c <__multf3+0x10ec>
    5410:	fff78793          	addi	a5,a5,-1
    5414:	00f6e463          	bltu	a3,a5,541c <__multf3+0x1bc>
    5418:	78d0006f          	j	63a4 <__multf3+0x1144>
    541c:	00012f03          	lw	t5,0(sp)
    5420:	01012e83          	lw	t4,16(sp)
    5424:	010f1313          	slli	t1,t5,0x10
    5428:	010e9e13          	slli	t3,t4,0x10
    542c:	01035313          	srli	t1,t1,0x10
    5430:	010e5e13          	srli	t3,t3,0x10
    5434:	010f5f93          	srli	t6,t5,0x10
    5438:	010ed793          	srli	a5,t4,0x10
    543c:	00030513          	mv	a0,t1
    5440:	000e0593          	mv	a1,t3
    5444:	d78fd0ef          	jal	29bc <__mulsi3>
    5448:	00050713          	mv	a4,a0
    544c:	00078593          	mv	a1,a5
    5450:	00030513          	mv	a0,t1
    5454:	d68fd0ef          	jal	29bc <__mulsi3>
    5458:	00050313          	mv	t1,a0
    545c:	000e0593          	mv	a1,t3
    5460:	000f8513          	mv	a0,t6
    5464:	d58fd0ef          	jal	29bc <__mulsi3>
    5468:	00050e13          	mv	t3,a0
    546c:	00078593          	mv	a1,a5
    5470:	000f8513          	mv	a0,t6
    5474:	d48fd0ef          	jal	29bc <__mulsi3>
    5478:	01075793          	srli	a5,a4,0x10
    547c:	01c30333          	add	t1,t1,t3
    5480:	006787b3          	add	a5,a5,t1
    5484:	00050693          	mv	a3,a0
    5488:	01c7f663          	bgeu	a5,t3,5494 <__multf3+0x234>
    548c:	00010637          	lui	a2,0x10
    5490:	00c506b3          	add	a3,a0,a2
    5494:	01412283          	lw	t0,20(sp)
    5498:	01071713          	slli	a4,a4,0x10
    549c:	0107d613          	srli	a2,a5,0x10
    54a0:	01075713          	srli	a4,a4,0x10
    54a4:	01079793          	slli	a5,a5,0x10
    54a8:	00e787b3          	add	a5,a5,a4
    54ac:	01029313          	slli	t1,t0,0x10
    54b0:	010f1713          	slli	a4,t5,0x10
    54b4:	00d606b3          	add	a3,a2,a3
    54b8:	01075713          	srli	a4,a4,0x10
    54bc:	01035313          	srli	t1,t1,0x10
    54c0:	02d12a23          	sw	a3,52(sp)
    54c4:	02f12823          	sw	a5,48(sp)
    54c8:	010f5e13          	srli	t3,t5,0x10
    54cc:	0102df93          	srli	t6,t0,0x10
    54d0:	00070513          	mv	a0,a4
    54d4:	00030593          	mv	a1,t1
    54d8:	ce4fd0ef          	jal	29bc <__mulsi3>
    54dc:	00050793          	mv	a5,a0
    54e0:	000f8593          	mv	a1,t6
    54e4:	00070513          	mv	a0,a4
    54e8:	cd4fd0ef          	jal	29bc <__mulsi3>
    54ec:	00050713          	mv	a4,a0
    54f0:	00030593          	mv	a1,t1
    54f4:	000e0513          	mv	a0,t3
    54f8:	cc4fd0ef          	jal	29bc <__mulsi3>
    54fc:	00050313          	mv	t1,a0
    5500:	000f8593          	mv	a1,t6
    5504:	000e0513          	mv	a0,t3
    5508:	cb4fd0ef          	jal	29bc <__mulsi3>
    550c:	0107de13          	srli	t3,a5,0x10
    5510:	00670733          	add	a4,a4,t1
    5514:	00ee0e33          	add	t3,t3,a4
    5518:	00050b13          	mv	s6,a0
    551c:	006e7663          	bgeu	t3,t1,5528 <__multf3+0x2c8>
    5520:	00010737          	lui	a4,0x10
    5524:	00e50b33          	add	s6,a0,a4
    5528:	00412383          	lw	t2,4(sp)
    552c:	010e9493          	slli	s1,t4,0x10
    5530:	01079793          	slli	a5,a5,0x10
    5534:	01039313          	slli	t1,t2,0x10
    5538:	010e5913          	srli	s2,t3,0x10
    553c:	0107d793          	srli	a5,a5,0x10
    5540:	01035313          	srli	t1,t1,0x10
    5544:	0104d493          	srli	s1,s1,0x10
    5548:	010e1e13          	slli	t3,t3,0x10
    554c:	00fe0e33          	add	t3,t3,a5
    5550:	0103d713          	srli	a4,t2,0x10
    5554:	010ed793          	srli	a5,t4,0x10
    5558:	00030513          	mv	a0,t1
    555c:	00048593          	mv	a1,s1
    5560:	c5cfd0ef          	jal	29bc <__mulsi3>
    5564:	00050f93          	mv	t6,a0
    5568:	00078593          	mv	a1,a5
    556c:	00030513          	mv	a0,t1
    5570:	c4cfd0ef          	jal	29bc <__mulsi3>
    5574:	00050313          	mv	t1,a0
    5578:	00048593          	mv	a1,s1
    557c:	00070513          	mv	a0,a4
    5580:	c3cfd0ef          	jal	29bc <__mulsi3>
    5584:	00050493          	mv	s1,a0
    5588:	00078593          	mv	a1,a5
    558c:	00070513          	mv	a0,a4
    5590:	c2cfd0ef          	jal	29bc <__mulsi3>
    5594:	010fd793          	srli	a5,t6,0x10
    5598:	00930333          	add	t1,t1,s1
    559c:	006787b3          	add	a5,a5,t1
    55a0:	00050713          	mv	a4,a0
    55a4:	0097f663          	bgeu	a5,s1,55b0 <__multf3+0x350>
    55a8:	000106b7          	lui	a3,0x10
    55ac:	00d50733          	add	a4,a0,a3
    55b0:	010f9f93          	slli	t6,t6,0x10
    55b4:	0107d993          	srli	s3,a5,0x10
    55b8:	010fdf93          	srli	t6,t6,0x10
    55bc:	01079793          	slli	a5,a5,0x10
    55c0:	01f787b3          	add	a5,a5,t6
    55c4:	01039a13          	slli	s4,t2,0x10
    55c8:	01029f93          	slli	t6,t0,0x10
    55cc:	010a5a13          	srli	s4,s4,0x10
    55d0:	010fdf93          	srli	t6,t6,0x10
    55d4:	00e989b3          	add	s3,s3,a4
    55d8:	0103d493          	srli	s1,t2,0x10
    55dc:	0102d713          	srli	a4,t0,0x10
    55e0:	000a0513          	mv	a0,s4
    55e4:	000f8593          	mv	a1,t6
    55e8:	bd4fd0ef          	jal	29bc <__mulsi3>
    55ec:	00050313          	mv	t1,a0
    55f0:	00070593          	mv	a1,a4
    55f4:	000a0513          	mv	a0,s4
    55f8:	bc4fd0ef          	jal	29bc <__mulsi3>
    55fc:	00050a13          	mv	s4,a0
    5600:	000f8593          	mv	a1,t6
    5604:	00048513          	mv	a0,s1
    5608:	bb4fd0ef          	jal	29bc <__mulsi3>
    560c:	00050f93          	mv	t6,a0
    5610:	00070593          	mv	a1,a4
    5614:	00048513          	mv	a0,s1
    5618:	ba4fd0ef          	jal	29bc <__mulsi3>
    561c:	01035713          	srli	a4,t1,0x10
    5620:	01fa0a33          	add	s4,s4,t6
    5624:	01470733          	add	a4,a4,s4
    5628:	00050693          	mv	a3,a0
    562c:	01f77663          	bgeu	a4,t6,5638 <__multf3+0x3d8>
    5630:	00010637          	lui	a2,0x10
    5634:	00c506b3          	add	a3,a0,a2
    5638:	01812a03          	lw	s4,24(sp)
    563c:	010f1b93          	slli	s7,t5,0x10
    5640:	01031313          	slli	t1,t1,0x10
    5644:	010a1a93          	slli	s5,s4,0x10
    5648:	01075493          	srli	s1,a4,0x10
    564c:	01035313          	srli	t1,t1,0x10
    5650:	010bdb93          	srli	s7,s7,0x10
    5654:	010ada93          	srli	s5,s5,0x10
    5658:	01071713          	slli	a4,a4,0x10
    565c:	00670733          	add	a4,a4,t1
