
/home/linh/Documents/GitHub/Grad_Project_RISCV_core/RV32IM-CoreMark/build/coremark.elf:     file format elf32-littleriscv


Disassembly of section .startup:

00000000 <.startup>:
   0:	00000013          	nop
   4:	00000033          	add	zero,zero,zero
   8:	000000b3          	add	ra,zero,zero
   c:	00000133          	add	sp,zero,zero
  10:	000001b3          	add	gp,zero,zero
  14:	00000233          	add	tp,zero,zero
  18:	000002b3          	add	t0,zero,zero
  1c:	00000333          	add	t1,zero,zero
  20:	000003b3          	add	t2,zero,zero
  24:	00000433          	add	s0,zero,zero
  28:	000004b3          	add	s1,zero,zero
  2c:	00000533          	add	a0,zero,zero
  30:	000005b3          	add	a1,zero,zero
  34:	00000633          	add	a2,zero,zero
  38:	000006b3          	add	a3,zero,zero
  3c:	00000733          	add	a4,zero,zero
  40:	000007b3          	add	a5,zero,zero
  44:	00000833          	add	a6,zero,zero
  48:	000008b3          	add	a7,zero,zero
  4c:	00000933          	add	s2,zero,zero
  50:	000009b3          	add	s3,zero,zero
  54:	00000a33          	add	s4,zero,zero
  58:	00000ab3          	add	s5,zero,zero
  5c:	00000b33          	add	s6,zero,zero
  60:	00000bb3          	add	s7,zero,zero
  64:	00000c33          	add	s8,zero,zero
  68:	00000cb3          	add	s9,zero,zero
  6c:	00000d33          	add	s10,zero,zero
  70:	00000db3          	add	s11,zero,zero
  74:	00000e33          	add	t3,zero,zero
  78:	00000eb3          	add	t4,zero,zero
  7c:	00000f33          	add	t5,zero,zero
  80:	00000fb3          	add	t6,zero,zero
  84:	0000e137          	lui	sp,0xe
  88:	4390706f          	j	0x7cc0
  8c:	00000013          	nop

Disassembly of section .text:

00000090 <.text>:
      90:	200007b7          	lui	a5,0x20000
      94:	04c7a503          	lw	a0,76(a5) # 0x2000004c
      98:	00008067          	ret
      9c:	200007b7          	lui	a5,0x20000
      a0:	00300713          	li	a4,3
      a4:	06e7a223          	sw	a4,100(a5) # 0x20000064
      a8:	00200293          	li	t0,2
      ac:	0657a223          	sw	t0,100(a5)
      b0:	00008067          	ret
      b4:	200007b7          	lui	a5,0x20000
      b8:	0607a223          	sw	zero,100(a5) # 0x20000064
      bc:	00008067          	ret
      c0:	200007b7          	lui	a5,0x20000
      c4:	00300693          	li	a3,3
      c8:	06d7a223          	sw	a3,100(a5) # 0x20000064
      cc:	00200613          	li	a2,2
      d0:	06c7a223          	sw	a2,100(a5)
      d4:	fff00293          	li	t0,-1
      d8:	0457a023          	sw	t0,64(a5)
      dc:	04d7a223          	sw	a3,68(a5)
      e0:	00100393          	li	t2,1
      e4:	0477a223          	sw	t2,68(a5)
      e8:	04c7a583          	lw	a1,76(a5)
      ec:	00010837          	lui	a6,0x10
      f0:	7eb82623          	sw	a1,2028(a6) # 0x107ec
      f4:	00008067          	ret
      f8:	200007b7          	lui	a5,0x20000
      fc:	0607a223          	sw	zero,100(a5) # 0x20000064
     100:	0407a223          	sw	zero,68(a5)
     104:	04c7a283          	lw	t0,76(a5)
     108:	00010337          	lui	t1,0x10
     10c:	7e532423          	sw	t0,2024(t1) # 0x107e8
     110:	0607a223          	sw	zero,100(a5)
     114:	00008067          	ret
     118:	200007b7          	lui	a5,0x20000
     11c:	0687a503          	lw	a0,104(a5) # 0x20000068
     120:	00008067          	ret
     124:	00010737          	lui	a4,0x10
     128:	000107b7          	lui	a5,0x10
     12c:	7e872503          	lw	a0,2024(a4) # 0x107e8
     130:	7ec7a283          	lw	t0,2028(a5) # 0x107ec
     134:	40550533          	sub	a0,a0,t0
     138:	00008067          	ret
     13c:	000f45b7          	lui	a1,0xf4
     140:	ff010113          	addi	sp,sp,-16 # 0xdff0
     144:	24058593          	addi	a1,a1,576 # 0xf4240
     148:	00112623          	sw	ra,12(sp)
     14c:	785050ef          	jal	0x60d0
     150:	00c12083          	lw	ra,12(sp)
     154:	01010113          	addi	sp,sp,16
     158:	00008067          	ret
     15c:	200007b7          	lui	a5,0x20000
     160:	3e800713          	li	a4,1000
     164:	04e7a023          	sw	a4,64(a5) # 0x20000040
     168:	02a05c63          	blez	a0,0x1a0
     16c:	20000637          	lui	a2,0x20000
     170:	04460313          	addi	t1,a2,68 # 0x20000044
     174:	04860393          	addi	t2,a2,72
     178:	00000693          	li	a3,0
     17c:	00300813          	li	a6,3
     180:	00100593          	li	a1,1
     184:	01032023          	sw	a6,0(t1)
     188:	00b32023          	sw	a1,0(t1)
     18c:	0003a883          	lw	a7,0(t2)
     190:	0018fe13          	andi	t3,a7,1
     194:	fe0e0ce3          	beqz	t3,0x18c
     198:	00168693          	addi	a3,a3,1
     19c:	fed514e3          	bne	a0,a3,0x184
     1a0:	00008067          	ret
     1a4:	ff010113          	addi	sp,sp,-16
     1a8:	000017b7          	lui	a5,0x1
     1ac:	00112623          	sw	ra,12(sp)
     1b0:	00050593          	mv	a1,a0
     1b4:	88878293          	addi	t0,a5,-1912 # 0x888
     1b8:	200006b7          	lui	a3,0x20000
     1bc:	000f4537          	lui	a0,0xf4
     1c0:	0056a023          	sw	t0,0(a3) # 0x20000000
     1c4:	24050513          	addi	a0,a0,576 # 0xf4240
     1c8:	701050ef          	jal	0x60c8
     1cc:	00c12083          	lw	ra,12(sp)
     1d0:	20000337          	lui	t1,0x20000
     1d4:	00a32223          	sw	a0,4(t1) # 0x20000004
     1d8:	01000393          	li	t2,16
     1dc:	00732623          	sw	t2,12(t1)
     1e0:	01010113          	addi	sp,sp,16
     1e4:	00008067          	ret
     1e8:	ff010113          	addi	sp,sp,-16
     1ec:	00001737          	lui	a4,0x1
     1f0:	200006b7          	lui	a3,0x20000
     1f4:	00812423          	sw	s0,8(sp)
     1f8:	00112623          	sw	ra,12(sp)
     1fc:	88870293          	addi	t0,a4,-1912 # 0x888
     200:	0056a023          	sw	t0,0(a3) # 0x20000000
     204:	06800313          	li	t1,104
     208:	0066a223          	sw	t1,4(a3)
     20c:	01000413          	li	s0,16
     210:	0086a623          	sw	s0,12(a3)
     214:	3e800813          	li	a6,1000
     218:	00050413          	mv	s0,a0
     21c:	0506a023          	sw	a6,64(a3)
     220:	04468513          	addi	a0,a3,68
     224:	04868e13          	addi	t3,a3,72
     228:	06400293          	li	t0,100
     22c:	00300e93          	li	t4,3
     230:	00100f13          	li	t5,1
     234:	01d52023          	sw	t4,0(a0)
     238:	01e52023          	sw	t5,0(a0)
     23c:	000e2f83          	lw	t6,0(t3)
     240:	001ff713          	andi	a4,t6,1
     244:	fe070ce3          	beqz	a4,0x23c
     248:	fff28293          	addi	t0,t0,-1
     24c:	fe0294e3          	bnez	t0,0x234
     250:	000196b7          	lui	a3,0x19
     254:	b0c68513          	addi	a0,a3,-1268 # 0x18b0c
     258:	1b8000ef          	jal	0x410
     25c:	00100793          	li	a5,1
     260:	00f40023          	sb	a5,0(s0)
     264:	00c12083          	lw	ra,12(sp)
     268:	00812403          	lw	s0,8(sp)
     26c:	01010113          	addi	sp,sp,16
     270:	00008067          	ret
     274:	00010737          	lui	a4,0x10
     278:	000107b7          	lui	a5,0x10
     27c:	7e872503          	lw	a0,2024(a4) # 0x107e8
     280:	7ec7a283          	lw	t0,2028(a5) # 0x107ec
     284:	fe010113          	addi	sp,sp,-32
     288:	00112e23          	sw	ra,28(sp)
     28c:	40550533          	sub	a0,a0,t0
     290:	00812c23          	sw	s0,24(sp)
     294:	00912a23          	sw	s1,20(sp)
     298:	01212823          	sw	s2,16(sp)
     29c:	01312623          	sw	s3,12(sp)
     2a0:	435050ef          	jal	0x5ed4
     2a4:	00019337          	lui	t1,0x19
     2a8:	00050413          	mv	s0,a0
     2ac:	05c32503          	lw	a0,92(t1) # 0x1905c
     2b0:	200003b7          	lui	t2,0x20000
     2b4:	00040593          	mv	a1,s0
     2b8:	0683a983          	lw	s3,104(t2) # 0x20000068
     2bc:	00019937          	lui	s2,0x19
     2c0:	554050ef          	jal	0x5814
     2c4:	06092583          	lw	a1,96(s2) # 0x19060
     2c8:	00050493          	mv	s1,a0
     2cc:	0bd050ef          	jal	0x5b88
     2d0:	06092583          	lw	a1,96(s2)
     2d4:	540050ef          	jal	0x5814
     2d8:	00050913          	mv	s2,a0
     2dc:	00098513          	mv	a0,s3
     2e0:	3f5050ef          	jal	0x5ed4
     2e4:	00050593          	mv	a1,a0
     2e8:	00040513          	mv	a0,s0
     2ec:	528050ef          	jal	0x5814
     2f0:	4c9050ef          	jal	0x5fb8
     2f4:	00058693          	mv	a3,a1
     2f8:	000195b7          	lui	a1,0x19
     2fc:	00050613          	mv	a2,a0
     300:	b1c58513          	addi	a0,a1,-1252 # 0x18b1c
     304:	10c000ef          	jal	0x410
     308:	00090513          	mv	a0,s2
     30c:	4ad050ef          	jal	0x5fb8
     310:	00019837          	lui	a6,0x19
     314:	00050613          	mv	a2,a0
     318:	00058693          	mv	a3,a1
     31c:	b3880513          	addi	a0,a6,-1224 # 0x18b38
     320:	0f0000ef          	jal	0x410
     324:	00048513          	mv	a0,s1
     328:	491050ef          	jal	0x5fb8
     32c:	000198b7          	lui	a7,0x19
     330:	00050613          	mv	a2,a0
     334:	00058693          	mv	a3,a1
     338:	b4c88513          	addi	a0,a7,-1204 # 0x18b4c
     33c:	0d4000ef          	jal	0x410
     340:	01812403          	lw	s0,24(sp)
     344:	01c12083          	lw	ra,28(sp)
     348:	01412483          	lw	s1,20(sp)
     34c:	01012903          	lw	s2,16(sp)
     350:	00c12983          	lw	s3,12(sp)
     354:	00019637          	lui	a2,0x19
     358:	b6060513          	addi	a0,a2,-1184 # 0x18b60
     35c:	02010113          	addi	sp,sp,32
     360:	0b00006f          	j	0x410
     364:	00a00793          	li	a5,10
     368:	04f50863          	beq	a0,a5,0x3b8
     36c:	20000f37          	lui	t5,0x20000
     370:	000f2f83          	lw	t6,0(t5) # 0x20000000
     374:	200002b7          	lui	t0,0x20000
     378:	01428313          	addi	t1,t0,20 # 0x20000014
     37c:	080ff793          	andi	a5,t6,128
     380:	00078e63          	beqz	a5,0x39c
     384:	00032583          	lw	a1,0(t1)
     388:	0105f613          	andi	a2,a1,16
     38c:	fe061ce3          	bnez	a2,0x384
     390:	200006b7          	lui	a3,0x20000
     394:	00a6a423          	sw	a0,8(a3) # 0x20000008
     398:	00008067          	ret
     39c:	00032383          	lw	t2,0(t1)
     3a0:	0103f713          	andi	a4,t2,16
     3a4:	fe0716e3          	bnez	a4,0x390
     3a8:	00032383          	lw	t2,0(t1)
     3ac:	0103f713          	andi	a4,t2,16
     3b0:	fe0706e3          	beqz	a4,0x39c
     3b4:	fddff06f          	j	0x390
     3b8:	200002b7          	lui	t0,0x20000
     3bc:	0002a303          	lw	t1,0(t0) # 0x20000000
     3c0:	20000737          	lui	a4,0x20000
     3c4:	01470593          	addi	a1,a4,20 # 0x20000014
     3c8:	08037393          	andi	t2,t1,128
     3cc:	02038063          	beqz	t2,0x3ec
     3d0:	0005a803          	lw	a6,0(a1)
     3d4:	01087893          	andi	a7,a6,16
     3d8:	fe089ce3          	bnez	a7,0x3d0
     3dc:	20000e37          	lui	t3,0x20000
     3e0:	00d00e93          	li	t4,13
     3e4:	01de2423          	sw	t4,8(t3) # 0x20000008
     3e8:	f85ff06f          	j	0x36c
     3ec:	0005a603          	lw	a2,0(a1)
     3f0:	01067693          	andi	a3,a2,16
     3f4:	fe0694e3          	bnez	a3,0x3dc
     3f8:	0005a603          	lw	a2,0(a1)
     3fc:	01067693          	andi	a3,a2,16
     400:	fe0686e3          	beqz	a3,0x3ec
     404:	fd9ff06f          	j	0x3dc
     408:	0ff57513          	zext.b	a0,a0
     40c:	f59ff06f          	j	0x364
     410:	fc010113          	addi	sp,sp,-64
     414:	02410313          	addi	t1,sp,36
     418:	02b12223          	sw	a1,36(sp)
     41c:	00030593          	mv	a1,t1
     420:	00112e23          	sw	ra,28(sp)
     424:	02c12423          	sw	a2,40(sp)
     428:	02d12623          	sw	a3,44(sp)
     42c:	02e12823          	sw	a4,48(sp)
     430:	02f12a23          	sw	a5,52(sp)
     434:	03012c23          	sw	a6,56(sp)
     438:	03112e23          	sw	a7,60(sp)
     43c:	00612623          	sw	t1,12(sp)
     440:	014000ef          	jal	0x454
     444:	01c12083          	lw	ra,28(sp)
     448:	00000513          	li	a0,0
     44c:	04010113          	addi	sp,sp,64
     450:	00008067          	ret
     454:	eb010113          	addi	sp,sp,-336
     458:	06100793          	li	a5,97
     45c:	14912223          	sw	s1,324(sp)
     460:	13612823          	sw	s6,304(sp)
     464:	13912223          	sw	s9,292(sp)
     468:	14112623          	sw	ra,332(sp)
     46c:	14812423          	sw	s0,328(sp)
     470:	15212023          	sw	s2,320(sp)
     474:	13312e23          	sw	s3,316(sp)
     478:	13412c23          	sw	s4,312(sp)
     47c:	13512a23          	sw	s5,308(sp)
     480:	13712623          	sw	s7,300(sp)
     484:	13812423          	sw	s8,296(sp)
     488:	13a12023          	sw	s10,288(sp)
     48c:	00050493          	mv	s1,a0
     490:	00058c93          	mv	s9,a1
     494:	00f12623          	sw	a5,12(sp)
     498:	02500b13          	li	s6,37
     49c:	0004c503          	lbu	a0,0(s1)
     4a0:	01650c63          	beq	a0,s6,0x4b8
     4a4:	04050e63          	beqz	a0,0x500
     4a8:	00148493          	addi	s1,s1,1
     4ac:	eb9ff0ef          	jal	0x364
     4b0:	0004c503          	lbu	a0,0(s1)
     4b4:	ff6518e3          	bne	a0,s6,0x4a4
     4b8:	0014cd03          	lbu	s10,1(s1)
     4bc:	00148c13          	addi	s8,s1,1
     4c0:	fff00913          	li	s2,-1
     4c4:	000c0713          	mv	a4,s8
     4c8:	00090b93          	mv	s7,s2
     4cc:	02000a93          	li	s5,32
     4d0:	00000e13          	li	t3,0
     4d4:	fddd0293          	addi	t0,s10,-35
     4d8:	0ff2f313          	zext.b	t1,t0
     4dc:	05500613          	li	a2,85
     4e0:	00170493          	addi	s1,a4,1
     4e4:	06666a63          	bltu	a2,t1,0x558
     4e8:	00018537          	lui	a0,0x18
     4ec:	00231393          	slli	t2,t1,0x2
     4f0:	7fc50813          	addi	a6,a0,2044 # 0x187fc
     4f4:	010388b3          	add	a7,t2,a6
     4f8:	0008a983          	lw	s3,0(a7)
     4fc:	00098067          	jr	s3
     500:	14c12083          	lw	ra,332(sp)
     504:	14812403          	lw	s0,328(sp)
     508:	14412483          	lw	s1,324(sp)
     50c:	14012903          	lw	s2,320(sp)
     510:	13c12983          	lw	s3,316(sp)
     514:	13812a03          	lw	s4,312(sp)
     518:	13412a83          	lw	s5,308(sp)
     51c:	13012b03          	lw	s6,304(sp)
     520:	12c12b83          	lw	s7,300(sp)
     524:	12812c03          	lw	s8,296(sp)
     528:	12412c83          	lw	s9,292(sp)
     52c:	12012d03          	lw	s10,288(sp)
     530:	15010113          	addi	sp,sp,336
     534:	00008067          	ret
     538:	000d0a93          	mv	s5,s10
     53c:	00174d03          	lbu	s10,1(a4)
     540:	05500613          	li	a2,85
     544:	00048713          	mv	a4,s1
     548:	fddd0293          	addi	t0,s10,-35
     54c:	0ff2f313          	zext.b	t1,t0
     550:	00170493          	addi	s1,a4,1
     554:	f8667ae3          	bgeu	a2,t1,0x4e8
     558:	02500513          	li	a0,37
     55c:	e09ff0ef          	jal	0x364
     560:	000c0493          	mv	s1,s8
     564:	f39ff06f          	j	0x49c
     568:	00174603          	lbu	a2,1(a4)
     56c:	00900393          	li	t2,9
     570:	fd0d0913          	addi	s2,s10,-48
     574:	fd060513          	addi	a0,a2,-48
     578:	00060d13          	mv	s10,a2
     57c:	00048713          	mv	a4,s1
     580:	02a3e663          	bltu	t2,a0,0x5ac
     584:	00291493          	slli	s1,s2,0x2
     588:	01248833          	add	a6,s1,s2
     58c:	00170713          	addi	a4,a4,1
     590:	00181893          	slli	a7,a6,0x1
     594:	00c885b3          	add	a1,a7,a2
     598:	00074603          	lbu	a2,0(a4)
     59c:	fd058913          	addi	s2,a1,-48
     5a0:	fd060693          	addi	a3,a2,-48
     5a4:	00060d13          	mv	s10,a2
     5a8:	fcd3fee3          	bgeu	t2,a3,0x584
     5ac:	f20bd4e3          	bgez	s7,0x4d4
     5b0:	00090b93          	mv	s7,s2
     5b4:	fff00913          	li	s2,-1
     5b8:	f1dff06f          	j	0x4d4
     5bc:	000cc503          	lbu	a0,0(s9)
     5c0:	004c8c93          	addi	s9,s9,4
     5c4:	da1ff0ef          	jal	0x364
     5c8:	ed5ff06f          	j	0x49c
     5cc:	00100f93          	li	t6,1
     5d0:	75cfc463          	blt	t6,t3,0xd18
     5d4:	000ca403          	lw	s0,0(s9)
     5d8:	004c8c93          	addi	s9,s9,4
     5dc:	41f45d13          	srai	s10,s0,0x1f
     5e0:	000d5e63          	bgez	s10,0x5fc
     5e4:	00803c33          	snez	s8,s0
     5e8:	02d00513          	li	a0,45
     5ec:	41a00a33          	neg	s4,s10
     5f0:	d75ff0ef          	jal	0x364
     5f4:	418a0d33          	sub	s10,s4,s8
     5f8:	40800433          	neg	s0,s0
     5fc:	00a00a13          	li	s4,10
     600:	00000c13          	li	s8,0
     604:	000a0613          	mv	a2,s4
     608:	00000693          	li	a3,0
     60c:	00040513          	mv	a0,s0
     610:	000d0593          	mv	a1,s10
     614:	5b9030ef          	jal	0x43cc
     618:	00a12823          	sw	a0,16(sp)
     61c:	41ac0c63          	beq	s8,s10,0xa34
     620:	11b12e23          	sw	s11,284(sp)
     624:	00100993          	li	s3,1
     628:	01410d93          	addi	s11,sp,20
     62c:	00040513          	mv	a0,s0
     630:	000d0593          	mv	a1,s10
     634:	000a0613          	mv	a2,s4
     638:	00000693          	li	a3,0
     63c:	7c8030ef          	jal	0x3e04
     640:	000a0613          	mv	a2,s4
     644:	00000693          	li	a3,0
     648:	00050413          	mv	s0,a0
     64c:	00058d13          	mv	s10,a1
     650:	57d030ef          	jal	0x43cc
     654:	00ada023          	sw	a0,0(s11)
     658:	00098913          	mv	s2,s3
     65c:	004d8d93          	addi	s11,s11,4
     660:	00198993          	addi	s3,s3,1
     664:	fdac14e3          	bne	s8,s10,0x62c
     668:	fd4472e3          	bgeu	s0,s4,0x62c
     66c:	11c12d83          	lw	s11,284(sp)
     670:	fffb8413          	addi	s0,s7,-1
     674:	fff98a13          	addi	s4,s3,-1
     678:	0f79d063          	bge	s3,s7,0x758
     67c:	41440eb3          	sub	t4,s0,s4
     680:	007eff13          	andi	t5,t4,7
     684:	080f0663          	beqz	t5,0x710
     688:	00100f93          	li	t6,1
     68c:	07ff0a63          	beq	t5,t6,0x700
     690:	00200793          	li	a5,2
     694:	06ff0063          	beq	t5,a5,0x6f4
     698:	00300293          	li	t0,3
     69c:	045f0663          	beq	t5,t0,0x6e8
     6a0:	00400c13          	li	s8,4
     6a4:	038f0c63          	beq	t5,s8,0x6dc
     6a8:	00500313          	li	t1,5
     6ac:	026f0263          	beq	t5,t1,0x6d0
     6b0:	00600393          	li	t2,6
     6b4:	007f0863          	beq	t5,t2,0x6c4
     6b8:	000a8513          	mv	a0,s5
     6bc:	ca9ff0ef          	jal	0x364
     6c0:	ffeb8413          	addi	s0,s7,-2
     6c4:	000a8513          	mv	a0,s5
     6c8:	c9dff0ef          	jal	0x364
     6cc:	fff40413          	addi	s0,s0,-1
     6d0:	000a8513          	mv	a0,s5
     6d4:	c91ff0ef          	jal	0x364
     6d8:	fff40413          	addi	s0,s0,-1
     6dc:	000a8513          	mv	a0,s5
     6e0:	c85ff0ef          	jal	0x364
     6e4:	fff40413          	addi	s0,s0,-1
     6e8:	000a8513          	mv	a0,s5
     6ec:	c79ff0ef          	jal	0x364
     6f0:	fff40413          	addi	s0,s0,-1
     6f4:	000a8513          	mv	a0,s5
     6f8:	c6dff0ef          	jal	0x364
     6fc:	fff40413          	addi	s0,s0,-1
     700:	000a8513          	mv	a0,s5
     704:	fff40413          	addi	s0,s0,-1
     708:	c5dff0ef          	jal	0x364
     70c:	05440663          	beq	s0,s4,0x758
     710:	000a8513          	mv	a0,s5
     714:	c51ff0ef          	jal	0x364
     718:	000a8513          	mv	a0,s5
     71c:	c49ff0ef          	jal	0x364
     720:	000a8513          	mv	a0,s5
     724:	c41ff0ef          	jal	0x364
     728:	000a8513          	mv	a0,s5
     72c:	c39ff0ef          	jal	0x364
     730:	000a8513          	mv	a0,s5
     734:	c31ff0ef          	jal	0x364
     738:	000a8513          	mv	a0,s5
     73c:	c29ff0ef          	jal	0x364
     740:	000a8513          	mv	a0,s5
     744:	c21ff0ef          	jal	0x364
     748:	000a8513          	mv	a0,s5
     74c:	ff840413          	addi	s0,s0,-8
     750:	c15ff0ef          	jal	0x364
     754:	fb441ee3          	bne	s0,s4,0x710
     758:	00291b93          	slli	s7,s2,0x2
     75c:	00c12503          	lw	a0,12(sp)
     760:	002bda93          	srli	s5,s7,0x2
     764:	01010d13          	addi	s10,sp,16
     768:	007af993          	andi	s3,s5,7
     76c:	017d0933          	add	s2,s10,s7
     770:	00900c13          	li	s8,9
     774:	ff650a13          	addi	s4,a0,-10
     778:	1e098263          	beqz	s3,0x95c
     77c:	00092803          	lw	a6,0(s2)
     780:	03000893          	li	a7,48
     784:	010c7463          	bgeu	s8,a6,0x78c
     788:	000a0893          	mv	a7,s4
     78c:	010885b3          	add	a1,a7,a6
     790:	0ff5f513          	zext.b	a0,a1
     794:	bd1ff0ef          	jal	0x364
     798:	ffc90913          	addi	s2,s2,-4
     79c:	00100613          	li	a2,1
     7a0:	00090413          	mv	s0,s2
     7a4:	1ac98c63          	beq	s3,a2,0x95c
     7a8:	00200693          	li	a3,2
     7ac:	0cd98263          	beq	s3,a3,0x870
     7b0:	00300713          	li	a4,3
     7b4:	08e98e63          	beq	s3,a4,0x850
     7b8:	00400e13          	li	t3,4
     7bc:	07c98a63          	beq	s3,t3,0x830
     7c0:	00500e93          	li	t4,5
     7c4:	05d98663          	beq	s3,t4,0x810
     7c8:	00600f13          	li	t5,6
     7cc:	03e98263          	beq	s3,t5,0x7f0
     7d0:	00092903          	lw	s2,0(s2)
     7d4:	03000f93          	li	t6,48
     7d8:	012c7463          	bgeu	s8,s2,0x7e0
     7dc:	000a0f93          	mv	t6,s4
     7e0:	012f87b3          	add	a5,t6,s2
     7e4:	0ff7f513          	zext.b	a0,a5
     7e8:	b7dff0ef          	jal	0x364
     7ec:	ffc40913          	addi	s2,s0,-4
     7f0:	00092283          	lw	t0,0(s2)
     7f4:	03000313          	li	t1,48
     7f8:	005c7463          	bgeu	s8,t0,0x800
     7fc:	000a0313          	mv	t1,s4
     800:	005303b3          	add	t2,t1,t0
     804:	0ff3f513          	zext.b	a0,t2
     808:	b5dff0ef          	jal	0x364
     80c:	ffc90913          	addi	s2,s2,-4
     810:	00092b83          	lw	s7,0(s2)
     814:	03000a93          	li	s5,48
     818:	017c7463          	bgeu	s8,s7,0x820
     81c:	000a0a93          	mv	s5,s4
     820:	017a89b3          	add	s3,s5,s7
     824:	0ff9f513          	zext.b	a0,s3
     828:	b3dff0ef          	jal	0x364
     82c:	ffc90913          	addi	s2,s2,-4
     830:	00092803          	lw	a6,0(s2)
     834:	03000513          	li	a0,48
     838:	010c7463          	bgeu	s8,a6,0x840
     83c:	000a0513          	mv	a0,s4
     840:	010508b3          	add	a7,a0,a6
     844:	0ff8f513          	zext.b	a0,a7
     848:	b1dff0ef          	jal	0x364
     84c:	ffc90913          	addi	s2,s2,-4
     850:	00092583          	lw	a1,0(s2)
     854:	03000613          	li	a2,48
     858:	00bc7463          	bgeu	s8,a1,0x860
     85c:	000a0613          	mv	a2,s4
     860:	00b60433          	add	s0,a2,a1
     864:	0ff47513          	zext.b	a0,s0
     868:	afdff0ef          	jal	0x364
     86c:	ffc90913          	addi	s2,s2,-4
     870:	00092683          	lw	a3,0(s2)
     874:	03000713          	li	a4,48
     878:	00dc7463          	bgeu	s8,a3,0x880
     87c:	000a0713          	mv	a4,s4
     880:	00d70e33          	add	t3,a4,a3
     884:	0ffe7513          	zext.b	a0,t3
     888:	addff0ef          	jal	0x364
     88c:	ffc90913          	addi	s2,s2,-4
     890:	0cc0006f          	j	0x95c
     894:	ffc92903          	lw	s2,-4(s2)
     898:	03000793          	li	a5,48
     89c:	012c7463          	bgeu	s8,s2,0x8a4
     8a0:	000a0793          	mv	a5,s4
     8a4:	012782b3          	add	t0,a5,s2
     8a8:	0ff2f513          	zext.b	a0,t0
     8ac:	ab9ff0ef          	jal	0x364
     8b0:	ffcba303          	lw	t1,-4(s7)
     8b4:	03000393          	li	t2,48
     8b8:	006c7463          	bgeu	s8,t1,0x8c0
     8bc:	000a0393          	mv	t2,s4
     8c0:	00638ab3          	add	s5,t2,t1
     8c4:	0ffaf513          	zext.b	a0,s5
     8c8:	a9dff0ef          	jal	0x364
     8cc:	ff8ba983          	lw	s3,-8(s7)
     8d0:	03000813          	li	a6,48
     8d4:	013c7463          	bgeu	s8,s3,0x8dc
     8d8:	000a0813          	mv	a6,s4
     8dc:	01380533          	add	a0,a6,s3
     8e0:	0ff57513          	zext.b	a0,a0
     8e4:	a81ff0ef          	jal	0x364
     8e8:	ff4ba883          	lw	a7,-12(s7)
     8ec:	03000593          	li	a1,48
     8f0:	011c7463          	bgeu	s8,a7,0x8f8
     8f4:	000a0593          	mv	a1,s4
     8f8:	01158633          	add	a2,a1,a7
     8fc:	0ff67513          	zext.b	a0,a2
     900:	a65ff0ef          	jal	0x364
     904:	ff0ba403          	lw	s0,-16(s7)
     908:	03000693          	li	a3,48
     90c:	008c7463          	bgeu	s8,s0,0x914
     910:	000a0693          	mv	a3,s4
     914:	00868733          	add	a4,a3,s0
     918:	0ff77513          	zext.b	a0,a4
     91c:	a49ff0ef          	jal	0x364
     920:	fecbae03          	lw	t3,-20(s7)
     924:	03000e93          	li	t4,48
     928:	01cc7463          	bgeu	s8,t3,0x930
     92c:	000a0e93          	mv	t4,s4
     930:	01ce8f33          	add	t5,t4,t3
     934:	0fff7513          	zext.b	a0,t5
     938:	a2dff0ef          	jal	0x364
     93c:	fe8baf83          	lw	t6,-24(s7)
     940:	03000913          	li	s2,48
     944:	01fc7463          	bgeu	s8,t6,0x94c
     948:	000a0913          	mv	s2,s4
     94c:	01f907b3          	add	a5,s2,t6
     950:	0ff7f513          	zext.b	a0,a5
     954:	a11ff0ef          	jal	0x364
     958:	fe4b8913          	addi	s2,s7,-28
     95c:	00092e83          	lw	t4,0(s2)
     960:	03000f13          	li	t5,48
     964:	01dc7463          	bgeu	s8,t4,0x96c
     968:	000a0f13          	mv	t5,s4
     96c:	01df0fb3          	add	t6,t5,t4
     970:	0ffff513          	zext.b	a0,t6
     974:	9f1ff0ef          	jal	0x364
     978:	ffc90b93          	addi	s7,s2,-4
     97c:	f12d1ce3          	bne	s10,s2,0x894
     980:	b1dff06f          	j	0x49c
     984:	007c8c93          	addi	s9,s9,7
     988:	ff8cfa93          	andi	s5,s9,-8
     98c:	000aab83          	lw	s7,0(s5)
     990:	004aa983          	lw	s3,4(s5)
     994:	008a8c93          	addi	s9,s5,8
     998:	000b8513          	mv	a0,s7
     99c:	00098593          	mv	a1,s3
     9a0:	541040ef          	jal	0x56e0
     9a4:	00050913          	mv	s2,a0
     9a8:	5b9040ef          	jal	0x5760
     9ac:	00050613          	mv	a2,a0
     9b0:	00058693          	mv	a3,a1
     9b4:	000b8513          	mv	a0,s7
     9b8:	00098593          	mv	a1,s3
     9bc:	594040ef          	jal	0x4f50
     9c0:	00019eb7          	lui	t4,0x19
     9c4:	068ea603          	lw	a2,104(t4) # 0x19068
     9c8:	06cea683          	lw	a3,108(t4)
     9cc:	6d1030ef          	jal	0x489c
     9d0:	511040ef          	jal	0x56e0
     9d4:	00019f37          	lui	t5,0x19
     9d8:	00050613          	mv	a2,a0
     9dc:	00090593          	mv	a1,s2
     9e0:	b70f0513          	addi	a0,t5,-1168 # 0x18b70
     9e4:	a2dff0ef          	jal	0x410
     9e8:	ab5ff06f          	j	0x49c
     9ec:	00174d03          	lbu	s10,1(a4)
     9f0:	001e0e13          	addi	t3,t3,1
     9f4:	00048713          	mv	a4,s1
     9f8:	addff06f          	j	0x4d4
     9fc:	00800a13          	li	s4,8
     a00:	00000c13          	li	s8,0
     a04:	00100713          	li	a4,1
     a08:	1dc74c63          	blt	a4,t3,0xbe0
     a0c:	000ca403          	lw	s0,0(s9)
     a10:	00000d13          	li	s10,0
     a14:	000a0613          	mv	a2,s4
     a18:	00000693          	li	a3,0
     a1c:	00040513          	mv	a0,s0
     a20:	000d0593          	mv	a1,s10
     a24:	1a9030ef          	jal	0x43cc
     a28:	00a12823          	sw	a0,16(sp)
     a2c:	004c8c93          	addi	s9,s9,4
     a30:	bfac18e3          	bne	s8,s10,0x620
     a34:	bf4476e3          	bgeu	s0,s4,0x620
     a38:	00000913          	li	s2,0
     a3c:	00100993          	li	s3,1
     a40:	c31ff06f          	j	0x670
     a44:	fffbcd13          	not	s10,s7
     a48:	41fd5993          	srai	s3,s10,0x1f
     a4c:	013bfbb3          	and	s7,s7,s3
     a50:	00174d03          	lbu	s10,1(a4)
     a54:	00048713          	mv	a4,s1
     a58:	a7dff06f          	j	0x4d4
     a5c:	03000513          	li	a0,48
     a60:	905ff0ef          	jal	0x364
     a64:	07800513          	li	a0,120
     a68:	8fdff0ef          	jal	0x364
     a6c:	06100693          	li	a3,97
     a70:	01000a13          	li	s4,16
     a74:	00000c13          	li	s8,0
     a78:	00d12623          	sw	a3,12(sp)
     a7c:	f91ff06f          	j	0xa0c
     a80:	000cac03          	lw	s8,0(s9)
     a84:	2c0c0063          	beqz	s8,0xd44
     a88:	29705063          	blez	s7,0xd08
     a8c:	02d00593          	li	a1,45
     a90:	18ba9463          	bne	s5,a1,0xc18
     a94:	000c4503          	lbu	a0,0(s8)
     a98:	02050663          	beqz	a0,0xac4
     a9c:	fff00a13          	li	s4,-1
     aa0:	00094663          	bltz	s2,0xaac
     aa4:	fff90913          	addi	s2,s2,-1
     aa8:	01490c63          	beq	s2,s4,0xac0
     aac:	8b9ff0ef          	jal	0x364
     ab0:	001c4503          	lbu	a0,1(s8)
     ab4:	001c0c13          	addi	s8,s8,1
     ab8:	fffb8b93          	addi	s7,s7,-1
     abc:	fe0512e3          	bnez	a0,0xaa0
     ac0:	0f705063          	blez	s7,0xba0
     ac4:	007bf313          	andi	t1,s7,7
     ac8:	fffb8413          	addi	s0,s7,-1
     acc:	08030663          	beqz	t1,0xb58
     ad0:	00100613          	li	a2,1
     ad4:	06c30a63          	beq	t1,a2,0xb48
     ad8:	00200393          	li	t2,2
     adc:	06730063          	beq	t1,t2,0xb3c
     ae0:	00300513          	li	a0,3
     ae4:	04a30663          	beq	t1,a0,0xb30
     ae8:	00400813          	li	a6,4
     aec:	03030c63          	beq	t1,a6,0xb24
     af0:	00500893          	li	a7,5
     af4:	03130263          	beq	t1,a7,0xb18
     af8:	00600593          	li	a1,6
     afc:	00b30863          	beq	t1,a1,0xb0c
     b00:	02000513          	li	a0,32
     b04:	861ff0ef          	jal	0x364
     b08:	00040b93          	mv	s7,s0
     b0c:	02000513          	li	a0,32
     b10:	855ff0ef          	jal	0x364
     b14:	fffb8b93          	addi	s7,s7,-1
     b18:	02000513          	li	a0,32
     b1c:	849ff0ef          	jal	0x364
     b20:	fffb8b93          	addi	s7,s7,-1
     b24:	02000513          	li	a0,32
     b28:	83dff0ef          	jal	0x364
     b2c:	fffb8b93          	addi	s7,s7,-1
     b30:	02000513          	li	a0,32
     b34:	831ff0ef          	jal	0x364
     b38:	fffb8b93          	addi	s7,s7,-1
     b3c:	02000513          	li	a0,32
     b40:	825ff0ef          	jal	0x364
     b44:	fffb8b93          	addi	s7,s7,-1
     b48:	02000513          	li	a0,32
     b4c:	fffb8b93          	addi	s7,s7,-1
     b50:	815ff0ef          	jal	0x364
     b54:	040b8663          	beqz	s7,0xba0
     b58:	02000513          	li	a0,32
     b5c:	809ff0ef          	jal	0x364
     b60:	02000513          	li	a0,32
     b64:	801ff0ef          	jal	0x364
     b68:	02000513          	li	a0,32
     b6c:	ff8ff0ef          	jal	0x364
     b70:	02000513          	li	a0,32
     b74:	ff0ff0ef          	jal	0x364
     b78:	02000513          	li	a0,32
     b7c:	fe8ff0ef          	jal	0x364
     b80:	02000513          	li	a0,32
     b84:	fe0ff0ef          	jal	0x364
     b88:	02000513          	li	a0,32
     b8c:	fd8ff0ef          	jal	0x364
     b90:	02000513          	li	a0,32
     b94:	ff8b8b93          	addi	s7,s7,-8
     b98:	fccff0ef          	jal	0x364
     b9c:	fa0b9ee3          	bnez	s7,0xb58
     ba0:	004c8c93          	addi	s9,s9,4
     ba4:	8f9ff06f          	j	0x49c
     ba8:	00174d03          	lbu	s10,1(a4)
     bac:	00048713          	mv	a4,s1
     bb0:	925ff06f          	j	0x4d4
     bb4:	00174d03          	lbu	s10,1(a4)
     bb8:	000ca903          	lw	s2,0(s9)
     bbc:	00048713          	mv	a4,s1
     bc0:	004c8c93          	addi	s9,s9,4
     bc4:	9e9ff06f          	j	0x5ac
     bc8:	06100413          	li	s0,97
     bcc:	00812623          	sw	s0,12(sp)
     bd0:	00100713          	li	a4,1
     bd4:	01000a13          	li	s4,16
     bd8:	00000c13          	li	s8,0
     bdc:	e3c758e3          	bge	a4,t3,0xa0c
     be0:	007c8e13          	addi	t3,s9,7
     be4:	ff8e7913          	andi	s2,t3,-8
     be8:	00092403          	lw	s0,0(s2)
     bec:	00492d03          	lw	s10,4(s2)
     bf0:	00890c93          	addi	s9,s2,8
     bf4:	a11ff06f          	j	0x604
     bf8:	02500513          	li	a0,37
     bfc:	f68ff0ef          	jal	0x364
     c00:	89dff06f          	j	0x49c
     c04:	00a00a13          	li	s4,10
     c08:	00000c13          	li	s8,0
     c0c:	df9ff06f          	j	0xa04
     c10:	00019737          	lui	a4,0x19
     c14:	b6870c13          	addi	s8,a4,-1176 # 0x18b68
     c18:	00090593          	mv	a1,s2
     c1c:	000c0513          	mv	a0,s8
     c20:	045070ef          	jal	0x8464
     c24:	40ab8bb3          	sub	s7,s7,a0
     c28:	0f705063          	blez	s7,0xd08
     c2c:	007bfd13          	andi	s10,s7,7
     c30:	fffb8993          	addi	s3,s7,-1
     c34:	080d0663          	beqz	s10,0xcc0
     c38:	00100e13          	li	t3,1
     c3c:	07cd0a63          	beq	s10,t3,0xcb0
     c40:	00200e93          	li	t4,2
     c44:	07dd0063          	beq	s10,t4,0xca4
     c48:	00300f13          	li	t5,3
     c4c:	05ed0663          	beq	s10,t5,0xc98
     c50:	00400f93          	li	t6,4
     c54:	03fd0c63          	beq	s10,t6,0xc8c
     c58:	00500793          	li	a5,5
     c5c:	02fd0263          	beq	s10,a5,0xc80
     c60:	00600293          	li	t0,6
     c64:	005d0863          	beq	s10,t0,0xc74
     c68:	000a8513          	mv	a0,s5
     c6c:	ef8ff0ef          	jal	0x364
     c70:	00098b93          	mv	s7,s3
     c74:	000a8513          	mv	a0,s5
     c78:	eecff0ef          	jal	0x364
     c7c:	fffb8b93          	addi	s7,s7,-1
     c80:	000a8513          	mv	a0,s5
     c84:	ee0ff0ef          	jal	0x364
     c88:	fffb8b93          	addi	s7,s7,-1
     c8c:	000a8513          	mv	a0,s5
     c90:	ed4ff0ef          	jal	0x364
     c94:	fffb8b93          	addi	s7,s7,-1
     c98:	000a8513          	mv	a0,s5
     c9c:	ec8ff0ef          	jal	0x364
     ca0:	fffb8b93          	addi	s7,s7,-1
     ca4:	000a8513          	mv	a0,s5
     ca8:	ebcff0ef          	jal	0x364
     cac:	fffb8b93          	addi	s7,s7,-1
     cb0:	000a8513          	mv	a0,s5
     cb4:	fffb8b93          	addi	s7,s7,-1
     cb8:	eacff0ef          	jal	0x364
     cbc:	040b8663          	beqz	s7,0xd08
     cc0:	000a8513          	mv	a0,s5
     cc4:	ea0ff0ef          	jal	0x364
     cc8:	000a8513          	mv	a0,s5
     ccc:	e98ff0ef          	jal	0x364
     cd0:	000a8513          	mv	a0,s5
     cd4:	e90ff0ef          	jal	0x364
     cd8:	000a8513          	mv	a0,s5
     cdc:	e88ff0ef          	jal	0x364
     ce0:	000a8513          	mv	a0,s5
     ce4:	e80ff0ef          	jal	0x364
     ce8:	000a8513          	mv	a0,s5
     cec:	e78ff0ef          	jal	0x364
     cf0:	000a8513          	mv	a0,s5
     cf4:	e70ff0ef          	jal	0x364
     cf8:	000a8513          	mv	a0,s5
     cfc:	ff8b8b93          	addi	s7,s7,-8
     d00:	e64ff0ef          	jal	0x364
     d04:	fa0b9ee3          	bnez	s7,0xcc0
     d08:	000c4503          	lbu	a0,0(s8)
     d0c:	e8050ae3          	beqz	a0,0xba0
     d10:	fff00a13          	li	s4,-1
     d14:	d8dff06f          	j	0xaa0
     d18:	007c8793          	addi	a5,s9,7
     d1c:	ff87f293          	andi	t0,a5,-8
     d20:	0002a403          	lw	s0,0(t0)
     d24:	0042ad03          	lw	s10,4(t0)
     d28:	00828c93          	addi	s9,t0,8
     d2c:	8b5ff06f          	j	0x5e0
     d30:	04100313          	li	t1,65
     d34:	01000a13          	li	s4,16
     d38:	00000c13          	li	s8,0
     d3c:	00612623          	sw	t1,12(sp)
     d40:	cc5ff06f          	j	0xa04
     d44:	01705663          	blez	s7,0xd50
     d48:	02d00413          	li	s0,45
     d4c:	ec8a92e3          	bne	s5,s0,0xc10
     d50:	000196b7          	lui	a3,0x19
     d54:	b6868c13          	addi	s8,a3,-1176 # 0x18b68
     d58:	02800513          	li	a0,40
     d5c:	fff00a13          	li	s4,-1
     d60:	d41ff06f          	j	0xaa0
     d64:	00060a63          	beqz	a2,0xd78
     d68:	00251503          	lh	a0,2(a0)
     d6c:	00259583          	lh	a1,2(a1)
     d70:	40b50533          	sub	a0,a0,a1
     d74:	00008067          	ret
     d78:	00051783          	lh	a5,0(a0)
     d7c:	01079713          	slli	a4,a5,0x10
     d80:	01075293          	srli	t0,a4,0x10
     d84:	f007f313          	andi	t1,a5,-256
     d88:	0082d393          	srli	t2,t0,0x8
     d8c:	00736633          	or	a2,t1,t2
     d90:	00c51023          	sh	a2,0(a0)
     d94:	00059683          	lh	a3,0(a1)
     d98:	00251503          	lh	a0,2(a0)
     d9c:	01069813          	slli	a6,a3,0x10
     da0:	01085893          	srli	a7,a6,0x10
     da4:	f006fe13          	andi	t3,a3,-256
     da8:	0088de93          	srli	t4,a7,0x8
     dac:	01de6f33          	or	t5,t3,t4
     db0:	01e59023          	sh	t5,0(a1)
     db4:	00259583          	lh	a1,2(a1)
     db8:	40b50533          	sub	a0,a0,a1
     dbc:	00008067          	ret
     dc0:	fe010113          	addi	sp,sp,-32
     dc4:	00812c23          	sw	s0,24(sp)
     dc8:	00051403          	lh	s0,0(a0)
     dcc:	00112e23          	sw	ra,28(sp)
     dd0:	40745793          	srai	a5,s0,0x7
     dd4:	0017f293          	andi	t0,a5,1
     dd8:	00028c63          	beqz	t0,0xdf0
     ddc:	01c12083          	lw	ra,28(sp)
     de0:	07f47513          	andi	a0,s0,127
     de4:	01812403          	lw	s0,24(sp)
     de8:	02010113          	addi	sp,sp,32
     dec:	00008067          	ret
     df0:	40345713          	srai	a4,s0,0x3
     df4:	00f77313          	andi	t1,a4,15
     df8:	00431393          	slli	t2,t1,0x4
     dfc:	00912a23          	sw	s1,20(sp)
     e00:	01312623          	sw	s3,12(sp)
     e04:	00730633          	add	a2,t1,t2
     e08:	01212823          	sw	s2,16(sp)
     e0c:	00747693          	andi	a3,s0,7
     e10:	0385d783          	lhu	a5,56(a1)
     e14:	00050993          	mv	s3,a0
     e18:	00058493          	mv	s1,a1
     e1c:	00060713          	mv	a4,a2
     e20:	08068263          	beqz	a3,0xea4
     e24:	00100813          	li	a6,1
     e28:	07069663          	bne	a3,a6,0xe94
     e2c:	00078613          	mv	a2,a5
     e30:	00070593          	mv	a1,a4
     e34:	02848513          	addi	a0,s1,40
     e38:	5f8020ef          	jal	0x3430
     e3c:	03c4d883          	lhu	a7,60(s1)
     e40:	01051e13          	slli	t3,a0,0x10
     e44:	410e5913          	srai	s2,t3,0x10
     e48:	08089863          	bnez	a7,0xed8
     e4c:	0384d783          	lhu	a5,56(s1)
     e50:	02a49e23          	sh	a0,60(s1)
     e54:	00078593          	mv	a1,a5
     e58:	520060ef          	jal	0x7378
     e5c:	00050f13          	mv	t5,a0
     e60:	f0047f93          	andi	t6,s0,-256
     e64:	07f97513          	andi	a0,s2,127
     e68:	01f56433          	or	s0,a0,t6
     e6c:	01c12083          	lw	ra,28(sp)
     e70:	08046793          	ori	a5,s0,128
     e74:	01812403          	lw	s0,24(sp)
     e78:	03e49c23          	sh	t5,56(s1)
     e7c:	00f99023          	sh	a5,0(s3)
     e80:	01412483          	lw	s1,20(sp)
     e84:	01012903          	lw	s2,16(sp)
     e88:	00c12983          	lw	s3,12(sp)
     e8c:	02010113          	addi	sp,sp,32
     e90:	00008067          	ret
     e94:	01041e93          	slli	t4,s0,0x10
     e98:	010ed513          	srli	a0,t4,0x10
     e9c:	00040913          	mv	s2,s0
     ea0:	fb5ff06f          	j	0xe54
     ea4:	02100513          	li	a0,33
     ea8:	00c56463          	bltu	a0,a2,0xeb0
     eac:	02200713          	li	a4,34
     eb0:	0144a583          	lw	a1,20(s1)
     eb4:	00249683          	lh	a3,2(s1)
     eb8:	00049603          	lh	a2,0(s1)
     ebc:	0184a503          	lw	a0,24(s1)
     ec0:	4a5020ef          	jal	0x3b64
     ec4:	03e4d583          	lhu	a1,62(s1)
     ec8:	01051913          	slli	s2,a0,0x10
     ecc:	41095913          	srai	s2,s2,0x10
     ed0:	00059463          	bnez	a1,0xed8
     ed4:	02a49f23          	sh	a0,62(s1)
     ed8:	0384d783          	lhu	a5,56(s1)
     edc:	f79ff06f          	j	0xe54
     ee0:	ff010113          	addi	sp,sp,-16
     ee4:	00912223          	sw	s1,4(sp)
     ee8:	00058493          	mv	s1,a1
     eec:	00060593          	mv	a1,a2
     ef0:	00112623          	sw	ra,12(sp)
     ef4:	00812423          	sw	s0,8(sp)
     ef8:	00060413          	mv	s0,a2
     efc:	ec5ff0ef          	jal	0xdc0
     f00:	00050793          	mv	a5,a0
     f04:	00040593          	mv	a1,s0
     f08:	00048513          	mv	a0,s1
     f0c:	00078413          	mv	s0,a5
     f10:	eb1ff0ef          	jal	0xdc0
     f14:	00c12083          	lw	ra,12(sp)
     f18:	40a40533          	sub	a0,s0,a0
     f1c:	00812403          	lw	s0,8(sp)
     f20:	00412483          	lw	s1,4(sp)
     f24:	01010113          	addi	sp,sp,16
     f28:	00008067          	ret
     f2c:	00059703          	lh	a4,0(a1)
     f30:	00259783          	lh	a5,2(a1)
     f34:	00e51023          	sh	a4,0(a0)
     f38:	00f51123          	sh	a5,2(a0)
     f3c:	00008067          	ret
     f40:	00062803          	lw	a6,0(a2)
     f44:	00880893          	addi	a7,a6,8
     f48:	04e8f663          	bgeu	a7,a4,0xf94
     f4c:	0006a703          	lw	a4,0(a3)
     f50:	00470313          	addi	t1,a4,4
     f54:	04f37063          	bgeu	t1,a5,0xf94
     f58:	01162023          	sw	a7,0(a2)
     f5c:	00052783          	lw	a5,0(a0)
     f60:	00059283          	lh	t0,0(a1)
     f64:	00259603          	lh	a2,2(a1)
     f68:	00f82023          	sw	a5,0(a6)
     f6c:	01052023          	sw	a6,0(a0)
     f70:	00e82223          	sw	a4,4(a6)
     f74:	0006a383          	lw	t2,0(a3)
     f78:	00438513          	addi	a0,t2,4
     f7c:	00a6a023          	sw	a0,0(a3)
     f80:	00482583          	lw	a1,4(a6)
     f84:	00080513          	mv	a0,a6
     f88:	00559023          	sh	t0,0(a1)
     f8c:	00c59123          	sh	a2,2(a1)
     f90:	00008067          	ret
     f94:	00000813          	li	a6,0
     f98:	00080513          	mv	a0,a6
     f9c:	00008067          	ret
     fa0:	00050793          	mv	a5,a0
     fa4:	00052503          	lw	a0,0(a0)
     fa8:	0047a683          	lw	a3,4(a5)
     fac:	00452603          	lw	a2,4(a0)
     fb0:	00052703          	lw	a4,0(a0)
     fb4:	00c7a223          	sw	a2,4(a5)
     fb8:	00d52223          	sw	a3,4(a0)
     fbc:	00e7a023          	sw	a4,0(a5)
     fc0:	00052023          	sw	zero,0(a0)
     fc4:	00008067          	ret
     fc8:	0045a603          	lw	a2,4(a1)
     fcc:	00452683          	lw	a3,4(a0)
     fd0:	0005a703          	lw	a4,0(a1)
     fd4:	00c52223          	sw	a2,4(a0)
     fd8:	00d5a223          	sw	a3,4(a1)
     fdc:	00e52023          	sw	a4,0(a0)
     fe0:	00a5a023          	sw	a0,0(a1)
     fe4:	00008067          	ret
     fe8:	00259603          	lh	a2,2(a1)
     fec:	02064263          	bltz	a2,0x1010
     ff0:	00051863          	bnez	a0,0x1000
     ff4:	00008067          	ret
     ff8:	00052503          	lw	a0,0(a0)
     ffc:	02050c63          	beqz	a0,0x1034
    1000:	00452303          	lw	t1,4(a0)
    1004:	00231383          	lh	t2,2(t1)
    1008:	fec398e3          	bne	t2,a2,0xff8
    100c:	00008067          	ret
    1010:	02050263          	beqz	a0,0x1034
    1014:	00059703          	lh	a4,0(a1)
    1018:	00c0006f          	j	0x1024
    101c:	00052503          	lw	a0,0(a0)
    1020:	00050c63          	beqz	a0,0x1038
    1024:	00452783          	lw	a5,4(a0)
    1028:	0007c283          	lbu	t0,0(a5)
    102c:	fee298e3          	bne	t0,a4,0x101c
    1030:	00008067          	ret
    1034:	00000513          	li	a0,0
    1038:	00008067          	ret
    103c:	02050063          	beqz	a0,0x105c
    1040:	00000713          	li	a4,0
    1044:	0080006f          	j	0x104c
    1048:	00078513          	mv	a0,a5
    104c:	00052783          	lw	a5,0(a0)
    1050:	00e52023          	sw	a4,0(a0)
    1054:	00050713          	mv	a4,a0
    1058:	fe0798e3          	bnez	a5,0x1048
    105c:	00008067          	ret
    1060:	fd010113          	addi	sp,sp,-48
    1064:	01312e23          	sw	s3,28(sp)
    1068:	01512a23          	sw	s5,20(sp)
    106c:	01612823          	sw	s6,16(sp)
    1070:	01712623          	sw	s7,12(sp)
    1074:	01912223          	sw	s9,4(sp)
    1078:	00100b93          	li	s7,1
    107c:	02112623          	sw	ra,44(sp)
    1080:	02812423          	sw	s0,40(sp)
    1084:	02912223          	sw	s1,36(sp)
    1088:	03212023          	sw	s2,32(sp)
    108c:	01412c23          	sw	s4,24(sp)
    1090:	01812423          	sw	s8,8(sp)
    1094:	01a12023          	sw	s10,0(sp)
    1098:	00050993          	mv	s3,a0
    109c:	00058b13          	mv	s6,a1
    10a0:	00060a93          	mv	s5,a2
    10a4:	000b8c93          	mv	s9,s7
    10a8:	1c098863          	beqz	s3,0x1278
    10ac:	00000c13          	li	s8,0
    10b0:	00000493          	li	s1,0
    10b4:	00000a13          	li	s4,0
    10b8:	007bf713          	andi	a4,s7,7
    10bc:	001c0c13          	addi	s8,s8,1
    10c0:	00098793          	mv	a5,s3
    10c4:	00000413          	li	s0,0
    10c8:	08070463          	beqz	a4,0x1150
    10cc:	0f705663          	blez	s7,0x11b8
    10d0:	0009a783          	lw	a5,0(s3)
    10d4:	00100413          	li	s0,1
    10d8:	0e078063          	beqz	a5,0x11b8
    10dc:	06870a63          	beq	a4,s0,0x1150
    10e0:	00200693          	li	a3,2
    10e4:	06d70063          	beq	a4,a3,0x1144
    10e8:	00300613          	li	a2,3
    10ec:	04c70663          	beq	a4,a2,0x1138
    10f0:	00400293          	li	t0,4
    10f4:	02570c63          	beq	a4,t0,0x112c
    10f8:	00500313          	li	t1,5
    10fc:	02670263          	beq	a4,t1,0x1120
    1100:	00600393          	li	t2,6
    1104:	00770863          	beq	a4,t2,0x1114
    1108:	0007a783          	lw	a5,0(a5)
    110c:	00068413          	mv	s0,a3
    1110:	0a078463          	beqz	a5,0x11b8
    1114:	0007a783          	lw	a5,0(a5)
    1118:	00140413          	addi	s0,s0,1
    111c:	08078e63          	beqz	a5,0x11b8
    1120:	0007a783          	lw	a5,0(a5)
    1124:	00140413          	addi	s0,s0,1
    1128:	08078863          	beqz	a5,0x11b8
    112c:	0007a783          	lw	a5,0(a5)
    1130:	00140413          	addi	s0,s0,1
    1134:	08078263          	beqz	a5,0x11b8
    1138:	0007a783          	lw	a5,0(a5)
    113c:	00140413          	addi	s0,s0,1
    1140:	06078c63          	beqz	a5,0x11b8
    1144:	0007a783          	lw	a5,0(a5)
    1148:	00140413          	addi	s0,s0,1
    114c:	06078663          	beqz	a5,0x11b8
    1150:	07745463          	bge	s0,s7,0x11b8
    1154:	0007a783          	lw	a5,0(a5)
    1158:	00140413          	addi	s0,s0,1
    115c:	00040513          	mv	a0,s0
    1160:	04078c63          	beqz	a5,0x11b8
    1164:	0007a783          	lw	a5,0(a5)
    1168:	00140413          	addi	s0,s0,1
    116c:	04078663          	beqz	a5,0x11b8
    1170:	0007a783          	lw	a5,0(a5)
    1174:	00250413          	addi	s0,a0,2
    1178:	04078063          	beqz	a5,0x11b8
    117c:	0007a783          	lw	a5,0(a5)
    1180:	00350413          	addi	s0,a0,3
    1184:	02078a63          	beqz	a5,0x11b8
    1188:	0007a783          	lw	a5,0(a5)
    118c:	00450413          	addi	s0,a0,4
    1190:	02078463          	beqz	a5,0x11b8
    1194:	0007a783          	lw	a5,0(a5)
    1198:	00550413          	addi	s0,a0,5
    119c:	00078e63          	beqz	a5,0x11b8
    11a0:	0007a783          	lw	a5,0(a5)
    11a4:	00650413          	addi	s0,a0,6
    11a8:	00078863          	beqz	a5,0x11b8
    11ac:	0007a783          	lw	a5,0(a5)
    11b0:	00750413          	addi	s0,a0,7
    11b4:	f8079ee3          	bnez	a5,0x1150
    11b8:	00048913          	mv	s2,s1
    11bc:	000b8d13          	mv	s10,s7
    11c0:	00098493          	mv	s1,s3
    11c4:	00078993          	mv	s3,a5
    11c8:	02805463          	blez	s0,0x11f0
    11cc:	060d0063          	beqz	s10,0x122c
    11d0:	02099663          	bnez	s3,0x11fc
    11d4:	00048e13          	mv	t3,s1
    11d8:	fff40413          	addi	s0,s0,-1
    11dc:	0004a483          	lw	s1,0(s1)
    11e0:	04090063          	beqz	s2,0x1220
    11e4:	01c92023          	sw	t3,0(s2)
    11e8:	000e0913          	mv	s2,t3
    11ec:	fe8040e3          	bgtz	s0,0x11cc
    11f0:	31a05063          	blez	s10,0x14f0
    11f4:	06098863          	beqz	s3,0x1264
    11f8:	08040463          	beqz	s0,0x1280
    11fc:	0049a583          	lw	a1,4(s3)
    1200:	0044a503          	lw	a0,4(s1)
    1204:	000a8613          	mv	a2,s5
    1208:	000b00e7          	jalr	s6
    120c:	fca054e3          	blez	a0,0x11d4
    1210:	00098e13          	mv	t3,s3
    1214:	fffd0d13          	addi	s10,s10,-1
    1218:	0009a983          	lw	s3,0(s3)
    121c:	fc0914e3          	bnez	s2,0x11e4
    1220:	000e0a13          	mv	s4,t3
    1224:	000e0913          	mv	s2,t3
    1228:	fc5ff06f          	j	0x11ec
    122c:	0004ae83          	lw	t4,0(s1)
    1230:	fff40413          	addi	s0,s0,-1
    1234:	02090063          	beqz	s2,0x1254
    1238:	00992023          	sw	s1,0(s2)
    123c:	02040063          	beqz	s0,0x125c
    1240:	00048913          	mv	s2,s1
    1244:	000e8493          	mv	s1,t4
    1248:	0004ae83          	lw	t4,0(s1)
    124c:	fff40413          	addi	s0,s0,-1
    1250:	fe0914e3          	bnez	s2,0x1238
    1254:	00048a13          	mv	s4,s1
    1258:	fe0414e3          	bnez	s0,0x1240
    125c:	e4099ee3          	bnez	s3,0x10b8
    1260:	00048913          	mv	s2,s1
    1264:	00092023          	sw	zero,0(s2)
    1268:	259c0663          	beq	s8,s9,0x14b4
    126c:	000a0993          	mv	s3,s4
    1270:	001b9b93          	slli	s7,s7,0x1
    1274:	e2099ce3          	bnez	s3,0x10ac
    1278:	00002023          	sw	zero,0(zero) # 0x0
    127c:	00100073          	ebreak
    1280:	fffd0593          	addi	a1,s10,-1
    1284:	0075f813          	andi	a6,a1,7
    1288:	0e080a63          	beqz	a6,0x137c
    128c:	0009a883          	lw	a7,0(s3)
    1290:	00058d13          	mv	s10,a1
    1294:	1e090863          	beqz	s2,0x1484
    1298:	01392023          	sw	s3,0(s2)
    129c:	00098913          	mv	s2,s3
    12a0:	fc0882e3          	beqz	a7,0x1264
    12a4:	00100e13          	li	t3,1
    12a8:	00088993          	mv	s3,a7
    12ac:	0dc80863          	beq	a6,t3,0x137c
    12b0:	00200e93          	li	t4,2
    12b4:	0bd80663          	beq	a6,t4,0x1360
    12b8:	00300f13          	li	t5,3
    12bc:	09e80463          	beq	a6,t5,0x1344
    12c0:	00400f93          	li	t6,4
    12c4:	07f80263          	beq	a6,t6,0x1328
    12c8:	00500713          	li	a4,5
    12cc:	04e80063          	beq	a6,a4,0x130c
    12d0:	00600693          	li	a3,6
    12d4:	00d80e63          	beq	a6,a3,0x12f0
    12d8:	0008a983          	lw	s3,0(a7)
    12dc:	fffd0d13          	addi	s10,s10,-1
    12e0:	20090e63          	beqz	s2,0x14fc
    12e4:	01192023          	sw	a7,0(s2)
    12e8:	00088913          	mv	s2,a7
    12ec:	f6098ce3          	beqz	s3,0x1264
    12f0:	0009a603          	lw	a2,0(s3)
    12f4:	fffd0d13          	addi	s10,s10,-1
    12f8:	1a090a63          	beqz	s2,0x14ac
    12fc:	01392023          	sw	s3,0(s2)
    1300:	00098913          	mv	s2,s3
    1304:	f60600e3          	beqz	a2,0x1264
    1308:	00060993          	mv	s3,a2
    130c:	0009a283          	lw	t0,0(s3)
    1310:	fffd0d13          	addi	s10,s10,-1
    1314:	18090863          	beqz	s2,0x14a4
    1318:	01392023          	sw	s3,0(s2)
    131c:	00098913          	mv	s2,s3
    1320:	f40282e3          	beqz	t0,0x1264
    1324:	00028993          	mv	s3,t0
    1328:	0009a303          	lw	t1,0(s3)
    132c:	fffd0d13          	addi	s10,s10,-1
    1330:	16090663          	beqz	s2,0x149c
    1334:	01392023          	sw	s3,0(s2)
    1338:	00098913          	mv	s2,s3
    133c:	f20304e3          	beqz	t1,0x1264
    1340:	00030993          	mv	s3,t1
    1344:	0009a383          	lw	t2,0(s3)
    1348:	fffd0d13          	addi	s10,s10,-1
    134c:	14090463          	beqz	s2,0x1494
    1350:	01392023          	sw	s3,0(s2)
    1354:	00098913          	mv	s2,s3
    1358:	f00386e3          	beqz	t2,0x1264
    135c:	00038993          	mv	s3,t2
    1360:	0009a503          	lw	a0,0(s3)
    1364:	fffd0d13          	addi	s10,s10,-1
    1368:	12090263          	beqz	s2,0x148c
    136c:	01392023          	sw	s3,0(s2)
    1370:	00098913          	mv	s2,s3
    1374:	ee0508e3          	beqz	a0,0x1264
    1378:	00050993          	mv	s3,a0
    137c:	0009a783          	lw	a5,0(s3)
    1380:	fffd0d13          	addi	s10,s10,-1
    1384:	0a090863          	beqz	s2,0x1434
    1388:	01392023          	sw	s3,0(s2)
    138c:	0a0d0863          	beqz	s10,0x143c
    1390:	00098913          	mv	s2,s3
    1394:	ec0788e3          	beqz	a5,0x1264
    1398:	0007a403          	lw	s0,0(a5)
    139c:	0a098863          	beqz	s3,0x144c
    13a0:	00f9a023          	sw	a5,0(s3)
    13a4:	00078913          	mv	s2,a5
    13a8:	ea040ee3          	beqz	s0,0x1264
    13ac:	00042983          	lw	s3,0(s0)
    13b0:	0a078263          	beqz	a5,0x1454
    13b4:	0087a023          	sw	s0,0(a5)
    13b8:	00040913          	mv	s2,s0
    13bc:	ea0984e3          	beqz	s3,0x1264
    13c0:	0009a483          	lw	s1,0(s3)
    13c4:	08040c63          	beqz	s0,0x145c
    13c8:	01342023          	sw	s3,0(s0)
    13cc:	00098913          	mv	s2,s3
    13d0:	e8048ae3          	beqz	s1,0x1264
    13d4:	0004a583          	lw	a1,0(s1)
    13d8:	08098663          	beqz	s3,0x1464
    13dc:	0099a023          	sw	s1,0(s3)
    13e0:	00048913          	mv	s2,s1
    13e4:	e80580e3          	beqz	a1,0x1264
    13e8:	0005a803          	lw	a6,0(a1)
    13ec:	08048063          	beqz	s1,0x146c
    13f0:	00b4a023          	sw	a1,0(s1)
    13f4:	00058913          	mv	s2,a1
    13f8:	e60806e3          	beqz	a6,0x1264
    13fc:	00082883          	lw	a7,0(a6)
    1400:	06058a63          	beqz	a1,0x1474
    1404:	0105a023          	sw	a6,0(a1)
    1408:	00080913          	mv	s2,a6
    140c:	e4088ce3          	beqz	a7,0x1264
    1410:	0008a983          	lw	s3,0(a7)
    1414:	ff9d0d13          	addi	s10,s10,-7
    1418:	06080263          	beqz	a6,0x147c
    141c:	01182023          	sw	a7,0(a6)
    1420:	00088913          	mv	s2,a7
    1424:	e40980e3          	beqz	s3,0x1264
    1428:	0009a783          	lw	a5,0(s3)
    142c:	fffd0d13          	addi	s10,s10,-1
    1430:	f4091ce3          	bnez	s2,0x1388
    1434:	00098a13          	mv	s4,s3
    1438:	f40d1ce3          	bnez	s10,0x1390
    143c:	00098493          	mv	s1,s3
    1440:	00078993          	mv	s3,a5
    1444:	c6099ae3          	bnez	s3,0x10b8
    1448:	e19ff06f          	j	0x1260
    144c:	00078a13          	mv	s4,a5
    1450:	f55ff06f          	j	0x13a4
    1454:	00040a13          	mv	s4,s0
    1458:	f61ff06f          	j	0x13b8
    145c:	00098a13          	mv	s4,s3
    1460:	f6dff06f          	j	0x13cc
    1464:	00048a13          	mv	s4,s1
    1468:	f79ff06f          	j	0x13e0
    146c:	00058a13          	mv	s4,a1
    1470:	f85ff06f          	j	0x13f4
    1474:	00080a13          	mv	s4,a6
    1478:	f91ff06f          	j	0x1408
    147c:	00088a13          	mv	s4,a7
    1480:	fa1ff06f          	j	0x1420
    1484:	00098a13          	mv	s4,s3
    1488:	e15ff06f          	j	0x129c
    148c:	00098a13          	mv	s4,s3
    1490:	ee1ff06f          	j	0x1370
    1494:	00098a13          	mv	s4,s3
    1498:	ebdff06f          	j	0x1354
    149c:	00098a13          	mv	s4,s3
    14a0:	e99ff06f          	j	0x1338
    14a4:	00098a13          	mv	s4,s3
    14a8:	e75ff06f          	j	0x131c
    14ac:	00098a13          	mv	s4,s3
    14b0:	e51ff06f          	j	0x1300
    14b4:	02c12083          	lw	ra,44(sp)
    14b8:	02812403          	lw	s0,40(sp)
    14bc:	02412483          	lw	s1,36(sp)
    14c0:	02012903          	lw	s2,32(sp)
    14c4:	01c12983          	lw	s3,28(sp)
    14c8:	01412a83          	lw	s5,20(sp)
    14cc:	01012b03          	lw	s6,16(sp)
    14d0:	00c12b83          	lw	s7,12(sp)
    14d4:	00812c03          	lw	s8,8(sp)
    14d8:	00412c83          	lw	s9,4(sp)
    14dc:	00012d03          	lw	s10,0(sp)
    14e0:	000a0513          	mv	a0,s4
    14e4:	01812a03          	lw	s4,24(sp)
    14e8:	03010113          	addi	sp,sp,48
    14ec:	00008067          	ret
    14f0:	00090493          	mv	s1,s2
    14f4:	bc0992e3          	bnez	s3,0x10b8
    14f8:	d69ff06f          	j	0x1260
    14fc:	00088a13          	mv	s4,a7
    1500:	de9ff06f          	j	0x12e8
    1504:	00050613          	mv	a2,a0
    1508:	00451503          	lh	a0,4(a0)
    150c:	fe010113          	addi	sp,sp,-32
    1510:	00812c23          	sw	s0,24(sp)
    1514:	01412423          	sw	s4,8(sp)
    1518:	00112e23          	sw	ra,28(sp)
    151c:	00912a23          	sw	s1,20(sp)
    1520:	01212823          	sw	s2,16(sp)
    1524:	01312623          	sw	s3,12(sp)
    1528:	01512223          	sw	s5,4(sp)
    152c:	02462403          	lw	s0,36(a2)
    1530:	00000a13          	li	s4,0
    1534:	2ca05063          	blez	a0,0x17f4
    1538:	2c05c463          	bltz	a1,0x1800
    153c:	2e040463          	beqz	s0,0x1824
    1540:	00058993          	mv	s3,a1
    1544:	00000e13          	li	t3,0
    1548:	00000f13          	li	t5,0
    154c:	00000e93          	li	t4,0
    1550:	00000313          	li	t1,0
    1554:	00040793          	mv	a5,s0
    1558:	00c0006f          	j	0x1564
    155c:	0007a783          	lw	a5,0(a5)
    1560:	10078863          	beqz	a5,0x1670
    1564:	0047a703          	lw	a4,4(a5)
    1568:	00271803          	lh	a6,2(a4)
    156c:	ff3818e3          	bne	a6,s3,0x155c
    1570:	00000293          	li	t0,0
    1574:	0080006f          	j	0x157c
    1578:	00068413          	mv	s0,a3
    157c:	00042683          	lw	a3,0(s0)
    1580:	00542023          	sw	t0,0(s0)
    1584:	00028893          	mv	a7,t0
    1588:	00040293          	mv	t0,s0
    158c:	fe0696e3          	bnez	a3,0x1578
    1590:	0e078463          	beqz	a5,0x1678
    1594:	0047a383          	lw	t2,4(a5)
    1598:	00039483          	lh	s1,0(t2)
    159c:	0014f913          	andi	s2,s1,1
    15a0:	00090c63          	beqz	s2,0x15b8
    15a4:	4094d993          	srai	s3,s1,0x9
    15a8:	0019fa93          	andi	s5,s3,1
    15ac:	01530333          	add	t1,t1,s5
    15b0:	01031f93          	slli	t6,t1,0x10
    15b4:	010fd313          	srli	t1,t6,0x10
    15b8:	0007a703          	lw	a4,0(a5)
    15bc:	00070c63          	beqz	a4,0x15d4
    15c0:	00072683          	lw	a3,0(a4)
    15c4:	00d7a023          	sw	a3,0(a5)
    15c8:	00042783          	lw	a5,0(s0)
    15cc:	00f72023          	sw	a5,0(a4)
    15d0:	00e42023          	sw	a4,0(s0)
    15d4:	001e8e93          	addi	t4,t4,1
    15d8:	010e9893          	slli	a7,t4,0x10
    15dc:	0108de93          	srli	t4,a7,0x10
    15e0:	06084663          	bltz	a6,0x164c
    15e4:	001e0793          	addi	a5,t3,1
    15e8:	01079893          	slli	a7,a5,0x10
    15ec:	00180813          	addi	a6,a6,1
    15f0:	01081293          	slli	t0,a6,0x10
    15f4:	01079393          	slli	t2,a5,0x10
    15f8:	4108de13          	srai	t3,a7,0x10
    15fc:	4102d993          	srai	s3,t0,0x10
    1600:	0103d493          	srli	s1,t2,0x10
    1604:	0bc50063          	beq	a0,t3,0x16a4
    1608:	0ff4fa13          	zext.b	s4,s1
    160c:	000a0f93          	mv	t6,s4
    1610:	00040793          	mv	a5,s0
    1614:	ffff8837          	lui	a6,0xffff8
    1618:	f209dee3          	bgez	s3,0x1554
    161c:	0047a683          	lw	a3,4(a5)
    1620:	0006ca03          	lbu	s4,0(a3)
    1624:	f5fa06e3          	beq	s4,t6,0x1570
    1628:	0007a783          	lw	a5,0(a5)
    162c:	00078c63          	beqz	a5,0x1644
    1630:	0047a683          	lw	a3,4(a5)
    1634:	0006ca03          	lbu	s4,0(a3)
    1638:	f3fa0ce3          	beq	s4,t6,0x1570
    163c:	0007a783          	lw	a5,0(a5)
    1640:	fe0798e3          	bnez	a5,0x1630
    1644:	000f8a13          	mv	s4,t6
    1648:	f29ff06f          	j	0x1570
    164c:	001e0f93          	addi	t6,t3,1
    1650:	010f9e13          	slli	t3,t6,0x10
    1654:	010f9713          	slli	a4,t6,0x10
    1658:	410e5e13          	srai	t3,t3,0x10
    165c:	01075693          	srli	a3,a4,0x10
    1660:	05c50063          	beq	a0,t3,0x16a0
    1664:	0ff6ff93          	zext.b	t6,a3
    1668:	00040793          	mv	a5,s0
    166c:	fc5ff06f          	j	0x1630
    1670:	00098813          	mv	a6,s3
    1674:	efdff06f          	j	0x1570
    1678:	0048a283          	lw	t0,4(a7)
    167c:	001f0f13          	addi	t5,t5,1
    1680:	010f1393          	slli	t2,t5,0x10
    1684:	00128483          	lb	s1,1(t0)
    1688:	0103df13          	srli	t5,t2,0x10
    168c:	0014f913          	andi	s2,s1,1
    1690:	012309b3          	add	s3,t1,s2
    1694:	01099a93          	slli	s5,s3,0x10
    1698:	010ad313          	srli	t1,s5,0x10
    169c:	f45ff06f          	j	0x15e0
    16a0:	00080993          	mv	s3,a6
    16a4:	002e9513          	slli	a0,t4,0x2
    16a8:	41e50eb3          	sub	t4,a0,t5
    16ac:	01d30333          	add	t1,t1,t4
    16b0:	01031f13          	slli	t5,t1,0x10
    16b4:	010f5493          	srli	s1,t5,0x10
    16b8:	00b05c63          	blez	a1,0x16d0
    16bc:	000015b7          	lui	a1,0x1
    16c0:	00040513          	mv	a0,s0
    16c4:	ee058593          	addi	a1,a1,-288 # 0xee0
    16c8:	999ff0ef          	jal	0x1060
    16cc:	00050413          	mv	s0,a0
    16d0:	00042f83          	lw	t6,0(s0)
    16d4:	00040913          	mv	s2,s0
    16d8:	000faa83          	lw	s5,0(t6)
    16dc:	004fa703          	lw	a4,4(t6)
    16e0:	004aa603          	lw	a2,4(s5)
    16e4:	000aa683          	lw	a3,0(s5)
    16e8:	00cfa223          	sw	a2,4(t6)
    16ec:	00eaa223          	sw	a4,4(s5)
    16f0:	00dfa023          	sw	a3,0(t6)
    16f4:	000aa023          	sw	zero,0(s5)
    16f8:	0009d863          	bgez	s3,0x1708
    16fc:	0c00006f          	j	0x17bc
    1700:	00092903          	lw	s2,0(s2)
    1704:	0c090463          	beqz	s2,0x17cc
    1708:	00492883          	lw	a7,4(s2)
    170c:	00289e03          	lh	t3,2(a7)
    1710:	ff3e18e3          	bne	t3,s3,0x1700
    1714:	00442803          	lw	a6,4(s0)
    1718:	00048593          	mv	a1,s1
    171c:	00081503          	lh	a0,0(a6) # 0xffff8000
    1720:	34c060ef          	jal	0x7a6c
    1724:	00092903          	lw	s2,0(s2)
    1728:	00050493          	mv	s1,a0
    172c:	fe0914e3          	bnez	s2,0x1714
    1730:	00042903          	lw	s2,0(s0)
    1734:	004aa703          	lw	a4,4(s5)
    1738:	00492283          	lw	t0,4(s2)
    173c:	00092383          	lw	t2,0(s2)
    1740:	00001eb7          	lui	t4,0x1
    1744:	005aa223          	sw	t0,4(s5)
    1748:	00e92223          	sw	a4,4(s2)
    174c:	007aa023          	sw	t2,0(s5)
    1750:	00040513          	mv	a0,s0
    1754:	01592023          	sw	s5,0(s2)
    1758:	d64e8593          	addi	a1,t4,-668 # 0xd64
    175c:	00000613          	li	a2,0
    1760:	901ff0ef          	jal	0x1060
    1764:	00052403          	lw	s0,0(a0)
    1768:	00050a13          	mv	s4,a0
    176c:	02040063          	beqz	s0,0x178c
    1770:	004a2503          	lw	a0,4(s4)
    1774:	00048593          	mv	a1,s1
    1778:	00051503          	lh	a0,0(a0)
    177c:	2f0060ef          	jal	0x7a6c
    1780:	00042403          	lw	s0,0(s0)
    1784:	00050493          	mv	s1,a0
    1788:	fe0414e3          	bnez	s0,0x1770
    178c:	01c12083          	lw	ra,28(sp)
    1790:	01812403          	lw	s0,24(sp)
    1794:	01012903          	lw	s2,16(sp)
    1798:	00c12983          	lw	s3,12(sp)
    179c:	00812a03          	lw	s4,8(sp)
    17a0:	00412a83          	lw	s5,4(sp)
    17a4:	00048513          	mv	a0,s1
    17a8:	01412483          	lw	s1,20(sp)
    17ac:	02010113          	addi	sp,sp,32
    17b0:	00008067          	ret
    17b4:	00092903          	lw	s2,0(s2)
    17b8:	00090a63          	beqz	s2,0x17cc
    17bc:	00492983          	lw	s3,4(s2)
    17c0:	0009c783          	lbu	a5,0(s3)
    17c4:	fefa18e3          	bne	s4,a5,0x17b4
    17c8:	f4dff06f          	j	0x1714
    17cc:	00042903          	lw	s2,0(s0)
    17d0:	f60904e3          	beqz	s2,0x1738
    17d4:	00442803          	lw	a6,4(s0)
    17d8:	00048593          	mv	a1,s1
    17dc:	00081503          	lh	a0,0(a6)
    17e0:	28c060ef          	jal	0x7a6c
    17e4:	00092903          	lw	s2,0(s2)
    17e8:	00050493          	mv	s1,a0
    17ec:	f20914e3          	bnez	s2,0x1714
    17f0:	f41ff06f          	j	0x1730
    17f4:	00058993          	mv	s3,a1
    17f8:	00000493          	li	s1,0
    17fc:	ebdff06f          	j	0x16b8
    1800:	02040263          	beqz	s0,0x1824
    1804:	00058813          	mv	a6,a1
    1808:	00040793          	mv	a5,s0
    180c:	00000313          	li	t1,0
    1810:	00000e13          	li	t3,0
    1814:	00000f93          	li	t6,0
    1818:	00000f13          	li	t5,0
    181c:	00000e93          	li	t4,0
    1820:	e11ff06f          	j	0x1630
    1824:	00002783          	lw	a5,0(zero) # 0x0
    1828:	00100073          	ebreak
    182c:	fe010113          	addi	sp,sp,-32
    1830:	01212823          	sw	s2,16(sp)
    1834:	00058913          	mv	s2,a1
    1838:	01400593          	li	a1,20
    183c:	00812c23          	sw	s0,24(sp)
    1840:	01312623          	sw	s3,12(sp)
    1844:	00112e23          	sw	ra,28(sp)
    1848:	00912a23          	sw	s1,20(sp)
    184c:	00060993          	mv	s3,a2
    1850:	081040ef          	jal	0x60d0
    1854:	ffe50513          	addi	a0,a0,-2
    1858:	00351693          	slli	a3,a0,0x3
    185c:	00d902b3          	add	t0,s2,a3
    1860:	ffff87b7          	lui	a5,0xffff8
    1864:	00092023          	sw	zero,0(s2)
    1868:	00592223          	sw	t0,4(s2)
    186c:	08078313          	addi	t1,a5,128 # 0xffff8080
    1870:	00251813          	slli	a6,a0,0x2
    1874:	00029123          	sh	zero,2(t0)
    1878:	00629023          	sh	t1,0(t0)
    187c:	01090793          	addi	a5,s2,16
    1880:	010283b3          	add	t2,t0,a6
    1884:	00428593          	addi	a1,t0,4
    1888:	00890413          	addi	s0,s2,8
    188c:	3457fa63          	bgeu	a5,t0,0x1be0
    1890:	00828713          	addi	a4,t0,8
    1894:	34777663          	bgeu	a4,t2,0x1be0
    1898:	ffff8637          	lui	a2,0xffff8
    189c:	00092423          	sw	zero,8(s2)
    18a0:	00892023          	sw	s0,0(s2)
    18a4:	00b92623          	sw	a1,12(s2)
    18a8:	fff64493          	not	s1,a2
    18ac:	fff00893          	li	a7,-1
    18b0:	00929323          	sh	s1,6(t0)
    18b4:	01129223          	sh	a7,4(t0)
    18b8:	28050663          	beqz	a0,0x1b44
    18bc:	ffff8e37          	lui	t3,0xffff8
    18c0:	01099f13          	slli	t5,s3,0x10
    18c4:	00357e93          	andi	t4,a0,3
    18c8:	fffe4f93          	not	t6,t3
    18cc:	010f5693          	srli	a3,t5,0x10
    18d0:	00000593          	li	a1,0
    18d4:	100e8663          	beqz	t4,0x19e0
    18d8:	00100313          	li	t1,1
    18dc:	0a6e8463          	beq	t4,t1,0x1984
    18e0:	00200813          	li	a6,2
    18e4:	050e8463          	beq	t4,a6,0x192c
    18e8:	00878593          	addi	a1,a5,8
    18ec:	0255fe63          	bgeu	a1,t0,0x1928
    18f0:	00470493          	addi	s1,a4,4
    18f4:	0274fa63          	bgeu	s1,t2,0x1928
    18f8:	00369613          	slli	a2,a3,0x3
    18fc:	0087a023          	sw	s0,0(a5)
    1900:	07867413          	andi	s0,a2,120
    1904:	00f92023          	sw	a5,0(s2)
    1908:	00841893          	slli	a7,s0,0x8
    190c:	00e7a223          	sw	a4,4(a5)
    1910:	01140e33          	add	t3,s0,a7
    1914:	01f71123          	sh	t6,2(a4)
    1918:	00078413          	mv	s0,a5
    191c:	01c71023          	sh	t3,0(a4)
    1920:	00058793          	mv	a5,a1
    1924:	00048713          	mv	a4,s1
    1928:	00100593          	li	a1,1
    192c:	00878e93          	addi	t4,a5,8
    1930:	045ef863          	bgeu	t4,t0,0x1980
    1934:	00470f13          	addi	t5,a4,4
    1938:	047f7463          	bgeu	t5,t2,0x1980
    193c:	01059313          	slli	t1,a1,0x10
    1940:	01035813          	srli	a6,t1,0x10
    1944:	00d844b3          	xor	s1,a6,a3
    1948:	00349613          	slli	a2,s1,0x3
    194c:	0087a023          	sw	s0,0(a5)
    1950:	00787893          	andi	a7,a6,7
    1954:	07867413          	andi	s0,a2,120
    1958:	01146333          	or	t1,s0,a7
    195c:	00f92023          	sw	a5,0(s2)
    1960:	00831e13          	slli	t3,t1,0x8
    1964:	00e7a223          	sw	a4,4(a5)
    1968:	01c30833          	add	a6,t1,t3
    196c:	01f71123          	sh	t6,2(a4)
    1970:	00078413          	mv	s0,a5
    1974:	01071023          	sh	a6,0(a4)
    1978:	000e8793          	mv	a5,t4
    197c:	000f0713          	mv	a4,t5
    1980:	00158593          	addi	a1,a1,1
    1984:	00878e93          	addi	t4,a5,8
    1988:	045ef863          	bgeu	t4,t0,0x19d8
    198c:	00470f13          	addi	t5,a4,4
    1990:	047f7463          	bgeu	t5,t2,0x19d8
    1994:	01059493          	slli	s1,a1,0x10
    1998:	0104d893          	srli	a7,s1,0x10
    199c:	00d8c633          	xor	a2,a7,a3
    19a0:	0087a023          	sw	s0,0(a5)
    19a4:	00361413          	slli	s0,a2,0x3
    19a8:	07847313          	andi	t1,s0,120
    19ac:	0078fe13          	andi	t3,a7,7
    19b0:	01c36833          	or	a6,t1,t3
    19b4:	00f92023          	sw	a5,0(s2)
    19b8:	00881493          	slli	s1,a6,0x8
    19bc:	00e7a223          	sw	a4,4(a5)
    19c0:	009808b3          	add	a7,a6,s1
    19c4:	01f71123          	sh	t6,2(a4)
    19c8:	00078413          	mv	s0,a5
    19cc:	01171023          	sh	a7,0(a4)
    19d0:	000e8793          	mv	a5,t4
    19d4:	000f0713          	mv	a4,t5
    19d8:	00158593          	addi	a1,a1,1
    19dc:	16b50463          	beq	a0,a1,0x1b44
    19e0:	00878e93          	addi	t4,a5,8
    19e4:	045ef863          	bgeu	t4,t0,0x1a34
    19e8:	00470f13          	addi	t5,a4,4
    19ec:	047f7463          	bgeu	t5,t2,0x1a34
    19f0:	01059613          	slli	a2,a1,0x10
    19f4:	01065313          	srli	t1,a2,0x10
    19f8:	0087a023          	sw	s0,0(a5)
    19fc:	00d34433          	xor	s0,t1,a3
    1a00:	00341e13          	slli	t3,s0,0x3
    1a04:	00737493          	andi	s1,t1,7
    1a08:	078e7813          	andi	a6,t3,120
    1a0c:	009868b3          	or	a7,a6,s1
    1a10:	00f92023          	sw	a5,0(s2)
    1a14:	00889613          	slli	a2,a7,0x8
    1a18:	00e7a223          	sw	a4,4(a5)
    1a1c:	00c88333          	add	t1,a7,a2
    1a20:	01f71123          	sh	t6,2(a4)
    1a24:	00078413          	mv	s0,a5
    1a28:	00671023          	sh	t1,0(a4)
    1a2c:	000e8793          	mv	a5,t4
    1a30:	000f0713          	mv	a4,t5
    1a34:	00878e93          	addi	t4,a5,8
    1a38:	00158e13          	addi	t3,a1,1
    1a3c:	045ef863          	bgeu	t4,t0,0x1a8c
    1a40:	00470f13          	addi	t5,a4,4
    1a44:	047f7463          	bgeu	t5,t2,0x1a8c
    1a48:	010e1593          	slli	a1,t3,0x10
    1a4c:	0105d813          	srli	a6,a1,0x10
    1a50:	0087a023          	sw	s0,0(a5)
    1a54:	00d84433          	xor	s0,a6,a3
    1a58:	00341493          	slli	s1,s0,0x3
    1a5c:	00787613          	andi	a2,a6,7
    1a60:	0784f893          	andi	a7,s1,120
    1a64:	00c8e333          	or	t1,a7,a2
    1a68:	00f92023          	sw	a5,0(s2)
    1a6c:	00831593          	slli	a1,t1,0x8
    1a70:	00e7a223          	sw	a4,4(a5)
    1a74:	00b30833          	add	a6,t1,a1
    1a78:	01f71123          	sh	t6,2(a4)
    1a7c:	00078413          	mv	s0,a5
    1a80:	01071023          	sh	a6,0(a4)
    1a84:	000e8793          	mv	a5,t4
    1a88:	000f0713          	mv	a4,t5
    1a8c:	00878e93          	addi	t4,a5,8
    1a90:	001e0493          	addi	s1,t3,1 # 0xffff8001
    1a94:	045ef863          	bgeu	t4,t0,0x1ae4
    1a98:	00470f13          	addi	t5,a4,4
    1a9c:	047f7463          	bgeu	t5,t2,0x1ae4
    1aa0:	01049893          	slli	a7,s1,0x10
    1aa4:	0108d613          	srli	a2,a7,0x10
    1aa8:	0087a023          	sw	s0,0(a5)
    1aac:	00d64433          	xor	s0,a2,a3
    1ab0:	00341313          	slli	t1,s0,0x3
    1ab4:	00767813          	andi	a6,a2,7
    1ab8:	07837593          	andi	a1,t1,120
    1abc:	0105e4b3          	or	s1,a1,a6
    1ac0:	00f92023          	sw	a5,0(s2)
    1ac4:	00849893          	slli	a7,s1,0x8
    1ac8:	00e7a223          	sw	a4,4(a5)
    1acc:	01148633          	add	a2,s1,a7
    1ad0:	01f71123          	sh	t6,2(a4)
    1ad4:	00078413          	mv	s0,a5
    1ad8:	00c71023          	sh	a2,0(a4)
    1adc:	000e8793          	mv	a5,t4
    1ae0:	000f0713          	mv	a4,t5
    1ae4:	00878e93          	addi	t4,a5,8
    1ae8:	002e0313          	addi	t1,t3,2
    1aec:	045ef863          	bgeu	t4,t0,0x1b3c
    1af0:	00470f13          	addi	t5,a4,4
    1af4:	047f7463          	bgeu	t5,t2,0x1b3c
    1af8:	01031593          	slli	a1,t1,0x10
    1afc:	0105d813          	srli	a6,a1,0x10
    1b00:	0087a023          	sw	s0,0(a5)
    1b04:	00d84433          	xor	s0,a6,a3
    1b08:	00341493          	slli	s1,s0,0x3
    1b0c:	00787613          	andi	a2,a6,7
    1b10:	0784f893          	andi	a7,s1,120
    1b14:	00c8e333          	or	t1,a7,a2
    1b18:	00f92023          	sw	a5,0(s2)
    1b1c:	00831593          	slli	a1,t1,0x8
    1b20:	00e7a223          	sw	a4,4(a5)
    1b24:	00b30833          	add	a6,t1,a1
    1b28:	01f71123          	sh	t6,2(a4)
    1b2c:	00078413          	mv	s0,a5
    1b30:	01071023          	sh	a6,0(a4)
    1b34:	000e8793          	mv	a5,t4
    1b38:	000f0713          	mv	a4,t5
    1b3c:	003e0593          	addi	a1,t3,3
    1b40:	eab510e3          	bne	a0,a1,0x19e0
    1b44:	00042483          	lw	s1,0(s0)
    1b48:	06048663          	beqz	s1,0x1bb4
    1b4c:	00500593          	li	a1,5
    1b50:	580040ef          	jal	0x60d0
    1b54:	000042b7          	lui	t0,0x4
    1b58:	fff28613          	addi	a2,t0,-1 # 0x3fff
    1b5c:	20000593          	li	a1,512
    1b60:	00100693          	li	a3,1
    1b64:	0080006f          	j	0x1b6c
    1b68:	00080493          	mv	s1,a6
    1b6c:	7005f393          	andi	t2,a1,1792
    1b70:	00d9cfb3          	xor	t6,s3,a3
    1b74:	01f3ee33          	or	t3,t2,t6
    1b78:	00ce7eb3          	and	t4,t3,a2
    1b7c:	010e9f13          	slli	t5,t4,0x10
    1b80:	00442883          	lw	a7,4(s0)
    1b84:	410f5793          	srai	a5,t5,0x10
    1b88:	00a6f663          	bgeu	a3,a0,0x1b94
    1b8c:	01069313          	slli	t1,a3,0x10
    1b90:	41035793          	srai	a5,t1,0x10
    1b94:	0004a803          	lw	a6,0(s1)
    1b98:	10058413          	addi	s0,a1,256
    1b9c:	01041713          	slli	a4,s0,0x10
    1ba0:	00f89123          	sh	a5,2(a7)
    1ba4:	01075593          	srli	a1,a4,0x10
    1ba8:	00168693          	addi	a3,a3,1
    1bac:	00048413          	mv	s0,s1
    1bb0:	fa081ce3          	bnez	a6,0x1b68
    1bb4:	01812403          	lw	s0,24(sp)
    1bb8:	000019b7          	lui	s3,0x1
    1bbc:	01c12083          	lw	ra,28(sp)
    1bc0:	01412483          	lw	s1,20(sp)
    1bc4:	00090513          	mv	a0,s2
    1bc8:	d6498593          	addi	a1,s3,-668 # 0xd64
    1bcc:	01012903          	lw	s2,16(sp)
    1bd0:	00c12983          	lw	s3,12(sp)
    1bd4:	00000613          	li	a2,0
    1bd8:	02010113          	addi	sp,sp,32
    1bdc:	c84ff06f          	j	0x1060
    1be0:	00040793          	mv	a5,s0
    1be4:	00058713          	mv	a4,a1
    1be8:	00000413          	li	s0,0
    1bec:	ccdff06f          	j	0x18b8
    1bf0:	fb010113          	addi	sp,sp,-80
    1bf4:	05212023          	sw	s2,64(sp)
    1bf8:	03712623          	sw	s7,44(sp)
    1bfc:	03912223          	sw	s9,36(sp)
    1c00:	04112623          	sw	ra,76(sp)
    1c04:	04812423          	sw	s0,72(sp)
    1c08:	04912223          	sw	s1,68(sp)
    1c0c:	03612823          	sw	s6,48(sp)
    1c10:	00050913          	mv	s2,a0
    1c14:	00068c93          	mv	s9,a3
    1c18:	00060b93          	mv	s7,a2
    1c1c:	00061463          	bnez	a2,0x1c24
    1c20:	00100b93          	li	s7,1
    1c24:	fff58593          	addi	a1,a1,-1
    1c28:	ffc5fb13          	andi	s6,a1,-4
    1c2c:	004b0793          	addi	a5,s6,4
    1c30:	00f12023          	sw	a5,0(sp)
    1c34:	00000413          	li	s0,0
    1c38:	36090263          	beqz	s2,0x1f9c
    1c3c:	00040493          	mv	s1,s0
    1c40:	00140413          	addi	s0,s0,1
    1c44:	00040593          	mv	a1,s0
    1c48:	00040513          	mv	a0,s0
    1c4c:	458040ef          	jal	0x60a4
    1c50:	00351513          	slli	a0,a0,0x3
    1c54:	ff2564e3          	bltu	a0,s2,0x1c3c
    1c58:	00048593          	mv	a1,s1
    1c5c:	00048513          	mv	a0,s1
    1c60:	444040ef          	jal	0x60a4
    1c64:	00012703          	lw	a4,0(sp)
    1c68:	00151393          	slli	t2,a0,0x1
    1c6c:	00712423          	sw	t2,8(sp)
    1c70:	00770633          	add	a2,a4,t2
    1c74:	00c12223          	sw	a2,4(sp)
    1c78:	34048c63          	beqz	s1,0x1fd0
    1c7c:	03312e23          	sw	s3,60(sp)
    1c80:	03412c23          	sw	s4,56(sp)
    1c84:	03512a23          	sw	s5,52(sp)
    1c88:	03812423          	sw	s8,40(sp)
    1c8c:	03a12023          	sw	s10,32(sp)
    1c90:	01b12e23          	sw	s11,28(sp)
    1c94:	00912623          	sw	s1,12(sp)
    1c98:	00412683          	lw	a3,4(sp)
    1c9c:	00012803          	lw	a6,0(sp)
    1ca0:	00148913          	addi	s2,s1,1
    1ca4:	00149c13          	slli	s8,s1,0x1
    1ca8:	00068993          	mv	s3,a3
    1cac:	00000a13          	li	s4,0
    1cb0:	00100d93          	li	s11,1
    1cb4:	40d80433          	sub	s0,a6,a3
    1cb8:	41b908b3          	sub	a7,s2,s11
    1cbc:	0038fe13          	andi	t3,a7,3
    1cc0:	000d8a93          	mv	s5,s11
    1cc4:	00098d13          	mv	s10,s3
    1cc8:	100e0a63          	beqz	t3,0x1ddc
    1ccc:	00100e93          	li	t4,1
    1cd0:	0bde0a63          	beq	t3,t4,0x1d84
    1cd4:	00200f13          	li	t5,2
    1cd8:	05ee0c63          	beq	t3,t5,0x1d30
    1cdc:	000d8593          	mv	a1,s11
    1ce0:	000b8513          	mv	a0,s7
    1ce4:	3c0040ef          	jal	0x60a4
    1ce8:	41f55b93          	srai	s7,a0,0x1f
    1cec:	010bdd13          	srli	s10,s7,0x10
    1cf0:	01a50fb3          	add	t6,a0,s10
    1cf4:	010f9593          	slli	a1,t6,0x10
    1cf8:	010d9793          	slli	a5,s11,0x10
    1cfc:	0105db13          	srli	s6,a1,0x10
    1d00:	0107d293          	srli	t0,a5,0x10
    1d04:	41ab0bb3          	sub	s7,s6,s10
    1d08:	01728533          	add	a0,t0,s7
    1d0c:	01051393          	slli	t2,a0,0x10
    1d10:	0103d713          	srli	a4,t2,0x10
    1d14:	00570633          	add	a2,a4,t0
    1d18:	01340333          	add	t1,s0,s3
    1d1c:	0ff67693          	zext.b	a3,a2
    1d20:	00e99023          	sh	a4,0(s3)
    1d24:	001d8d93          	addi	s11,s11,1
    1d28:	00298d13          	addi	s10,s3,2
    1d2c:	00d31023          	sh	a3,0(t1)
    1d30:	000d8593          	mv	a1,s11
    1d34:	000b8513          	mv	a0,s7
    1d38:	36c040ef          	jal	0x60a4
    1d3c:	41f55893          	srai	a7,a0,0x1f
    1d40:	0108de13          	srli	t3,a7,0x10
    1d44:	01c50eb3          	add	t4,a0,t3
    1d48:	010e9f13          	slli	t5,t4,0x10
    1d4c:	010d9f93          	slli	t6,s11,0x10
    1d50:	010f5b93          	srli	s7,t5,0x10
    1d54:	010fdb13          	srli	s6,t6,0x10
    1d58:	41cb8bb3          	sub	s7,s7,t3
    1d5c:	017b05b3          	add	a1,s6,s7
    1d60:	01059293          	slli	t0,a1,0x10
    1d64:	0102d313          	srli	t1,t0,0x10
    1d68:	01630533          	add	a0,t1,s6
    1d6c:	01a407b3          	add	a5,s0,s10
    1d70:	006d1023          	sh	t1,0(s10)
    1d74:	0ff57393          	zext.b	t2,a0
    1d78:	001d8d93          	addi	s11,s11,1
    1d7c:	00779023          	sh	t2,0(a5)
    1d80:	002d0d13          	addi	s10,s10,2
    1d84:	000d8593          	mv	a1,s11
    1d88:	000b8513          	mv	a0,s7
    1d8c:	318040ef          	jal	0x60a4
    1d90:	41f55713          	srai	a4,a0,0x1f
    1d94:	01075813          	srli	a6,a4,0x10
    1d98:	01050633          	add	a2,a0,a6
    1d9c:	01061693          	slli	a3,a2,0x10
    1da0:	010d9e13          	slli	t3,s11,0x10
    1da4:	0106d893          	srli	a7,a3,0x10
    1da8:	010e5e93          	srli	t4,t3,0x10
    1dac:	41088bb3          	sub	s7,a7,a6
    1db0:	017e8fb3          	add	t6,t4,s7
    1db4:	010f9b13          	slli	s6,t6,0x10
    1db8:	010b5793          	srli	a5,s6,0x10
    1dbc:	01d785b3          	add	a1,a5,t4
    1dc0:	01a40f33          	add	t5,s0,s10
    1dc4:	00fd1023          	sh	a5,0(s10)
    1dc8:	0ff5f293          	zext.b	t0,a1
    1dcc:	001d8d93          	addi	s11,s11,1
    1dd0:	005f1023          	sh	t0,0(t5)
    1dd4:	002d0d13          	addi	s10,s10,2
    1dd8:	152d8063          	beq	s11,s2,0x1f18
    1ddc:	000d8593          	mv	a1,s11
    1de0:	000b8513          	mv	a0,s7
    1de4:	2c0040ef          	jal	0x60a4
    1de8:	41f55313          	srai	t1,a0,0x1f
    1dec:	01035393          	srli	t2,t1,0x10
    1df0:	00750533          	add	a0,a0,t2
    1df4:	01051713          	slli	a4,a0,0x10
    1df8:	01075613          	srli	a2,a4,0x10
    1dfc:	010d9813          	slli	a6,s11,0x10
    1e00:	01085693          	srli	a3,a6,0x10
    1e04:	40760533          	sub	a0,a2,t2
    1e08:	00a68e33          	add	t3,a3,a0
    1e0c:	010e1e93          	slli	t4,t3,0x10
    1e10:	010edf13          	srli	t5,t4,0x10
    1e14:	00df0fb3          	add	t6,t5,a3
    1e18:	0ffffb13          	zext.b	s6,t6
    1e1c:	01ed1023          	sh	t5,0(s10)
    1e20:	01a408b3          	add	a7,s0,s10
    1e24:	001d8b93          	addi	s7,s11,1
    1e28:	01689023          	sh	s6,0(a7)
    1e2c:	000b8593          	mv	a1,s7
    1e30:	274040ef          	jal	0x60a4
    1e34:	41f55793          	srai	a5,a0,0x1f
    1e38:	0107d593          	srli	a1,a5,0x10
    1e3c:	00b502b3          	add	t0,a0,a1
    1e40:	01029313          	slli	t1,t0,0x10
    1e44:	01035393          	srli	t2,t1,0x10
    1e48:	010b9513          	slli	a0,s7,0x10
    1e4c:	01055713          	srli	a4,a0,0x10
    1e50:	40b38533          	sub	a0,t2,a1
    1e54:	00a70633          	add	a2,a4,a0
    1e58:	01061693          	slli	a3,a2,0x10
    1e5c:	0106d893          	srli	a7,a3,0x10
    1e60:	00e88e33          	add	t3,a7,a4
    1e64:	0ffe7e93          	zext.b	t4,t3
    1e68:	01a40833          	add	a6,s0,s10
    1e6c:	002d8b93          	addi	s7,s11,2
    1e70:	011d1123          	sh	a7,2(s10)
    1e74:	01d81123          	sh	t4,2(a6)
    1e78:	000b8593          	mv	a1,s7
    1e7c:	228040ef          	jal	0x60a4
    1e80:	41f55f13          	srai	t5,a0,0x1f
    1e84:	010f5f93          	srli	t6,t5,0x10
    1e88:	01f507b3          	add	a5,a0,t6
    1e8c:	01079593          	slli	a1,a5,0x10
    1e90:	0105d293          	srli	t0,a1,0x10
    1e94:	010b9313          	slli	t1,s7,0x10
    1e98:	01035393          	srli	t2,t1,0x10
    1e9c:	41f28533          	sub	a0,t0,t6
    1ea0:	00a38833          	add	a6,t2,a0
    1ea4:	01081613          	slli	a2,a6,0x10
    1ea8:	01065893          	srli	a7,a2,0x10
    1eac:	007886b3          	add	a3,a7,t2
    1eb0:	01a40733          	add	a4,s0,s10
    1eb4:	003d8b13          	addi	s6,s11,3
    1eb8:	0ff6fb93          	zext.b	s7,a3
    1ebc:	011d1223          	sh	a7,4(s10)
    1ec0:	01771223          	sh	s7,4(a4)
    1ec4:	000b0593          	mv	a1,s6
    1ec8:	1dc040ef          	jal	0x60a4
    1ecc:	41f55e13          	srai	t3,a0,0x1f
    1ed0:	010e5e93          	srli	t4,t3,0x10
    1ed4:	01d50533          	add	a0,a0,t4
    1ed8:	01051f13          	slli	t5,a0,0x10
    1edc:	010f5f93          	srli	t6,t5,0x10
    1ee0:	010b1793          	slli	a5,s6,0x10
    1ee4:	0107d593          	srli	a1,a5,0x10
    1ee8:	41df8bb3          	sub	s7,t6,t4
    1eec:	01758333          	add	t1,a1,s7
    1ef0:	01031393          	slli	t2,t1,0x10
    1ef4:	0103d713          	srli	a4,t2,0x10
    1ef8:	00b70833          	add	a6,a4,a1
    1efc:	01a402b3          	add	t0,s0,s10
    1f00:	00ed1323          	sh	a4,6(s10)
    1f04:	0ff87613          	zext.b	a2,a6
    1f08:	004d8d93          	addi	s11,s11,4
    1f0c:	00c29323          	sh	a2,6(t0)
    1f10:	008d0d13          	addi	s10,s10,8
    1f14:	ed2d94e3          	bne	s11,s2,0x1ddc
    1f18:	001a0a13          	addi	s4,s4,1
    1f1c:	01548db3          	add	s11,s1,s5
    1f20:	00990933          	add	s2,s2,s1
    1f24:	018989b3          	add	s3,s3,s8
    1f28:	d89a18e3          	bne	s4,s1,0x1cb8
    1f2c:	03c12983          	lw	s3,60(sp)
    1f30:	03812a03          	lw	s4,56(sp)
    1f34:	03412a83          	lw	s5,52(sp)
    1f38:	02812c03          	lw	s8,40(sp)
    1f3c:	02012d03          	lw	s10,32(sp)
    1f40:	01c12d83          	lw	s11,28(sp)
    1f44:	00412403          	lw	s0,4(sp)
    1f48:	00812883          	lw	a7,8(sp)
    1f4c:	00c12503          	lw	a0,12(sp)
    1f50:	00012e83          	lw	t4,0(sp)
    1f54:	01140b33          	add	s6,s0,a7
    1f58:	fffb0693          	addi	a3,s6,-1
    1f5c:	008ca423          	sw	s0,8(s9)
    1f60:	04c12083          	lw	ra,76(sp)
    1f64:	04812403          	lw	s0,72(sp)
    1f68:	ffc6fb93          	andi	s7,a3,-4
    1f6c:	004b8e13          	addi	t3,s7,4
    1f70:	00aca023          	sw	a0,0(s9)
    1f74:	01cca623          	sw	t3,12(s9)
    1f78:	01dca223          	sw	t4,4(s9)
    1f7c:	04012903          	lw	s2,64(sp)
    1f80:	03012b03          	lw	s6,48(sp)
    1f84:	02c12b83          	lw	s7,44(sp)
    1f88:	02412c83          	lw	s9,36(sp)
    1f8c:	00048513          	mv	a0,s1
    1f90:	04412483          	lw	s1,68(sp)
    1f94:	05010113          	addi	sp,sp,80
    1f98:	00008067          	ret
    1f9c:	fff00493          	li	s1,-1
    1fa0:	006b0293          	addi	t0,s6,6
    1fa4:	00200313          	li	t1,2
    1fa8:	03312e23          	sw	s3,60(sp)
    1fac:	03412c23          	sw	s4,56(sp)
    1fb0:	03512a23          	sw	s5,52(sp)
    1fb4:	03812423          	sw	s8,40(sp)
    1fb8:	03a12023          	sw	s10,32(sp)
    1fbc:	01b12e23          	sw	s11,28(sp)
    1fc0:	00912623          	sw	s1,12(sp)
    1fc4:	00512223          	sw	t0,4(sp)
    1fc8:	00612423          	sw	t1,8(sp)
    1fcc:	ccdff06f          	j	0x1c98
    1fd0:	00012423          	sw	zero,8(sp)
    1fd4:	00012623          	sw	zero,12(sp)
    1fd8:	f6dff06f          	j	0x1f44
    1fdc:	fb010113          	addi	sp,sp,-80
    1fe0:	05212023          	sw	s2,64(sp)
    1fe4:	01b12e23          	sw	s11,28(sp)
    1fe8:	fffff7b7          	lui	a5,0xfffff
    1fec:	04112623          	sw	ra,76(sp)
    1ff0:	04812423          	sw	s0,72(sp)
    1ff4:	04912223          	sw	s1,68(sp)
    1ff8:	03312e23          	sw	s3,60(sp)
    1ffc:	00c12423          	sw	a2,8(sp)
    2000:	00d12623          	sw	a3,12(sp)
    2004:	00058913          	mv	s2,a1
    2008:	00f76db3          	or	s11,a4,a5
    200c:	00051463          	bnez	a0,0x2014
    2010:	3a00106f          	j	0x33b0
    2014:	00070493          	mv	s1,a4
    2018:	00812703          	lw	a4,8(sp)
    201c:	00151293          	slli	t0,a0,0x1
    2020:	03512a23          	sw	s5,52(sp)
    2024:	03612823          	sw	s6,48(sp)
    2028:	00570ab3          	add	s5,a4,t0
    202c:	40a00b33          	neg	s6,a0
    2030:	01049313          	slli	t1,s1,0x10
    2034:	03412c23          	sw	s4,56(sp)
    2038:	03712623          	sw	s7,44(sp)
    203c:	03812423          	sw	s8,40(sp)
    2040:	03912223          	sw	s9,36(sp)
    2044:	03a12023          	sw	s10,32(sp)
    2048:	00050e93          	mv	t4,a0
    204c:	00512023          	sw	t0,0(sp)
    2050:	000a8693          	mv	a3,s5
    2054:	002b1b13          	slli	s6,s6,0x2
    2058:	01035993          	srli	s3,t1,0x10
    205c:	00000a13          	li	s4,0
    2060:	00012383          	lw	t2,0(sp)
    2064:	40768633          	sub	a2,a3,t2
    2068:	40c68533          	sub	a0,a3,a2
    206c:	ffe50593          	addi	a1,a0,-2
    2070:	0015d813          	srli	a6,a1,0x1
    2074:	00180893          	addi	a7,a6,1
    2078:	0078fb93          	andi	s7,a7,7
    207c:	00060f13          	mv	t5,a2
    2080:	0a0b8463          	beqz	s7,0x2128
    2084:	00100c13          	li	s8,1
    2088:	098b8663          	beq	s7,s8,0x2114
    208c:	00200c93          	li	s9,2
    2090:	079b8a63          	beq	s7,s9,0x2104
    2094:	00300d13          	li	s10,3
    2098:	05ab8e63          	beq	s7,s10,0x20f4
    209c:	00400e13          	li	t3,4
    20a0:	05cb8263          	beq	s7,t3,0x20e4
    20a4:	00500f93          	li	t6,5
    20a8:	03fb8663          	beq	s7,t6,0x20d4
    20ac:	00600793          	li	a5,6
    20b0:	00fb8a63          	beq	s7,a5,0x20c4
    20b4:	00065403          	lhu	s0,0(a2) # 0xffff8000
    20b8:	00260f13          	addi	t5,a2,2
    20bc:	008982b3          	add	t0,s3,s0
    20c0:	00561023          	sh	t0,0(a2)
    20c4:	000f5703          	lhu	a4,0(t5)
    20c8:	002f0f13          	addi	t5,t5,2
    20cc:	00e98333          	add	t1,s3,a4
    20d0:	fe6f1f23          	sh	t1,-2(t5)
    20d4:	000f5383          	lhu	t2,0(t5)
    20d8:	002f0f13          	addi	t5,t5,2
    20dc:	00798533          	add	a0,s3,t2
    20e0:	feaf1f23          	sh	a0,-2(t5)
    20e4:	000f5583          	lhu	a1,0(t5)
    20e8:	002f0f13          	addi	t5,t5,2
    20ec:	00b98833          	add	a6,s3,a1
    20f0:	ff0f1f23          	sh	a6,-2(t5)
    20f4:	000f5883          	lhu	a7,0(t5)
    20f8:	002f0f13          	addi	t5,t5,2
    20fc:	01198bb3          	add	s7,s3,a7
    2100:	ff7f1f23          	sh	s7,-2(t5)
    2104:	000f5c03          	lhu	s8,0(t5)
    2108:	002f0f13          	addi	t5,t5,2
    210c:	01898cb3          	add	s9,s3,s8
    2110:	ff9f1f23          	sh	s9,-2(t5)
    2114:	000f5d03          	lhu	s10,0(t5)
    2118:	002f0f13          	addi	t5,t5,2
    211c:	01a98e33          	add	t3,s3,s10
    2120:	ffcf1f23          	sh	t3,-2(t5)
    2124:	06df0663          	beq	t5,a3,0x2190
    2128:	000f5783          	lhu	a5,0(t5)
    212c:	002f5f83          	lhu	t6,2(t5)
    2130:	004f5403          	lhu	s0,4(t5)
    2134:	006f5383          	lhu	t2,6(t5)
    2138:	008f5303          	lhu	t1,8(t5)
    213c:	00af5803          	lhu	a6,10(t5)
    2140:	00cf5583          	lhu	a1,12(t5)
    2144:	00ef5703          	lhu	a4,14(t5)
    2148:	00f982b3          	add	t0,s3,a5
    214c:	01f98bb3          	add	s7,s3,t6
    2150:	00898533          	add	a0,s3,s0
    2154:	00798c33          	add	s8,s3,t2
    2158:	00698cb3          	add	s9,s3,t1
    215c:	010988b3          	add	a7,s3,a6
    2160:	00b98d33          	add	s10,s3,a1
    2164:	00e98e33          	add	t3,s3,a4
    2168:	005f1023          	sh	t0,0(t5)
    216c:	017f1123          	sh	s7,2(t5)
    2170:	00af1223          	sh	a0,4(t5)
    2174:	018f1323          	sh	s8,6(t5)
    2178:	019f1423          	sh	s9,8(t5)
    217c:	011f1523          	sh	a7,10(t5)
    2180:	01af1623          	sh	s10,12(t5)
    2184:	01cf1723          	sh	t3,14(t5)
    2188:	010f0f13          	addi	t5,t5,16
    218c:	f8df1ee3          	bne	t5,a3,0x2128
    2190:	001a0c93          	addi	s9,s4,1
    2194:	416606b3          	sub	a3,a2,s6
    2198:	019e8663          	beq	t4,s9,0x21a4
    219c:	000c8a13          	mv	s4,s9
    21a0:	ec1ff06f          	j	0x2060
    21a4:	00000c13          	li	s8,0
    21a8:	00012223          	sw	zero,4(sp)
    21ac:	00012603          	lw	a2,0(sp)
    21b0:	002c1413          	slli	s0,s8,0x2
    21b4:	01240433          	add	s0,s0,s2
    21b8:	40ca8bb3          	sub	s7,s5,a2
    21bc:	417a8f33          	sub	t5,s5,s7
    21c0:	ffef0e93          	addi	t4,t5,-2
    21c4:	001ed793          	srli	a5,t4,0x1
    21c8:	00178f93          	addi	t6,a5,1 # 0xfffff001
    21cc:	007ff393          	andi	t2,t6,7
    21d0:	000b8d13          	mv	s10,s7
    21d4:	0e038063          	beqz	t2,0x22b4
    21d8:	00100313          	li	t1,1
    21dc:	0a638e63          	beq	t2,t1,0x2298
    21e0:	00200813          	li	a6,2
    21e4:	09038e63          	beq	t2,a6,0x2280
    21e8:	00300593          	li	a1,3
    21ec:	06b38e63          	beq	t2,a1,0x2268
    21f0:	00400713          	li	a4,4
    21f4:	04e38e63          	beq	t2,a4,0x2250
    21f8:	00500293          	li	t0,5
    21fc:	02538e63          	beq	t2,t0,0x2238
    2200:	00600513          	li	a0,6
    2204:	00a38e63          	beq	t2,a0,0x2220
    2208:	000b9503          	lh	a0,0(s7)
    220c:	00048593          	mv	a1,s1
    2210:	002b8d13          	addi	s10,s7,2
    2214:	691030ef          	jal	0x60a4
    2218:	00a42023          	sw	a0,0(s0)
    221c:	00440413          	addi	s0,s0,4
    2220:	000d1503          	lh	a0,0(s10)
    2224:	00048593          	mv	a1,s1
    2228:	002d0d13          	addi	s10,s10,2
    222c:	679030ef          	jal	0x60a4
    2230:	00a42023          	sw	a0,0(s0)
    2234:	00440413          	addi	s0,s0,4
    2238:	000d1503          	lh	a0,0(s10)
    223c:	00048593          	mv	a1,s1
    2240:	002d0d13          	addi	s10,s10,2
    2244:	661030ef          	jal	0x60a4
    2248:	00a42023          	sw	a0,0(s0)
    224c:	00440413          	addi	s0,s0,4
    2250:	000d1503          	lh	a0,0(s10)
    2254:	00048593          	mv	a1,s1
    2258:	002d0d13          	addi	s10,s10,2
    225c:	649030ef          	jal	0x60a4
    2260:	00a42023          	sw	a0,0(s0)
    2264:	00440413          	addi	s0,s0,4
    2268:	000d1503          	lh	a0,0(s10)
    226c:	00048593          	mv	a1,s1
    2270:	002d0d13          	addi	s10,s10,2
    2274:	631030ef          	jal	0x60a4
    2278:	00a42023          	sw	a0,0(s0)
    227c:	00440413          	addi	s0,s0,4
    2280:	000d1503          	lh	a0,0(s10)
    2284:	00048593          	mv	a1,s1
    2288:	002d0d13          	addi	s10,s10,2
    228c:	619030ef          	jal	0x60a4
    2290:	00a42023          	sw	a0,0(s0)
    2294:	00440413          	addi	s0,s0,4
    2298:	000d1503          	lh	a0,0(s10)
    229c:	00048593          	mv	a1,s1
    22a0:	002d0d13          	addi	s10,s10,2
    22a4:	601030ef          	jal	0x60a4
    22a8:	00a42023          	sw	a0,0(s0)
    22ac:	00440413          	addi	s0,s0,4
    22b0:	0baa8663          	beq	s5,s10,0x235c
    22b4:	000d1503          	lh	a0,0(s10)
    22b8:	00048593          	mv	a1,s1
    22bc:	010d0d13          	addi	s10,s10,16
    22c0:	5e5030ef          	jal	0x60a4
    22c4:	00050893          	mv	a7,a0
    22c8:	ff2d1503          	lh	a0,-14(s10)
    22cc:	00048593          	mv	a1,s1
    22d0:	01142023          	sw	a7,0(s0)
    22d4:	5d1030ef          	jal	0x60a4
    22d8:	00050e13          	mv	t3,a0
    22dc:	ff4d1503          	lh	a0,-12(s10)
    22e0:	00048593          	mv	a1,s1
    22e4:	01c42223          	sw	t3,4(s0)
    22e8:	5bd030ef          	jal	0x60a4
    22ec:	00050693          	mv	a3,a0
    22f0:	ff6d1503          	lh	a0,-10(s10)
    22f4:	00048593          	mv	a1,s1
    22f8:	00d42423          	sw	a3,8(s0)
    22fc:	5a9030ef          	jal	0x60a4
    2300:	00050613          	mv	a2,a0
    2304:	ff8d1503          	lh	a0,-8(s10)
    2308:	00048593          	mv	a1,s1
    230c:	00c42623          	sw	a2,12(s0)
    2310:	595030ef          	jal	0x60a4
    2314:	00050f13          	mv	t5,a0
    2318:	ffad1503          	lh	a0,-6(s10)
    231c:	00048593          	mv	a1,s1
    2320:	01e42823          	sw	t5,16(s0)
    2324:	581030ef          	jal	0x60a4
    2328:	00050e93          	mv	t4,a0
    232c:	ffcd1503          	lh	a0,-4(s10)
    2330:	00048593          	mv	a1,s1
    2334:	01d42a23          	sw	t4,20(s0)
    2338:	56d030ef          	jal	0x60a4
    233c:	00050793          	mv	a5,a0
    2340:	ffed1503          	lh	a0,-2(s10)
    2344:	00048593          	mv	a1,s1
    2348:	00f42c23          	sw	a5,24(s0)
    234c:	559030ef          	jal	0x60a4
    2350:	00a42e23          	sw	a0,28(s0)
    2354:	02040413          	addi	s0,s0,32
    2358:	f5aa9ee3          	bne	s5,s10,0x22b4
    235c:	416b8ab3          	sub	s5,s7,s6
    2360:	00412b83          	lw	s7,4(sp)
    2364:	019c0c33          	add	s8,s8,s9
    2368:	001b8f93          	addi	t6,s7,1
    236c:	014b8663          	beq	s7,s4,0x2378
    2370:	01f12223          	sw	t6,4(sp)
    2374:	e39ff06f          	j	0x21ac
    2378:	416904b3          	sub	s1,s2,s6
    237c:	419003b3          	neg	t2,s9
    2380:	00048613          	mv	a2,s1
    2384:	00339a93          	slli	s5,t2,0x3
    2388:	00000e13          	li	t3,0
    238c:	00000313          	li	t1,0
    2390:	00000513          	li	a0,0
    2394:	00000893          	li	a7,0
    2398:	01660833          	add	a6,a2,s6
    239c:	410605b3          	sub	a1,a2,a6
    23a0:	ffc58713          	addi	a4,a1,-4
    23a4:	00275293          	srli	t0,a4,0x2
    23a8:	00128d13          	addi	s10,t0,1
    23ac:	007d7413          	andi	s0,s10,7
    23b0:	00080693          	mv	a3,a6
    23b4:	28040c63          	beqz	s0,0x264c
    23b8:	00100f13          	li	t5,1
    23bc:	13e40a63          	beq	s0,t5,0x24f0
    23c0:	00200e93          	li	t4,2
    23c4:	11d40063          	beq	s0,t4,0x24c4
    23c8:	00300793          	li	a5,3
    23cc:	0cf40663          	beq	s0,a5,0x2498
    23d0:	00400c13          	li	s8,4
    23d4:	09840c63          	beq	s0,s8,0x246c
    23d8:	00500b93          	li	s7,5
    23dc:	07740263          	beq	s0,s7,0x2440
    23e0:	00600f93          	li	t6,6
    23e4:	03f40863          	beq	s0,t6,0x2414
    23e8:	000e0693          	mv	a3,t3
    23ec:	00082e03          	lw	t3,0(a6)
    23f0:	01051513          	slli	a0,a0,0x10
    23f4:	01055393          	srli	t2,a0,0x10
    23f8:	01c30333          	add	t1,t1,t3
    23fc:	786dd6e3          	bge	s11,t1,0x3388
    2400:	00a38313          	addi	t1,t2,10
    2404:	01031d13          	slli	s10,t1,0x10
    2408:	410d5513          	srai	a0,s10,0x10
    240c:	00000313          	li	t1,0
    2410:	00480693          	addi	a3,a6,4
    2414:	000e0413          	mv	s0,t3
    2418:	0006ae03          	lw	t3,0(a3)
    241c:	01051f13          	slli	t5,a0,0x10
    2420:	010f5793          	srli	a5,t5,0x10
    2424:	01c30333          	add	t1,t1,t3
    2428:	3a6dd863          	bge	s11,t1,0x27d8
    242c:	00a78f93          	addi	t6,a5,10
    2430:	010f9513          	slli	a0,t6,0x10
    2434:	41055513          	srai	a0,a0,0x10
    2438:	00000313          	li	t1,0
    243c:	00468693          	addi	a3,a3,4
    2440:	000e0393          	mv	t2,t3
    2444:	0006ae03          	lw	t3,0(a3)
    2448:	01051593          	slli	a1,a0,0x10
    244c:	0105d713          	srli	a4,a1,0x10
    2450:	01c30333          	add	t1,t1,t3
    2454:	366dd863          	bge	s11,t1,0x27c4
    2458:	00a70313          	addi	t1,a4,10
    245c:	01031f13          	slli	t5,t1,0x10
    2460:	410f5513          	srai	a0,t5,0x10
    2464:	00000313          	li	t1,0
    2468:	00468693          	addi	a3,a3,4
    246c:	000e0793          	mv	a5,t3
    2470:	0006ae03          	lw	t3,0(a3)
    2474:	01051e93          	slli	t4,a0,0x10
    2478:	010edc13          	srli	s8,t4,0x10
    247c:	01c30333          	add	t1,t1,t3
    2480:	326dd863          	bge	s11,t1,0x27b0
    2484:	00ac0393          	addi	t2,s8,10
    2488:	01039593          	slli	a1,t2,0x10
    248c:	4105d513          	srai	a0,a1,0x10
    2490:	00000313          	li	t1,0
    2494:	00468693          	addi	a3,a3,4
    2498:	000e0713          	mv	a4,t3
    249c:	0006ae03          	lw	t3,0(a3)
    24a0:	01051293          	slli	t0,a0,0x10
    24a4:	0102dd13          	srli	s10,t0,0x10
    24a8:	01c30333          	add	t1,t1,t3
    24ac:	2e6dd863          	bge	s11,t1,0x279c
    24b0:	00ad0313          	addi	t1,s10,10
    24b4:	01031e93          	slli	t4,t1,0x10
    24b8:	410ed513          	srai	a0,t4,0x10
    24bc:	00000313          	li	t1,0
    24c0:	00468693          	addi	a3,a3,4
    24c4:	000e0c13          	mv	s8,t3
    24c8:	0006ae03          	lw	t3,0(a3)
    24cc:	01051b93          	slli	s7,a0,0x10
    24d0:	010bdf93          	srli	t6,s7,0x10
    24d4:	01c30333          	add	t1,t1,t3
    24d8:	2a6dd863          	bge	s11,t1,0x2788
    24dc:	00af8713          	addi	a4,t6,10
    24e0:	01071293          	slli	t0,a4,0x10
    24e4:	4102d513          	srai	a0,t0,0x10
    24e8:	00000313          	li	t1,0
    24ec:	00468693          	addi	a3,a3,4
    24f0:	000e0d13          	mv	s10,t3
    24f4:	0006ae03          	lw	t3,0(a3)
    24f8:	01051413          	slli	s0,a0,0x10
    24fc:	01045f13          	srli	t5,s0,0x10
    2500:	01c30333          	add	t1,t1,t3
    2504:	266dd863          	bge	s11,t1,0x2774
    2508:	00af0313          	addi	t1,t5,10
    250c:	01031b93          	slli	s7,t1,0x10
    2510:	410bd513          	srai	a0,s7,0x10
    2514:	00000313          	li	t1,0
    2518:	00468693          	addi	a3,a3,4
    251c:	12d61863          	bne	a2,a3,0x264c
    2520:	41580633          	sub	a2,a6,s5
    2524:	00188813          	addi	a6,a7,1
    2528:	2d1a0263          	beq	s4,a7,0x27ec
    252c:	00080893          	mv	a7,a6
    2530:	e69ff06f          	j	0x2398
    2534:	01fe2e33          	slt	t3,t3,t6
    2538:	0046a783          	lw	a5,4(a3)
    253c:	01c385b3          	add	a1,t2,t3
    2540:	01059713          	slli	a4,a1,0x10
    2544:	41075413          	srai	s0,a4,0x10
    2548:	01041e93          	slli	t4,s0,0x10
    254c:	00ff0333          	add	t1,t5,a5
    2550:	010edc13          	srli	s8,t4,0x10
    2554:	00468693          	addi	a3,a3,4
    2558:	126dd863          	bge	s11,t1,0x2688
    255c:	0046a703          	lw	a4,4(a3)
    2560:	00ac0e13          	addi	t3,s8,10
    2564:	010e1593          	slli	a1,t3,0x10
    2568:	4105d393          	srai	t2,a1,0x10
    256c:	00000313          	li	t1,0
    2570:	01039293          	slli	t0,t2,0x10
    2574:	00e30433          	add	s0,t1,a4
    2578:	0102dd13          	srli	s10,t0,0x10
    257c:	128dd863          	bge	s11,s0,0x26ac
    2580:	0086af83          	lw	t6,8(a3)
    2584:	00ad0313          	addi	t1,s10,10
    2588:	01031b93          	slli	s7,t1,0x10
    258c:	410bdc13          	srai	s8,s7,0x10
    2590:	00000413          	li	s0,0
    2594:	010c1513          	slli	a0,s8,0x10
    2598:	01f40e33          	add	t3,s0,t6
    259c:	01055393          	srli	t2,a0,0x10
    25a0:	13cdd863          	bge	s11,t3,0x26d0
    25a4:	00c6a783          	lw	a5,12(a3)
    25a8:	00a38413          	addi	s0,t2,10
    25ac:	01041f13          	slli	t5,s0,0x10
    25b0:	410f5d13          	srai	s10,t5,0x10
    25b4:	00000e13          	li	t3,0
    25b8:	010d1e93          	slli	t4,s10,0x10
    25bc:	00fe0333          	add	t1,t3,a5
    25c0:	010edc13          	srli	s8,t4,0x10
    25c4:	126dd863          	bge	s11,t1,0x26f4
    25c8:	0106a703          	lw	a4,16(a3)
    25cc:	00ac0e13          	addi	t3,s8,10
    25d0:	010e1593          	slli	a1,t3,0x10
    25d4:	4105d393          	srai	t2,a1,0x10
    25d8:	00000313          	li	t1,0
    25dc:	01039293          	slli	t0,t2,0x10
    25e0:	00e30433          	add	s0,t1,a4
    25e4:	0102dd13          	srli	s10,t0,0x10
    25e8:	128dd863          	bge	s11,s0,0x2718
    25ec:	0146af83          	lw	t6,20(a3)
    25f0:	00ad0313          	addi	t1,s10,10
    25f4:	01031b93          	slli	s7,t1,0x10
    25f8:	410bdc13          	srai	s8,s7,0x10
    25fc:	00000413          	li	s0,0
    2600:	010c1513          	slli	a0,s8,0x10
    2604:	01f405b3          	add	a1,s0,t6
    2608:	01055393          	srli	t2,a0,0x10
    260c:	12bdd863          	bge	s11,a1,0x273c
    2610:	0186ae03          	lw	t3,24(a3)
    2614:	00a38413          	addi	s0,t2,10
    2618:	01041f13          	slli	t5,s0,0x10
    261c:	410f5d13          	srai	s10,t5,0x10
    2620:	00000593          	li	a1,0
    2624:	010d1793          	slli	a5,s10,0x10
    2628:	01c58333          	add	t1,a1,t3
    262c:	0107dc13          	srli	s8,a5,0x10
    2630:	126dd863          	bge	s11,t1,0x2760
    2634:	00ac0513          	addi	a0,s8,10
    2638:	01051393          	slli	t2,a0,0x10
    263c:	4103d513          	srai	a0,t2,0x10
    2640:	00000313          	li	t1,0
    2644:	01c68693          	addi	a3,a3,28
    2648:	ecd60ce3          	beq	a2,a3,0x2520
    264c:	0006af83          	lw	t6,0(a3)
    2650:	01051513          	slli	a0,a0,0x10
    2654:	01055393          	srli	t2,a0,0x10
    2658:	01f30f33          	add	t5,t1,t6
    265c:	ededdce3          	bge	s11,t5,0x2534
    2660:	0046a783          	lw	a5,4(a3)
    2664:	00a38293          	addi	t0,t2,10
    2668:	01029d13          	slli	s10,t0,0x10
    266c:	410d5413          	srai	s0,s10,0x10
    2670:	00000f13          	li	t5,0
    2674:	01041e93          	slli	t4,s0,0x10
    2678:	00ff0333          	add	t1,t5,a5
    267c:	010edc13          	srli	s8,t4,0x10
    2680:	00468693          	addi	a3,a3,4
    2684:	ec6dcce3          	blt	s11,t1,0x255c
    2688:	00ffabb3          	slt	s7,t6,a5
    268c:	0046a703          	lw	a4,4(a3)
    2690:	017c0fb3          	add	t6,s8,s7
    2694:	010f9513          	slli	a0,t6,0x10
    2698:	41055393          	srai	t2,a0,0x10
    269c:	01039293          	slli	t0,t2,0x10
    26a0:	00e30433          	add	s0,t1,a4
    26a4:	0102dd13          	srli	s10,t0,0x10
    26a8:	ec8dcce3          	blt	s11,s0,0x2580
    26ac:	00e7af33          	slt	t5,a5,a4
    26b0:	0086af83          	lw	t6,8(a3)
    26b4:	01ed07b3          	add	a5,s10,t5
    26b8:	01079e93          	slli	t4,a5,0x10
    26bc:	410edc13          	srai	s8,t4,0x10
    26c0:	010c1513          	slli	a0,s8,0x10
    26c4:	01f40e33          	add	t3,s0,t6
    26c8:	01055393          	srli	t2,a0,0x10
    26cc:	edcdcce3          	blt	s11,t3,0x25a4
    26d0:	01f725b3          	slt	a1,a4,t6
    26d4:	00c6a783          	lw	a5,12(a3)
    26d8:	00b38733          	add	a4,t2,a1
    26dc:	01071293          	slli	t0,a4,0x10
    26e0:	4102dd13          	srai	s10,t0,0x10
    26e4:	010d1e93          	slli	t4,s10,0x10
    26e8:	00fe0333          	add	t1,t3,a5
    26ec:	010edc13          	srli	s8,t4,0x10
    26f0:	ec6dcce3          	blt	s11,t1,0x25c8
    26f4:	00ffabb3          	slt	s7,t6,a5
    26f8:	0106a703          	lw	a4,16(a3)
    26fc:	017c0fb3          	add	t6,s8,s7
    2700:	010f9513          	slli	a0,t6,0x10
    2704:	41055393          	srai	t2,a0,0x10
    2708:	01039293          	slli	t0,t2,0x10
    270c:	00e30433          	add	s0,t1,a4
    2710:	0102dd13          	srli	s10,t0,0x10
    2714:	ec8dcce3          	blt	s11,s0,0x25ec
    2718:	00e7af33          	slt	t5,a5,a4
    271c:	0146af83          	lw	t6,20(a3)
    2720:	01ed07b3          	add	a5,s10,t5
    2724:	01079e93          	slli	t4,a5,0x10
    2728:	410edc13          	srai	s8,t4,0x10
    272c:	010c1513          	slli	a0,s8,0x10
    2730:	01f405b3          	add	a1,s0,t6
    2734:	01055393          	srli	t2,a0,0x10
    2738:	ecbdcce3          	blt	s11,a1,0x2610
    273c:	01f72e33          	slt	t3,a4,t6
    2740:	01c38733          	add	a4,t2,t3
    2744:	0186ae03          	lw	t3,24(a3)
    2748:	01071293          	slli	t0,a4,0x10
    274c:	4102dd13          	srai	s10,t0,0x10
    2750:	010d1793          	slli	a5,s10,0x10
    2754:	01c58333          	add	t1,a1,t3
    2758:	0107dc13          	srli	s8,a5,0x10
    275c:	ec6dcce3          	blt	s11,t1,0x2634
    2760:	01cfaeb3          	slt	t4,t6,t3
    2764:	01dc0bb3          	add	s7,s8,t4
    2768:	010b9f93          	slli	t6,s7,0x10
    276c:	410fd513          	srai	a0,t6,0x10
    2770:	ed5ff06f          	j	0x2644
    2774:	01cd27b3          	slt	a5,s10,t3
    2778:	00ff0eb3          	add	t4,t5,a5
    277c:	010e9c13          	slli	s8,t4,0x10
    2780:	410c5513          	srai	a0,s8,0x10
    2784:	d95ff06f          	j	0x2518
    2788:	01cc2533          	slt	a0,s8,t3
    278c:	00af83b3          	add	t2,t6,a0
    2790:	01039593          	slli	a1,t2,0x10
    2794:	4105d513          	srai	a0,a1,0x10
    2798:	d55ff06f          	j	0x24ec
    279c:	01c72433          	slt	s0,a4,t3
    27a0:	008d0f33          	add	t5,s10,s0
    27a4:	010f1793          	slli	a5,t5,0x10
    27a8:	4107d513          	srai	a0,a5,0x10
    27ac:	d15ff06f          	j	0x24c0
    27b0:	01c7abb3          	slt	s7,a5,t3
    27b4:	017c0fb3          	add	t6,s8,s7
    27b8:	010f9513          	slli	a0,t6,0x10
    27bc:	41055513          	srai	a0,a0,0x10
    27c0:	cd5ff06f          	j	0x2494
    27c4:	01c3a2b3          	slt	t0,t2,t3
    27c8:	00570d33          	add	s10,a4,t0
    27cc:	010d1413          	slli	s0,s10,0x10
    27d0:	41045513          	srai	a0,s0,0x10
    27d4:	c95ff06f          	j	0x2468
    27d8:	01c42eb3          	slt	t4,s0,t3
    27dc:	01d78c33          	add	s8,a5,t4
    27e0:	010c1b93          	slli	s7,s8,0x10
    27e4:	410bd513          	srai	a0,s7,0x10
    27e8:	c55ff06f          	j	0x243c
    27ec:	00000593          	li	a1,0
    27f0:	27c050ef          	jal	0x7a6c
    27f4:	00c12683          	lw	a3,12(sp)
    27f8:	00812603          	lw	a2,8(sp)
    27fc:	00050413          	mv	s0,a0
    2800:	00090593          	mv	a1,s2
    2804:	000c8513          	mv	a0,s9
    2808:	2f8040ef          	jal	0x6b00
    280c:	00000e13          	li	t3,0
    2810:	00000313          	li	t1,0
    2814:	00000513          	li	a0,0
    2818:	00000893          	li	a7,0
    281c:	009b05b3          	add	a1,s6,s1
    2820:	40b48733          	sub	a4,s1,a1
    2824:	ffc70293          	addi	t0,a4,-4
    2828:	0022dd13          	srli	s10,t0,0x2
    282c:	001d0f13          	addi	t5,s10,1
    2830:	007f7793          	andi	a5,t5,7
    2834:	00058613          	mv	a2,a1
    2838:	28078c63          	beqz	a5,0x2ad0
    283c:	00100c13          	li	s8,1
    2840:	13878a63          	beq	a5,s8,0x2974
    2844:	00200e93          	li	t4,2
    2848:	11d78063          	beq	a5,t4,0x2948
    284c:	00300b93          	li	s7,3
    2850:	0d778663          	beq	a5,s7,0x291c
    2854:	00400f93          	li	t6,4
    2858:	09f78c63          	beq	a5,t6,0x28f0
    285c:	00500393          	li	t2,5
    2860:	06778263          	beq	a5,t2,0x28c4
    2864:	00600693          	li	a3,6
    2868:	02d78863          	beq	a5,a3,0x2898
    286c:	000e0613          	mv	a2,t3
    2870:	0005ae03          	lw	t3,0(a1)
    2874:	01051513          	slli	a0,a0,0x10
    2878:	01055813          	srli	a6,a0,0x10
    287c:	01c30333          	add	t1,t1,t3
    2880:	306ddee3          	bge	s11,t1,0x339c
    2884:	00a80313          	addi	t1,a6,10
    2888:	01031f13          	slli	t5,t1,0x10
    288c:	410f5513          	srai	a0,t5,0x10
    2890:	00000313          	li	t1,0
    2894:	00458613          	addi	a2,a1,4
    2898:	000e0793          	mv	a5,t3
    289c:	00062e03          	lw	t3,0(a2)
    28a0:	01051c13          	slli	s8,a0,0x10
    28a4:	010c5e93          	srli	t4,s8,0x10
    28a8:	01c30333          	add	t1,t1,t3
    28ac:	3a6dd863          	bge	s11,t1,0x2c5c
    28b0:	00ae8693          	addi	a3,t4,10
    28b4:	01069513          	slli	a0,a3,0x10
    28b8:	41055513          	srai	a0,a0,0x10
    28bc:	00000313          	li	t1,0
    28c0:	00460613          	addi	a2,a2,4
    28c4:	000e0813          	mv	a6,t3
    28c8:	00062e03          	lw	t3,0(a2)
    28cc:	01051713          	slli	a4,a0,0x10
    28d0:	01075293          	srli	t0,a4,0x10
    28d4:	01c30333          	add	t1,t1,t3
    28d8:	366dd863          	bge	s11,t1,0x2c48
    28dc:	00a28313          	addi	t1,t0,10
    28e0:	01031c13          	slli	s8,t1,0x10
    28e4:	410c5513          	srai	a0,s8,0x10
    28e8:	00000313          	li	t1,0
    28ec:	00460613          	addi	a2,a2,4
    28f0:	000e0e93          	mv	t4,t3
    28f4:	00062e03          	lw	t3,0(a2)
    28f8:	01051b93          	slli	s7,a0,0x10
    28fc:	010bdf93          	srli	t6,s7,0x10
    2900:	01c30333          	add	t1,t1,t3
    2904:	326dd863          	bge	s11,t1,0x2c34
    2908:	00af8813          	addi	a6,t6,10
    290c:	01081713          	slli	a4,a6,0x10
    2910:	41075513          	srai	a0,a4,0x10
    2914:	00000313          	li	t1,0
    2918:	00460613          	addi	a2,a2,4
    291c:	000e0293          	mv	t0,t3
    2920:	00062e03          	lw	t3,0(a2)
    2924:	01051d13          	slli	s10,a0,0x10
    2928:	010d5f13          	srli	t5,s10,0x10
    292c:	01c30333          	add	t1,t1,t3
    2930:	2e6dd863          	bge	s11,t1,0x2c20
    2934:	00af0313          	addi	t1,t5,10
    2938:	01031b93          	slli	s7,t1,0x10
    293c:	410bd513          	srai	a0,s7,0x10
    2940:	00000313          	li	t1,0
    2944:	00460613          	addi	a2,a2,4
    2948:	000e0f93          	mv	t6,t3
    294c:	00062e03          	lw	t3,0(a2)
    2950:	01051393          	slli	t2,a0,0x10
    2954:	0103d513          	srli	a0,t2,0x10
    2958:	01c30333          	add	t1,t1,t3
    295c:	2a6dd863          	bge	s11,t1,0x2c0c
    2960:	00a50293          	addi	t0,a0,10
    2964:	01029d13          	slli	s10,t0,0x10
    2968:	410d5513          	srai	a0,s10,0x10
    296c:	00000313          	li	t1,0
    2970:	00460613          	addi	a2,a2,4
    2974:	000e0f13          	mv	t5,t3
    2978:	00062e03          	lw	t3,0(a2)
    297c:	01051793          	slli	a5,a0,0x10
    2980:	0107dc13          	srli	s8,a5,0x10
    2984:	01c30333          	add	t1,t1,t3
    2988:	266dd863          	bge	s11,t1,0x2bf8
    298c:	00ac0313          	addi	t1,s8,10
    2990:	01031393          	slli	t2,t1,0x10
    2994:	4103d513          	srai	a0,t2,0x10
    2998:	00000313          	li	t1,0
    299c:	00460613          	addi	a2,a2,4
    29a0:	12961863          	bne	a2,s1,0x2ad0
    29a4:	415584b3          	sub	s1,a1,s5
    29a8:	00188593          	addi	a1,a7,1
    29ac:	2d488263          	beq	a7,s4,0x2c70
    29b0:	00058893          	mv	a7,a1
    29b4:	e69ff06f          	j	0x281c
    29b8:	010e2e33          	slt	t3,t3,a6
    29bc:	00462b83          	lw	s7,4(a2)
    29c0:	01c68733          	add	a4,a3,t3
    29c4:	01071293          	slli	t0,a4,0x10
    29c8:	4102d793          	srai	a5,t0,0x10
    29cc:	01079e93          	slli	t4,a5,0x10
    29d0:	017c0333          	add	t1,s8,s7
    29d4:	010edf93          	srli	t6,t4,0x10
    29d8:	00460613          	addi	a2,a2,4
    29dc:	126dd863          	bge	s11,t1,0x2b0c
    29e0:	00462283          	lw	t0,4(a2)
    29e4:	00af8e13          	addi	t3,t6,10
    29e8:	010e1713          	slli	a4,t3,0x10
    29ec:	41075693          	srai	a3,a4,0x10
    29f0:	00000313          	li	t1,0
    29f4:	01069d13          	slli	s10,a3,0x10
    29f8:	005307b3          	add	a5,t1,t0
    29fc:	010d5f13          	srli	t5,s10,0x10
    2a00:	12fdd863          	bge	s11,a5,0x2b30
    2a04:	00862803          	lw	a6,8(a2)
    2a08:	00af0313          	addi	t1,t5,10
    2a0c:	01031393          	slli	t2,t1,0x10
    2a10:	4103df93          	srai	t6,t2,0x10
    2a14:	00000793          	li	a5,0
    2a18:	010f9513          	slli	a0,t6,0x10
    2a1c:	01078e33          	add	t3,a5,a6
    2a20:	01055693          	srli	a3,a0,0x10
    2a24:	13cdd863          	bge	s11,t3,0x2b54
    2a28:	00c62b83          	lw	s7,12(a2)
    2a2c:	00a68793          	addi	a5,a3,10
    2a30:	01079c13          	slli	s8,a5,0x10
    2a34:	410c5f13          	srai	t5,s8,0x10
    2a38:	00000e13          	li	t3,0
    2a3c:	010f1e93          	slli	t4,t5,0x10
    2a40:	017e0333          	add	t1,t3,s7
    2a44:	010edf93          	srli	t6,t4,0x10
    2a48:	126dd863          	bge	s11,t1,0x2b78
    2a4c:	01062283          	lw	t0,16(a2)
    2a50:	00af8e13          	addi	t3,t6,10
    2a54:	010e1713          	slli	a4,t3,0x10
    2a58:	41075693          	srai	a3,a4,0x10
    2a5c:	00000313          	li	t1,0
    2a60:	01069d13          	slli	s10,a3,0x10
    2a64:	005307b3          	add	a5,t1,t0
    2a68:	010d5f13          	srli	t5,s10,0x10
    2a6c:	12fdd863          	bge	s11,a5,0x2b9c
    2a70:	01462803          	lw	a6,20(a2)
    2a74:	00af0313          	addi	t1,t5,10
    2a78:	01031393          	slli	t2,t1,0x10
    2a7c:	4103df93          	srai	t6,t2,0x10
    2a80:	00000793          	li	a5,0
    2a84:	010f9513          	slli	a0,t6,0x10
    2a88:	01078733          	add	a4,a5,a6
    2a8c:	01055693          	srli	a3,a0,0x10
    2a90:	12edd863          	bge	s11,a4,0x2bc0
    2a94:	01862e03          	lw	t3,24(a2)
    2a98:	00a68793          	addi	a5,a3,10
    2a9c:	01079c13          	slli	s8,a5,0x10
    2aa0:	410c5f13          	srai	t5,s8,0x10
    2aa4:	00000713          	li	a4,0
    2aa8:	010f1b93          	slli	s7,t5,0x10
    2aac:	01c70333          	add	t1,a4,t3
    2ab0:	010bde93          	srli	t4,s7,0x10
    2ab4:	126dd863          	bge	s11,t1,0x2be4
    2ab8:	00ae8513          	addi	a0,t4,10
    2abc:	01051693          	slli	a3,a0,0x10
    2ac0:	4106d513          	srai	a0,a3,0x10
    2ac4:	00000313          	li	t1,0
    2ac8:	01c60613          	addi	a2,a2,28
    2acc:	ec960ce3          	beq	a2,s1,0x29a4
    2ad0:	00062803          	lw	a6,0(a2)
    2ad4:	01051513          	slli	a0,a0,0x10
    2ad8:	01055693          	srli	a3,a0,0x10
    2adc:	01030c33          	add	s8,t1,a6
    2ae0:	ed8ddce3          	bge	s11,s8,0x29b8
    2ae4:	00462b83          	lw	s7,4(a2)
    2ae8:	00a68d13          	addi	s10,a3,10
    2aec:	010d1f13          	slli	t5,s10,0x10
    2af0:	410f5793          	srai	a5,t5,0x10
    2af4:	00000c13          	li	s8,0
    2af8:	01079e93          	slli	t4,a5,0x10
    2afc:	017c0333          	add	t1,s8,s7
    2b00:	010edf93          	srli	t6,t4,0x10
    2b04:	00460613          	addi	a2,a2,4
    2b08:	ec6dcce3          	blt	s11,t1,0x29e0
    2b0c:	017823b3          	slt	t2,a6,s7
    2b10:	00462283          	lw	t0,4(a2)
    2b14:	007f8833          	add	a6,t6,t2
    2b18:	01081513          	slli	a0,a6,0x10
    2b1c:	41055693          	srai	a3,a0,0x10
    2b20:	01069d13          	slli	s10,a3,0x10
    2b24:	005307b3          	add	a5,t1,t0
    2b28:	010d5f13          	srli	t5,s10,0x10
    2b2c:	ecfdcce3          	blt	s11,a5,0x2a04
    2b30:	005bac33          	slt	s8,s7,t0
    2b34:	00862803          	lw	a6,8(a2)
    2b38:	018f0bb3          	add	s7,t5,s8
    2b3c:	010b9e93          	slli	t4,s7,0x10
    2b40:	410edf93          	srai	t6,t4,0x10
    2b44:	010f9513          	slli	a0,t6,0x10
    2b48:	01078e33          	add	t3,a5,a6
    2b4c:	01055693          	srli	a3,a0,0x10
    2b50:	edcdcce3          	blt	s11,t3,0x2a28
    2b54:	0102a733          	slt	a4,t0,a6
    2b58:	00c62b83          	lw	s7,12(a2)
    2b5c:	00e682b3          	add	t0,a3,a4
    2b60:	01029d13          	slli	s10,t0,0x10
    2b64:	410d5f13          	srai	t5,s10,0x10
    2b68:	010f1e93          	slli	t4,t5,0x10
    2b6c:	017e0333          	add	t1,t3,s7
    2b70:	010edf93          	srli	t6,t4,0x10
    2b74:	ec6dcce3          	blt	s11,t1,0x2a4c
    2b78:	017823b3          	slt	t2,a6,s7
    2b7c:	01062283          	lw	t0,16(a2)
    2b80:	007f8833          	add	a6,t6,t2
    2b84:	01081513          	slli	a0,a6,0x10
    2b88:	41055693          	srai	a3,a0,0x10
    2b8c:	01069d13          	slli	s10,a3,0x10
    2b90:	005307b3          	add	a5,t1,t0
    2b94:	010d5f13          	srli	t5,s10,0x10
    2b98:	ecfdcce3          	blt	s11,a5,0x2a70
    2b9c:	005bac33          	slt	s8,s7,t0
    2ba0:	01462803          	lw	a6,20(a2)
    2ba4:	018f0bb3          	add	s7,t5,s8
    2ba8:	010b9e93          	slli	t4,s7,0x10
    2bac:	410edf93          	srai	t6,t4,0x10
    2bb0:	010f9513          	slli	a0,t6,0x10
    2bb4:	01078733          	add	a4,a5,a6
    2bb8:	01055693          	srli	a3,a0,0x10
    2bbc:	ecedcce3          	blt	s11,a4,0x2a94
    2bc0:	0102ae33          	slt	t3,t0,a6
    2bc4:	01c682b3          	add	t0,a3,t3
    2bc8:	01862e03          	lw	t3,24(a2)
    2bcc:	01029d13          	slli	s10,t0,0x10
    2bd0:	410d5f13          	srai	t5,s10,0x10
    2bd4:	010f1b93          	slli	s7,t5,0x10
    2bd8:	01c70333          	add	t1,a4,t3
    2bdc:	010bde93          	srli	t4,s7,0x10
    2be0:	ec6dcce3          	blt	s11,t1,0x2ab8
    2be4:	01c82fb3          	slt	t6,a6,t3
    2be8:	01fe83b3          	add	t2,t4,t6
    2bec:	01039813          	slli	a6,t2,0x10
    2bf0:	41085513          	srai	a0,a6,0x10
    2bf4:	ed5ff06f          	j	0x2ac8
    2bf8:	01cf2eb3          	slt	t4,t5,t3
    2bfc:	01dc0bb3          	add	s7,s8,t4
    2c00:	010b9f93          	slli	t6,s7,0x10
    2c04:	410fd513          	srai	a0,t6,0x10
    2c08:	d95ff06f          	j	0x299c
    2c0c:	01cfa6b3          	slt	a3,t6,t3
    2c10:	00d50833          	add	a6,a0,a3
    2c14:	01081713          	slli	a4,a6,0x10
    2c18:	41075513          	srai	a0,a4,0x10
    2c1c:	d55ff06f          	j	0x2970
    2c20:	01c2a7b3          	slt	a5,t0,t3
    2c24:	00ff0c33          	add	s8,t5,a5
    2c28:	010c1e93          	slli	t4,s8,0x10
    2c2c:	410ed513          	srai	a0,t4,0x10
    2c30:	d15ff06f          	j	0x2944
    2c34:	01cea3b3          	slt	t2,t4,t3
    2c38:	007f86b3          	add	a3,t6,t2
    2c3c:	01069513          	slli	a0,a3,0x10
    2c40:	41055513          	srai	a0,a0,0x10
    2c44:	cd5ff06f          	j	0x2918
    2c48:	01c82d33          	slt	s10,a6,t3
    2c4c:	01a28f33          	add	t5,t0,s10
    2c50:	010f1793          	slli	a5,t5,0x10
    2c54:	4107d513          	srai	a0,a5,0x10
    2c58:	c95ff06f          	j	0x28ec
    2c5c:	01c7abb3          	slt	s7,a5,t3
    2c60:	017e8fb3          	add	t6,t4,s7
    2c64:	010f9393          	slli	t2,t6,0x10
    2c68:	4103d513          	srai	a0,t2,0x10
    2c6c:	c55ff06f          	j	0x28c0
    2c70:	00040593          	mv	a1,s0
    2c74:	5f9040ef          	jal	0x7a6c
    2c78:	00c12683          	lw	a3,12(sp)
    2c7c:	00812603          	lw	a2,8(sp)
    2c80:	00090593          	mv	a1,s2
    2c84:	00050413          	mv	s0,a0
    2c88:	000c8513          	mv	a0,s9
    2c8c:	0c0040ef          	jal	0x6d4c
    2c90:	00000613          	li	a2,0
    2c94:	00000593          	li	a1,0
    2c98:	00000f93          	li	t6,0
    2c9c:	00000513          	li	a0,0
    2ca0:	00000693          	li	a3,0
    2ca4:	00261713          	slli	a4,a2,0x2
    2ca8:	00e902b3          	add	t0,s2,a4
    2cac:	00058d13          	mv	s10,a1
    2cb0:	0002a583          	lw	a1,0(t0)
    2cb4:	fffc8f13          	addi	t5,s9,-1
    2cb8:	01051793          	slli	a5,a0,0x10
    2cbc:	00bf8fb3          	add	t6,t6,a1
    2cc0:	0107dc13          	srli	s8,a5,0x10
    2cc4:	003f7b93          	andi	s7,t5,3
    2cc8:	63fdda63          	bge	s11,t6,0x32fc
    2ccc:	00ac0893          	addi	a7,s8,10
    2cd0:	01089f93          	slli	t6,a7,0x10
    2cd4:	410fd513          	srai	a0,t6,0x10
    2cd8:	00000f93          	li	t6,0
    2cdc:	00100e13          	li	t3,1
    2ce0:	00428313          	addi	t1,t0,4
    2ce4:	1f9e7063          	bgeu	t3,s9,0x2ec4
    2ce8:	120b8c63          	beqz	s7,0x2e20
    2cec:	07cb8663          	beq	s7,t3,0x2d58
    2cf0:	00200393          	li	t2,2
    2cf4:	027b8a63          	beq	s7,t2,0x2d28
    2cf8:	00058813          	mv	a6,a1
    2cfc:	0042a583          	lw	a1,4(t0)
    2d00:	01051513          	slli	a0,a0,0x10
    2d04:	01055a13          	srli	s4,a0,0x10
    2d08:	00bf8fb3          	add	t6,t6,a1
    2d0c:	67fdd463          	bge	s11,t6,0x3374
    2d10:	00aa0713          	addi	a4,s4,10
    2d14:	01071293          	slli	t0,a4,0x10
    2d18:	4102d513          	srai	a0,t0,0x10
    2d1c:	00000f93          	li	t6,0
    2d20:	001e0e13          	addi	t3,t3,1
    2d24:	00430313          	addi	t1,t1,4
    2d28:	00058d13          	mv	s10,a1
    2d2c:	00032583          	lw	a1,0(t1)
    2d30:	01051f13          	slli	t5,a0,0x10
    2d34:	010f5793          	srli	a5,t5,0x10
    2d38:	00bf8fb3          	add	t6,t6,a1
    2d3c:	61fdd863          	bge	s11,t6,0x334c
    2d40:	00a78893          	addi	a7,a5,10
    2d44:	01089f93          	slli	t6,a7,0x10
    2d48:	410fd513          	srai	a0,t6,0x10
    2d4c:	00000f93          	li	t6,0
    2d50:	001e0e13          	addi	t3,t3,1
    2d54:	00430313          	addi	t1,t1,4
    2d58:	00058393          	mv	t2,a1
    2d5c:	00032583          	lw	a1,0(t1)
    2d60:	01051813          	slli	a6,a0,0x10
    2d64:	01085513          	srli	a0,a6,0x10
    2d68:	00bf8fb3          	add	t6,t6,a1
    2d6c:	5bfdd263          	bge	s11,t6,0x3310
    2d70:	00a50493          	addi	s1,a0,10
    2d74:	01049713          	slli	a4,s1,0x10
    2d78:	41075513          	srai	a0,a4,0x10
    2d7c:	00000f93          	li	t6,0
    2d80:	001e0e13          	addi	t3,t3,1
    2d84:	00430313          	addi	t1,t1,4
    2d88:	099e6c63          	bltu	t3,s9,0x2e20
    2d8c:	1380006f          	j	0x2ec4
    2d90:	0055a5b3          	slt	a1,a1,t0
    2d94:	00432383          	lw	t2,4(t1)
    2d98:	00bf07b3          	add	a5,t5,a1
    2d9c:	01079c13          	slli	s8,a5,0x10
    2da0:	410c5f93          	srai	t6,s8,0x10
    2da4:	010f9813          	slli	a6,t6,0x10
    2da8:	00788a33          	add	s4,a7,t2
    2dac:	001e0e13          	addi	t3,t3,1
    2db0:	01085513          	srli	a0,a6,0x10
    2db4:	00430313          	addi	t1,t1,4
    2db8:	0b4dd463          	bge	s11,s4,0x2e60
    2dbc:	00432f03          	lw	t5,4(t1)
    2dc0:	00a50293          	addi	t0,a0,10
    2dc4:	01029d13          	slli	s10,t0,0x10
    2dc8:	410d5713          	srai	a4,s10,0x10
    2dcc:	00000a13          	li	s4,0
    2dd0:	01071593          	slli	a1,a4,0x10
    2dd4:	01ea0c33          	add	s8,s4,t5
    2dd8:	0105d793          	srli	a5,a1,0x10
    2ddc:	0b8dd463          	bge	s11,s8,0x2e84
    2de0:	00832583          	lw	a1,8(t1)
    2de4:	00a78393          	addi	t2,a5,10
    2de8:	01039813          	slli	a6,t2,0x10
    2dec:	41085893          	srai	a7,a6,0x10
    2df0:	00000c13          	li	s8,0
    2df4:	01089513          	slli	a0,a7,0x10
    2df8:	00bc0fb3          	add	t6,s8,a1
    2dfc:	01055a13          	srli	s4,a0,0x10
    2e00:	0bfdd463          	bge	s11,t6,0x2ea8
    2e04:	00aa0713          	addi	a4,s4,10
    2e08:	01071293          	slli	t0,a4,0x10
    2e0c:	003e0e13          	addi	t3,t3,3
    2e10:	4102d513          	srai	a0,t0,0x10
    2e14:	00000f93          	li	t6,0
    2e18:	00c30313          	addi	t1,t1,12
    2e1c:	0b9e7463          	bgeu	t3,s9,0x2ec4
    2e20:	00032283          	lw	t0,0(t1)
    2e24:	01051d13          	slli	s10,a0,0x10
    2e28:	010d5f13          	srli	t5,s10,0x10
    2e2c:	005f88b3          	add	a7,t6,t0
    2e30:	f71dd0e3          	bge	s11,a7,0x2d90
    2e34:	00432383          	lw	t2,4(t1)
    2e38:	00af0b93          	addi	s7,t5,10
    2e3c:	010b9e93          	slli	t4,s7,0x10
    2e40:	410edf93          	srai	t6,t4,0x10
    2e44:	00000893          	li	a7,0
    2e48:	010f9813          	slli	a6,t6,0x10
    2e4c:	00788a33          	add	s4,a7,t2
    2e50:	001e0e13          	addi	t3,t3,1
    2e54:	01085513          	srli	a0,a6,0x10
    2e58:	00430313          	addi	t1,t1,4
    2e5c:	f74dc0e3          	blt	s11,s4,0x2dbc
    2e60:	0072aab3          	slt	s5,t0,t2
    2e64:	00432f03          	lw	t5,4(t1)
    2e68:	01550b33          	add	s6,a0,s5
    2e6c:	010b1493          	slli	s1,s6,0x10
    2e70:	4104d713          	srai	a4,s1,0x10
    2e74:	01071593          	slli	a1,a4,0x10
    2e78:	01ea0c33          	add	s8,s4,t5
    2e7c:	0105d793          	srli	a5,a1,0x10
    2e80:	f78dc0e3          	blt	s11,s8,0x2de0
    2e84:	01e3abb3          	slt	s7,t2,t5
    2e88:	00832583          	lw	a1,8(t1)
    2e8c:	01778eb3          	add	t4,a5,s7
    2e90:	010e9f93          	slli	t6,t4,0x10
    2e94:	410fd893          	srai	a7,t6,0x10
    2e98:	01089513          	slli	a0,a7,0x10
    2e9c:	00bc0fb3          	add	t6,s8,a1
    2ea0:	01055a13          	srli	s4,a0,0x10
    2ea4:	f7fdc0e3          	blt	s11,t6,0x2e04
    2ea8:	00bf2ab3          	slt	s5,t5,a1
    2eac:	015a0b33          	add	s6,s4,s5
    2eb0:	010b1493          	slli	s1,s6,0x10
    2eb4:	003e0e13          	addi	t3,t3,3
    2eb8:	4104d513          	srai	a0,s1,0x10
    2ebc:	00c30313          	addi	t1,t1,12
    2ec0:	f79e60e3          	bltu	t3,s9,0x2e20
    2ec4:	00168693          	addi	a3,a3,1
    2ec8:	01960633          	add	a2,a2,s9
    2ecc:	dd96ece3          	bltu	a3,s9,0x2ca4
    2ed0:	00040593          	mv	a1,s0
    2ed4:	399040ef          	jal	0x7a6c
    2ed8:	00c12683          	lw	a3,12(sp)
    2edc:	00812603          	lw	a2,8(sp)
    2ee0:	00090593          	mv	a1,s2
    2ee4:	00050413          	mv	s0,a0
    2ee8:	000c8513          	mv	a0,s9
    2eec:	10c040ef          	jal	0x6ff8
    2ef0:	00000613          	li	a2,0
    2ef4:	00000593          	li	a1,0
    2ef8:	00000f93          	li	t6,0
    2efc:	00000513          	li	a0,0
    2f00:	00000693          	li	a3,0
    2f04:	00261d13          	slli	s10,a2,0x2
    2f08:	01a90f33          	add	t5,s2,s10
    2f0c:	00058793          	mv	a5,a1
    2f10:	000f2583          	lw	a1,0(t5)
    2f14:	fffc8c13          	addi	s8,s9,-1
    2f18:	01051b93          	slli	s7,a0,0x10
    2f1c:	00bf8fb3          	add	t6,t6,a1
    2f20:	010bd393          	srli	t2,s7,0x10
    2f24:	003c7e93          	andi	t4,s8,3
    2f28:	3dfdd063          	bge	s11,t6,0x32e8
    2f2c:	00a38893          	addi	a7,t2,10
    2f30:	01089f93          	slli	t6,a7,0x10
    2f34:	410fd513          	srai	a0,t6,0x10
    2f38:	00000f93          	li	t6,0
    2f3c:	00100e13          	li	t3,1
    2f40:	004f0313          	addi	t1,t5,4
    2f44:	1f9e7063          	bgeu	t3,s9,0x3124
    2f48:	120e8c63          	beqz	t4,0x3080
    2f4c:	07ce8663          	beq	t4,t3,0x2fb8
    2f50:	00200a93          	li	s5,2
    2f54:	035e8a63          	beq	t4,s5,0x2f88
    2f58:	00058b13          	mv	s6,a1
    2f5c:	004f2583          	lw	a1,4(t5)
    2f60:	01051493          	slli	s1,a0,0x10
    2f64:	0104d713          	srli	a4,s1,0x10
    2f68:	00bf8fb3          	add	t6,t6,a1
    2f6c:	3ffdda63          	bge	s11,t6,0x3360
    2f70:	00a70793          	addi	a5,a4,10
    2f74:	01079c13          	slli	s8,a5,0x10
    2f78:	410c5513          	srai	a0,s8,0x10
    2f7c:	00000f93          	li	t6,0
    2f80:	001e0e13          	addi	t3,t3,1
    2f84:	00430313          	addi	t1,t1,4
    2f88:	00058b93          	mv	s7,a1
    2f8c:	00032583          	lw	a1,0(t1)
    2f90:	01051393          	slli	t2,a0,0x10
    2f94:	0103d813          	srli	a6,t2,0x10
    2f98:	00bf8fb3          	add	t6,t6,a1
    2f9c:	39fdde63          	bge	s11,t6,0x3338
    2fa0:	00a80893          	addi	a7,a6,10
    2fa4:	01089f93          	slli	t6,a7,0x10
    2fa8:	410fd513          	srai	a0,t6,0x10
    2fac:	00000f93          	li	t6,0
    2fb0:	001e0e13          	addi	t3,t3,1
    2fb4:	00430313          	addi	t1,t1,4
    2fb8:	00058a93          	mv	s5,a1
    2fbc:	00032583          	lw	a1,0(t1)
    2fc0:	01051b13          	slli	s6,a0,0x10
    2fc4:	010b5493          	srli	s1,s6,0x10
    2fc8:	00bf8fb3          	add	t6,t6,a1
    2fcc:	35fddc63          	bge	s11,t6,0x3324
    2fd0:	00a48f13          	addi	t5,s1,10
    2fd4:	010f1793          	slli	a5,t5,0x10
    2fd8:	4107d513          	srai	a0,a5,0x10
    2fdc:	00000f93          	li	t6,0
    2fe0:	001e0e13          	addi	t3,t3,1
    2fe4:	00430313          	addi	t1,t1,4
    2fe8:	099e6c63          	bltu	t3,s9,0x3080
    2fec:	1380006f          	j	0x3124
    2ff0:	0185a5b3          	slt	a1,a1,s8
    2ff4:	00432a83          	lw	s5,4(t1)
    2ff8:	00b38833          	add	a6,t2,a1
    2ffc:	01081e93          	slli	t4,a6,0x10
    3000:	410edf93          	srai	t6,t4,0x10
    3004:	010f9b13          	slli	s6,t6,0x10
    3008:	01588733          	add	a4,a7,s5
    300c:	001e0e13          	addi	t3,t3,1
    3010:	010b5493          	srli	s1,s6,0x10
    3014:	00430313          	addi	t1,t1,4
    3018:	0aedd463          	bge	s11,a4,0x30c0
    301c:	00432383          	lw	t2,4(t1)
    3020:	00a48c13          	addi	s8,s1,10
    3024:	010c1b93          	slli	s7,s8,0x10
    3028:	410bd793          	srai	a5,s7,0x10
    302c:	00000713          	li	a4,0
    3030:	01079593          	slli	a1,a5,0x10
    3034:	00770eb3          	add	t4,a4,t2
    3038:	0105d813          	srli	a6,a1,0x10
    303c:	0bddd463          	bge	s11,t4,0x30e4
    3040:	00832583          	lw	a1,8(t1)
    3044:	00a80a93          	addi	s5,a6,10
    3048:	010a9b13          	slli	s6,s5,0x10
    304c:	410b5893          	srai	a7,s6,0x10
    3050:	00000e93          	li	t4,0
    3054:	01089493          	slli	s1,a7,0x10
    3058:	00be8fb3          	add	t6,t4,a1
    305c:	0104d713          	srli	a4,s1,0x10
    3060:	0bfdd463          	bge	s11,t6,0x3108
    3064:	00a70793          	addi	a5,a4,10
    3068:	01079c13          	slli	s8,a5,0x10
    306c:	003e0e13          	addi	t3,t3,3
    3070:	410c5513          	srai	a0,s8,0x10
    3074:	00000f93          	li	t6,0
    3078:	00c30313          	addi	t1,t1,12
    307c:	0b9e7463          	bgeu	t3,s9,0x3124
    3080:	00032c03          	lw	s8,0(t1)
    3084:	01051b93          	slli	s7,a0,0x10
    3088:	010bd393          	srli	t2,s7,0x10
    308c:	018f88b3          	add	a7,t6,s8
    3090:	f71dd0e3          	bge	s11,a7,0x2ff0
    3094:	00432a83          	lw	s5,4(t1)
    3098:	00a38513          	addi	a0,t2,10
    309c:	01051a13          	slli	s4,a0,0x10
    30a0:	410a5f93          	srai	t6,s4,0x10
    30a4:	00000893          	li	a7,0
    30a8:	010f9b13          	slli	s6,t6,0x10
    30ac:	01588733          	add	a4,a7,s5
    30b0:	001e0e13          	addi	t3,t3,1
    30b4:	010b5493          	srli	s1,s6,0x10
    30b8:	00430313          	addi	t1,t1,4
    30bc:	f6edc0e3          	blt	s11,a4,0x301c
    30c0:	015c22b3          	slt	t0,s8,s5
    30c4:	00432383          	lw	t2,4(t1)
    30c8:	00548d33          	add	s10,s1,t0
    30cc:	010d1f13          	slli	t5,s10,0x10
    30d0:	410f5793          	srai	a5,t5,0x10
    30d4:	01079593          	slli	a1,a5,0x10
    30d8:	00770eb3          	add	t4,a4,t2
    30dc:	0105d813          	srli	a6,a1,0x10
    30e0:	f7ddc0e3          	blt	s11,t4,0x3040
    30e4:	007aa533          	slt	a0,s5,t2
    30e8:	00832583          	lw	a1,8(t1)
    30ec:	00a80a33          	add	s4,a6,a0
    30f0:	010a1f93          	slli	t6,s4,0x10
    30f4:	410fd893          	srai	a7,t6,0x10
    30f8:	01089493          	slli	s1,a7,0x10
    30fc:	00be8fb3          	add	t6,t4,a1
    3100:	0104d713          	srli	a4,s1,0x10
    3104:	f7fdc0e3          	blt	s11,t6,0x3064
    3108:	00b3a2b3          	slt	t0,t2,a1
    310c:	00570d33          	add	s10,a4,t0
    3110:	010d1f13          	slli	t5,s10,0x10
    3114:	003e0e13          	addi	t3,t3,3
    3118:	410f5513          	srai	a0,t5,0x10
    311c:	00c30313          	addi	t1,t1,12
    3120:	f79e60e3          	bltu	t3,s9,0x3080
    3124:	00168693          	addi	a3,a3,1
    3128:	01960633          	add	a2,a2,s9
    312c:	dd96ece3          	bltu	a3,s9,0x2f04
    3130:	00040593          	mv	a1,s0
    3134:	139040ef          	jal	0x7a6c
    3138:	00000313          	li	t1,0
    313c:	00000893          	li	a7,0
    3140:	00812383          	lw	t2,8(sp)
    3144:	00131b93          	slli	s7,t1,0x1
    3148:	fffc8a13          	addi	s4,s9,-1
    314c:	01738833          	add	a6,t2,s7
    3150:	00085e83          	lhu	t4,0(a6)
    3154:	00100593          	li	a1,1
    3158:	00280613          	addi	a2,a6,2
    315c:	413e8ab3          	sub	s5,t4,s3
    3160:	01581023          	sh	s5,0(a6)
    3164:	007a7b13          	andi	s6,s4,7
    3168:	1395f863          	bgeu	a1,s9,0x3298
    316c:	0c0b0063          	beqz	s6,0x322c
    3170:	0abb0263          	beq	s6,a1,0x3214
    3174:	00200493          	li	s1,2
    3178:	089b0463          	beq	s6,s1,0x3200
    317c:	00300713          	li	a4,3
    3180:	06eb0663          	beq	s6,a4,0x31ec
    3184:	00400f93          	li	t6,4
    3188:	05fb0863          	beq	s6,t6,0x31d8
    318c:	00500293          	li	t0,5
    3190:	025b0a63          	beq	s6,t0,0x31c4
    3194:	00600d13          	li	s10,6
    3198:	01ab0c63          	beq	s6,s10,0x31b0
    319c:	00285f03          	lhu	t5,2(a6)
    31a0:	00048593          	mv	a1,s1
    31a4:	00480613          	addi	a2,a6,4
    31a8:	413f07b3          	sub	a5,t5,s3
    31ac:	00f81123          	sh	a5,2(a6)
    31b0:	00065c03          	lhu	s8,0(a2)
    31b4:	00158593          	addi	a1,a1,1
    31b8:	00260613          	addi	a2,a2,2
    31bc:	413c0e33          	sub	t3,s8,s3
    31c0:	ffc61f23          	sh	t3,-2(a2)
    31c4:	00065403          	lhu	s0,0(a2)
    31c8:	00158593          	addi	a1,a1,1
    31cc:	00260613          	addi	a2,a2,2
    31d0:	41340933          	sub	s2,s0,s3
    31d4:	ff261f23          	sh	s2,-2(a2)
    31d8:	00065d83          	lhu	s11,0(a2)
    31dc:	00158593          	addi	a1,a1,1
    31e0:	00260613          	addi	a2,a2,2
    31e4:	413d86b3          	sub	a3,s11,s3
    31e8:	fed61f23          	sh	a3,-2(a2)
    31ec:	00065b83          	lhu	s7,0(a2)
    31f0:	00158593          	addi	a1,a1,1
    31f4:	00260613          	addi	a2,a2,2
    31f8:	413b83b3          	sub	t2,s7,s3
    31fc:	fe761f23          	sh	t2,-2(a2)
    3200:	00065803          	lhu	a6,0(a2)
    3204:	00158593          	addi	a1,a1,1
    3208:	00260613          	addi	a2,a2,2
    320c:	41380eb3          	sub	t4,a6,s3
    3210:	ffd61f23          	sh	t4,-2(a2)
    3214:	00065a03          	lhu	s4,0(a2)
    3218:	00158593          	addi	a1,a1,1
    321c:	00260613          	addi	a2,a2,2
    3220:	413a0ab3          	sub	s5,s4,s3
    3224:	ff561f23          	sh	s5,-2(a2)
    3228:	0795f863          	bgeu	a1,s9,0x3298
    322c:	00065b03          	lhu	s6,0(a2)
    3230:	00265483          	lhu	s1,2(a2)
    3234:	00465703          	lhu	a4,4(a2)
    3238:	00665d03          	lhu	s10,6(a2)
    323c:	00865c03          	lhu	s8,8(a2)
    3240:	00a65e03          	lhu	t3,10(a2)
    3244:	00c65403          	lhu	s0,12(a2)
    3248:	00e65783          	lhu	a5,14(a2)
    324c:	413b0933          	sub	s2,s6,s3
    3250:	413482b3          	sub	t0,s1,s3
    3254:	41370fb3          	sub	t6,a4,s3
    3258:	413d0f33          	sub	t5,s10,s3
    325c:	413c0db3          	sub	s11,s8,s3
    3260:	413e0bb3          	sub	s7,t3,s3
    3264:	413406b3          	sub	a3,s0,s3
    3268:	413783b3          	sub	t2,a5,s3
    326c:	01261023          	sh	s2,0(a2)
    3270:	00561123          	sh	t0,2(a2)
    3274:	01f61223          	sh	t6,4(a2)
    3278:	01e61323          	sh	t5,6(a2)
    327c:	01b61423          	sh	s11,8(a2)
    3280:	01761523          	sh	s7,10(a2)
    3284:	00d61623          	sh	a3,12(a2)
    3288:	00761723          	sh	t2,14(a2)
    328c:	00858593          	addi	a1,a1,8
    3290:	01060613          	addi	a2,a2,16
    3294:	f995ece3          	bltu	a1,s9,0x322c
    3298:	00188893          	addi	a7,a7,1
    329c:	01930333          	add	t1,t1,s9
    32a0:	eb98e0e3          	bltu	a7,s9,0x3140
    32a4:	03812a03          	lw	s4,56(sp)
    32a8:	03412a83          	lw	s5,52(sp)
    32ac:	03012b03          	lw	s6,48(sp)
    32b0:	02c12b83          	lw	s7,44(sp)
    32b4:	02812c03          	lw	s8,40(sp)
    32b8:	02412c83          	lw	s9,36(sp)
    32bc:	02012d03          	lw	s10,32(sp)
    32c0:	04c12083          	lw	ra,76(sp)
    32c4:	04812403          	lw	s0,72(sp)
    32c8:	01051513          	slli	a0,a0,0x10
    32cc:	04412483          	lw	s1,68(sp)
    32d0:	04012903          	lw	s2,64(sp)
    32d4:	03c12983          	lw	s3,60(sp)
    32d8:	01c12d83          	lw	s11,28(sp)
    32dc:	41055513          	srai	a0,a0,0x10
    32e0:	05010113          	addi	sp,sp,80
    32e4:	00008067          	ret
    32e8:	00b7a833          	slt	a6,a5,a1
    32ec:	01038533          	add	a0,t2,a6
    32f0:	01051a13          	slli	s4,a0,0x10
    32f4:	410a5513          	srai	a0,s4,0x10
    32f8:	c45ff06f          	j	0x2f3c
    32fc:	00bd2e33          	slt	t3,s10,a1
    3300:	01cc0eb3          	add	t4,s8,t3
    3304:	010e9313          	slli	t1,t4,0x10
    3308:	41035513          	srai	a0,t1,0x10
    330c:	9d1ff06f          	j	0x2cdc
    3310:	00b3aa33          	slt	s4,t2,a1
    3314:	01450ab3          	add	s5,a0,s4
    3318:	010a9b13          	slli	s6,s5,0x10
    331c:	410b5513          	srai	a0,s6,0x10
    3320:	a61ff06f          	j	0x2d80
    3324:	00baa733          	slt	a4,s5,a1
    3328:	00e482b3          	add	t0,s1,a4
    332c:	01029d13          	slli	s10,t0,0x10
    3330:	410d5513          	srai	a0,s10,0x10
    3334:	cadff06f          	j	0x2fe0
    3338:	00bbaeb3          	slt	t4,s7,a1
    333c:	01d80533          	add	a0,a6,t4
    3340:	01051a13          	slli	s4,a0,0x10
    3344:	410a5513          	srai	a0,s4,0x10
    3348:	c69ff06f          	j	0x2fb0
    334c:	00bd2c33          	slt	s8,s10,a1
    3350:	01878bb3          	add	s7,a5,s8
    3354:	010b9e93          	slli	t4,s7,0x10
    3358:	410ed513          	srai	a0,t4,0x10
    335c:	9f5ff06f          	j	0x2d50
    3360:	00bb22b3          	slt	t0,s6,a1
    3364:	00570d33          	add	s10,a4,t0
    3368:	010d1f13          	slli	t5,s10,0x10
    336c:	410f5513          	srai	a0,t5,0x10
    3370:	c11ff06f          	j	0x2f80
    3374:	00b82ab3          	slt	s5,a6,a1
    3378:	015a0b33          	add	s6,s4,s5
    337c:	010b1493          	slli	s1,s6,0x10
    3380:	4104d513          	srai	a0,s1,0x10
    3384:	99dff06f          	j	0x2d20
    3388:	01c6a5b3          	slt	a1,a3,t3
    338c:	00b38733          	add	a4,t2,a1
    3390:	01071293          	slli	t0,a4,0x10
    3394:	4102d513          	srai	a0,t0,0x10
    3398:	878ff06f          	j	0x2410
    339c:	01c62733          	slt	a4,a2,t3
    33a0:	00e802b3          	add	t0,a6,a4
    33a4:	01029d13          	slli	s10,t0,0x10
    33a8:	410d5513          	srai	a0,s10,0x10
    33ac:	ce8ff06f          	j	0x2894
    33b0:	00000593          	li	a1,0
    33b4:	6b8040ef          	jal	0x7a6c
    33b8:	00c12983          	lw	s3,12(sp)
    33bc:	00812483          	lw	s1,8(sp)
    33c0:	00050413          	mv	s0,a0
    33c4:	00098693          	mv	a3,s3
    33c8:	00048613          	mv	a2,s1
    33cc:	00090593          	mv	a1,s2
    33d0:	00000513          	li	a0,0
    33d4:	72c030ef          	jal	0x6b00
    33d8:	00040593          	mv	a1,s0
    33dc:	00000513          	li	a0,0
    33e0:	68c040ef          	jal	0x7a6c
    33e4:	00098693          	mv	a3,s3
    33e8:	00048613          	mv	a2,s1
    33ec:	00050d93          	mv	s11,a0
    33f0:	00090593          	mv	a1,s2
    33f4:	00000513          	li	a0,0
    33f8:	155030ef          	jal	0x6d4c
    33fc:	000d8593          	mv	a1,s11
    3400:	00000513          	li	a0,0
    3404:	668040ef          	jal	0x7a6c
    3408:	00050413          	mv	s0,a0
    340c:	00090593          	mv	a1,s2
    3410:	00098693          	mv	a3,s3
    3414:	00048613          	mv	a2,s1
    3418:	00000513          	li	a0,0
    341c:	3dd030ef          	jal	0x6ff8
    3420:	00040593          	mv	a1,s0
    3424:	00000513          	li	a0,0
    3428:	644040ef          	jal	0x7a6c
    342c:	e95ff06f          	j	0x32c0
    3430:	ff010113          	addi	sp,sp,-16
    3434:	00812423          	sw	s0,8(sp)
    3438:	00852683          	lw	a3,8(a0)
    343c:	00060413          	mv	s0,a2
    3440:	00058713          	mv	a4,a1
    3444:	00452603          	lw	a2,4(a0)
    3448:	00c52583          	lw	a1,12(a0)
    344c:	00052503          	lw	a0,0(a0)
    3450:	00112623          	sw	ra,12(sp)
    3454:	b89fe0ef          	jal	0x1fdc
    3458:	00040593          	mv	a1,s0
    345c:	00812403          	lw	s0,8(sp)
    3460:	00c12083          	lw	ra,12(sp)
    3464:	01010113          	addi	sp,sp,16
    3468:	6040406f          	j	0x7a6c
    346c:	fe010113          	addi	sp,sp,-32
    3470:	01312623          	sw	s3,12(sp)
    3474:	01c52983          	lw	s3,28(a0)
    3478:	00112e23          	sw	ra,28(sp)
    347c:	02052c23          	sw	zero,56(a0)
    3480:	02052e23          	sw	zero,60(a0)
    3484:	1e098263          	beqz	s3,0x3668
    3488:	00812c23          	sw	s0,24(sp)
    348c:	00912a23          	sw	s1,20(sp)
    3490:	01212823          	sw	s2,16(sp)
    3494:	0039f793          	andi	a5,s3,3
    3498:	00050413          	mv	s0,a0
    349c:	00000493          	li	s1,0
    34a0:	0a078e63          	beqz	a5,0x355c
    34a4:	00100913          	li	s2,1
    34a8:	07278c63          	beq	a5,s2,0x3520
    34ac:	00200713          	li	a4,2
    34b0:	02e78c63          	beq	a5,a4,0x34e8
    34b4:	00090593          	mv	a1,s2
    34b8:	84cfe0ef          	jal	0x1504
    34bc:	03845583          	lhu	a1,56(s0)
    34c0:	00090493          	mv	s1,s2
    34c4:	6b5030ef          	jal	0x7378
    34c8:	02a41c23          	sh	a0,56(s0)
    34cc:	fff00593          	li	a1,-1
    34d0:	00040513          	mv	a0,s0
    34d4:	830fe0ef          	jal	0x1504
    34d8:	03845583          	lhu	a1,56(s0)
    34dc:	69d030ef          	jal	0x7378
    34e0:	02a41c23          	sh	a0,56(s0)
    34e4:	02a41d23          	sh	a0,58(s0)
    34e8:	00100593          	li	a1,1
    34ec:	00040513          	mv	a0,s0
    34f0:	814fe0ef          	jal	0x1504
    34f4:	03845583          	lhu	a1,56(s0)
    34f8:	681030ef          	jal	0x7378
    34fc:	02a41c23          	sh	a0,56(s0)
    3500:	fff00593          	li	a1,-1
    3504:	00040513          	mv	a0,s0
    3508:	ffdfd0ef          	jal	0x1504
    350c:	03845583          	lhu	a1,56(s0)
    3510:	669030ef          	jal	0x7378
    3514:	02a41c23          	sh	a0,56(s0)
    3518:	18048063          	beqz	s1,0x3698
    351c:	00148493          	addi	s1,s1,1
    3520:	00100593          	li	a1,1
    3524:	00040513          	mv	a0,s0
    3528:	fddfd0ef          	jal	0x1504
    352c:	03845583          	lhu	a1,56(s0)
    3530:	649030ef          	jal	0x7378
    3534:	02a41c23          	sh	a0,56(s0)
    3538:	fff00593          	li	a1,-1
    353c:	00040513          	mv	a0,s0
    3540:	fc5fd0ef          	jal	0x1504
    3544:	03845583          	lhu	a1,56(s0)
    3548:	631030ef          	jal	0x7378
    354c:	02a41c23          	sh	a0,56(s0)
    3550:	12048c63          	beqz	s1,0x3688
    3554:	00148493          	addi	s1,s1,1
    3558:	14998663          	beq	s3,s1,0x36a4
    355c:	01412423          	sw	s4,8(sp)
    3560:	00100593          	li	a1,1
    3564:	00040513          	mv	a0,s0
    3568:	f9dfd0ef          	jal	0x1504
    356c:	03845583          	lhu	a1,56(s0)
    3570:	609030ef          	jal	0x7378
    3574:	02a41c23          	sh	a0,56(s0)
    3578:	fff00593          	li	a1,-1
    357c:	00040513          	mv	a0,s0
    3580:	f85fd0ef          	jal	0x1504
    3584:	03845583          	lhu	a1,56(s0)
    3588:	5f1030ef          	jal	0x7378
    358c:	00050293          	mv	t0,a0
    3590:	00100593          	li	a1,1
    3594:	02541c23          	sh	t0,56(s0)
    3598:	00040513          	mv	a0,s0
    359c:	00b48933          	add	s2,s1,a1
    35a0:	00049463          	bnez	s1,0x35a8
    35a4:	02541d23          	sh	t0,58(s0)
    35a8:	f5dfd0ef          	jal	0x1504
    35ac:	03845583          	lhu	a1,56(s0)
    35b0:	5c9030ef          	jal	0x7378
    35b4:	02a41c23          	sh	a0,56(s0)
    35b8:	fff00593          	li	a1,-1
    35bc:	00040513          	mv	a0,s0
    35c0:	f45fd0ef          	jal	0x1504
    35c4:	03845583          	lhu	a1,56(s0)
    35c8:	5b1030ef          	jal	0x7378
    35cc:	02a41c23          	sh	a0,56(s0)
    35d0:	00091463          	bnez	s2,0x35d8
    35d4:	02a41d23          	sh	a0,58(s0)
    35d8:	00100593          	li	a1,1
    35dc:	00040513          	mv	a0,s0
    35e0:	00b904b3          	add	s1,s2,a1
    35e4:	f21fd0ef          	jal	0x1504
    35e8:	03845583          	lhu	a1,56(s0)
    35ec:	00290a13          	addi	s4,s2,2
    35f0:	589030ef          	jal	0x7378
    35f4:	02a41c23          	sh	a0,56(s0)
    35f8:	fff00593          	li	a1,-1
    35fc:	00040513          	mv	a0,s0
    3600:	f05fd0ef          	jal	0x1504
    3604:	03845583          	lhu	a1,56(s0)
    3608:	571030ef          	jal	0x7378
    360c:	00050313          	mv	t1,a0
    3610:	02641c23          	sh	t1,56(s0)
    3614:	00100593          	li	a1,1
    3618:	00040513          	mv	a0,s0
    361c:	00049463          	bnez	s1,0x3624
    3620:	02641d23          	sh	t1,58(s0)
    3624:	ee1fd0ef          	jal	0x1504
    3628:	03845583          	lhu	a1,56(s0)
    362c:	00390493          	addi	s1,s2,3
    3630:	549030ef          	jal	0x7378
    3634:	02a41c23          	sh	a0,56(s0)
    3638:	fff00593          	li	a1,-1
    363c:	00040513          	mv	a0,s0
    3640:	ec5fd0ef          	jal	0x1504
    3644:	03845583          	lhu	a1,56(s0)
    3648:	531030ef          	jal	0x7378
    364c:	02a41c23          	sh	a0,56(s0)
    3650:	020a0663          	beqz	s4,0x367c
    3654:	f09996e3          	bne	s3,s1,0x3560
    3658:	01812403          	lw	s0,24(sp)
    365c:	01412483          	lw	s1,20(sp)
    3660:	01012903          	lw	s2,16(sp)
    3664:	00812a03          	lw	s4,8(sp)
    3668:	01c12083          	lw	ra,28(sp)
    366c:	00c12983          	lw	s3,12(sp)
    3670:	00000513          	li	a0,0
    3674:	02010113          	addi	sp,sp,32
    3678:	00008067          	ret
    367c:	02a41d23          	sh	a0,58(s0)
    3680:	ee9990e3          	bne	s3,s1,0x3560
    3684:	fd5ff06f          	j	0x3658
    3688:	02a41d23          	sh	a0,58(s0)
    368c:	00148493          	addi	s1,s1,1
    3690:	ec9996e3          	bne	s3,s1,0x355c
    3694:	0100006f          	j	0x36a4
    3698:	02a41d23          	sh	a0,58(s0)
    369c:	00148493          	addi	s1,s1,1
    36a0:	e81ff06f          	j	0x3520
    36a4:	01812403          	lw	s0,24(sp)
    36a8:	01412483          	lw	s1,20(sp)
    36ac:	01012903          	lw	s2,16(sp)
    36b0:	fb9ff06f          	j	0x3668
    36b4:	00500793          	li	a5,5
    36b8:	04a7ec63          	bltu	a5,a0,0x3710
    36bc:	000192b7          	lui	t0,0x19
    36c0:	00251513          	slli	a0,a0,0x2
    36c4:	97828313          	addi	t1,t0,-1672 # 0x18978
    36c8:	006503b3          	add	t2,a0,t1
    36cc:	0003a583          	lw	a1,0(t2)
    36d0:	00058067          	jr	a1
    36d4:	00010637          	lui	a2,0x10
    36d8:	7f062503          	lw	a0,2032(a2) # 0x107f0
    36dc:	00008067          	ret
    36e0:	000108b7          	lui	a7,0x10
    36e4:	7f88a503          	lw	a0,2040(a7) # 0x107f8
    36e8:	00008067          	ret
    36ec:	00010837          	lui	a6,0x10
    36f0:	7f482503          	lw	a0,2036(a6) # 0x107f4
    36f4:	00008067          	ret
    36f8:	00010737          	lui	a4,0x10
    36fc:	01472503          	lw	a0,20(a4) # 0x10014
    3700:	00008067          	ret
    3704:	000106b7          	lui	a3,0x10
    3708:	0106a503          	lw	a0,16(a3) # 0x10010
    370c:	00008067          	ret
    3710:	00000513          	li	a0,0
    3714:	00008067          	ret
    3718:	00000513          	li	a0,0
    371c:	00008067          	ret
    3720:	fff50313          	addi	t1,a0,-1
    3724:	00100e93          	li	t4,1
    3728:	00060813          	mv	a6,a2
    372c:	146ef263          	bgeu	t4,t1,0x3870
    3730:	01d585b3          	add	a1,a1,t4
    3734:	01059293          	slli	t0,a1,0x10
    3738:	0102d593          	srli	a1,t0,0x10
    373c:	000198b7          	lui	a7,0x19
    3740:	0035d793          	srli	a5,a1,0x3
    3744:	00700e13          	li	t3,7
    3748:	0075f393          	andi	t2,a1,7
    374c:	99088893          	addi	a7,a7,-1648 # 0x18990
    3750:	00000713          	li	a4,0
    3754:	00400613          	li	a2,4
    3758:	02c00f13          	li	t5,44
    375c:	0037ff93          	andi	t6,a5,3
    3760:	0bc38463          	beq	t2,t3,0x3808
    3764:	0e766263          	bltu	a2,t2,0x3848
    3768:	ffd38293          	addi	t0,t2,-3
    376c:	01029793          	slli	a5,t0,0x10
    3770:	002f9f93          	slli	t6,t6,0x2
    3774:	0107d393          	srli	t2,a5,0x10
    3778:	01f886b3          	add	a3,a7,t6
    377c:	0c7ee063          	bltu	t4,t2,0x383c
    3780:	0106a783          	lw	a5,16(a3)
    3784:	00800f93          	li	t6,8
    3788:	00170693          	addi	a3,a4,1
    378c:	00df82b3          	add	t0,t6,a3
    3790:	0862fa63          	bgeu	t0,t1,0x3824
    3794:	0007c383          	lbu	t2,0(a5)
    3798:	00e80733          	add	a4,a6,a4
    379c:	00d806b3          	add	a3,a6,a3
    37a0:	00770023          	sb	t2,0(a4)
    37a4:	0017c383          	lbu	t2,1(a5)
    37a8:	00768023          	sb	t2,0(a3)
    37ac:	0027c683          	lbu	a3,2(a5)
    37b0:	00d70123          	sb	a3,2(a4)
    37b4:	0037c383          	lbu	t2,3(a5)
    37b8:	007701a3          	sb	t2,3(a4)
    37bc:	02cf8263          	beq	t6,a2,0x37e0
    37c0:	0047c683          	lbu	a3,4(a5)
    37c4:	00d70223          	sb	a3,4(a4)
    37c8:	0057c383          	lbu	t2,5(a5)
    37cc:	007702a3          	sb	t2,5(a4)
    37d0:	0067c683          	lbu	a3,6(a5)
    37d4:	00d70323          	sb	a3,6(a4)
    37d8:	0077c783          	lbu	a5,7(a5)
    37dc:	00f703a3          	sb	a5,7(a4)
    37e0:	00158593          	addi	a1,a1,1
    37e4:	01059393          	slli	t2,a1,0x10
    37e8:	01f70fb3          	add	t6,a4,t6
    37ec:	0103d593          	srli	a1,t2,0x10
    37f0:	01ef8023          	sb	t5,0(t6)
    37f4:	0035d793          	srli	a5,a1,0x3
    37f8:	0075f393          	andi	t2,a1,7
    37fc:	00028713          	mv	a4,t0
    3800:	0037ff93          	andi	t6,a5,3
    3804:	f7c390e3          	bne	t2,t3,0x3764
    3808:	002f9693          	slli	a3,t6,0x2
    380c:	00d882b3          	add	t0,a7,a3
    3810:	00800f93          	li	t6,8
    3814:	00170693          	addi	a3,a4,1
    3818:	0302a783          	lw	a5,48(t0)
    381c:	00df82b3          	add	t0,t6,a3
    3820:	f662eae3          	bltu	t0,t1,0x3794
    3824:	04a77463          	bgeu	a4,a0,0x386c
    3828:	00100613          	li	a2,1
    382c:	02d57863          	bgeu	a0,a3,0x385c
    3830:	00e80533          	add	a0,a6,a4
    3834:	00000593          	li	a1,0
    3838:	4f00006f          	j	0x3d28
    383c:	0006a783          	lw	a5,0(a3)
    3840:	00400f93          	li	t6,4
    3844:	f45ff06f          	j	0x3788
    3848:	002f9393          	slli	t2,t6,0x2
    384c:	007886b3          	add	a3,a7,t2
    3850:	0206a783          	lw	a5,32(a3)
    3854:	00800f93          	li	t6,8
    3858:	f31ff06f          	j	0x3788
    385c:	40e50633          	sub	a2,a0,a4
    3860:	00000593          	li	a1,0
    3864:	00e80533          	add	a0,a6,a4
    3868:	4c00006f          	j	0x3d28
    386c:	00008067          	ret
    3870:	000e8693          	mv	a3,t4
    3874:	00000713          	li	a4,0
    3878:	fb1ff06f          	j	0x3828
    387c:	00052683          	lw	a3,0(a0)
    3880:	00050613          	mv	a2,a0
    3884:	0006c783          	lbu	a5,0(a3)
    3888:	26078e63          	beqz	a5,0x3b04
    388c:	02c00713          	li	a4,44
    3890:	00000513          	li	a0,0
    3894:	1ee78c63          	beq	a5,a4,0x3a8c
    3898:	02e00813          	li	a6,46
    389c:	23078663          	beq	a5,a6,0x3ac8
    38a0:	1ef86a63          	bltu	a6,a5,0x3a94
    38a4:	fd578f13          	addi	t5,a5,-43
    38a8:	0fdf7f93          	andi	t6,t5,253
    38ac:	020f8663          	beqz	t6,0x38d8
    38b0:	0045af83          	lw	t6,4(a1)
    38b4:	0005a283          	lw	t0,0(a1)
    38b8:	00168693          	addi	a3,a3,1
    38bc:	001f8393          	addi	t2,t6,1
    38c0:	00128893          	addi	a7,t0,1
    38c4:	0075a223          	sw	t2,4(a1)
    38c8:	0115a023          	sw	a7,0(a1)
    38cc:	00100513          	li	a0,1
    38d0:	00d62023          	sw	a3,0(a2)
    38d4:	00008067          	ret
    38d8:	0005a503          	lw	a0,0(a1)
    38dc:	00168793          	addi	a5,a3,1
    38e0:	00150293          	addi	t0,a0,1
    38e4:	0055a023          	sw	t0,0(a1)
    38e8:	0016c383          	lbu	t2,1(a3)
    38ec:	26038663          	beqz	t2,0x3b58
    38f0:	20e38263          	beq	t2,a4,0x3af4
    38f4:	0085a883          	lw	a7,8(a1)
    38f8:	fd038713          	addi	a4,t2,-48
    38fc:	0ff77e13          	zext.b	t3,a4
    3900:	00900313          	li	t1,9
    3904:	00188e93          	addi	t4,a7,1
    3908:	01c37e63          	bgeu	t1,t3,0x3924
    390c:	1f038063          	beq	t2,a6,0x3aec
    3910:	01d5a423          	sw	t4,8(a1)
    3914:	00268693          	addi	a3,a3,2
    3918:	00100513          	li	a0,1
    391c:	00d62023          	sw	a3,0(a2)
    3920:	00008067          	ret
    3924:	01d5a423          	sw	t4,8(a1)
    3928:	0017c683          	lbu	a3,1(a5)
    392c:	00178793          	addi	a5,a5,1
    3930:	18068663          	beqz	a3,0x3abc
    3934:	02c00713          	li	a4,44
    3938:	1ee68e63          	beq	a3,a4,0x3b34
    393c:	02e00813          	li	a6,46
    3940:	03068863          	beq	a3,a6,0x3970
    3944:	fd068f13          	addi	t5,a3,-48
    3948:	0fff7f93          	zext.b	t6,t5
    394c:	00900513          	li	a0,9
    3950:	fdf57ce3          	bgeu	a0,t6,0x3928
    3954:	0105a283          	lw	t0,16(a1)
    3958:	00100513          	li	a0,1
    395c:	00178693          	addi	a3,a5,1
    3960:	00a287b3          	add	a5,t0,a0
    3964:	00f5a823          	sw	a5,16(a1)
    3968:	00d62023          	sw	a3,0(a2)
    396c:	00008067          	ret
    3970:	0105a383          	lw	t2,16(a1)
    3974:	00138893          	addi	a7,t2,1
    3978:	0115a823          	sw	a7,16(a1)
    397c:	0017ce03          	lbu	t3,1(a5)
    3980:	00178793          	addi	a5,a5,1
    3984:	140e0e63          	beqz	t3,0x3ae0
    3988:	02c00713          	li	a4,44
    398c:	0eee0c63          	beq	t3,a4,0x3a84
    3990:	0dfe7313          	andi	t1,t3,223
    3994:	04500e93          	li	t4,69
    3998:	03d30863          	beq	t1,t4,0x39c8
    399c:	fd0e0813          	addi	a6,t3,-48
    39a0:	0ff87f13          	zext.b	t5,a6
    39a4:	00900f93          	li	t6,9
    39a8:	fdeffae3          	bgeu	t6,t5,0x397c
    39ac:	0145a283          	lw	t0,20(a1)
    39b0:	00100513          	li	a0,1
    39b4:	00178693          	addi	a3,a5,1
    39b8:	00a283b3          	add	t2,t0,a0
    39bc:	0075aa23          	sw	t2,20(a1)
    39c0:	00d62023          	sw	a3,0(a2)
    39c4:	00008067          	ret
    39c8:	0145a503          	lw	a0,20(a1)
    39cc:	00178693          	addi	a3,a5,1
    39d0:	00150893          	addi	a7,a0,1
    39d4:	0115aa23          	sw	a7,20(a1)
    39d8:	0017ce03          	lbu	t3,1(a5)
    39dc:	120e0c63          	beqz	t3,0x3b14
    39e0:	02c00313          	li	t1,44
    39e4:	146e0263          	beq	t3,t1,0x3b28
    39e8:	00c5a683          	lw	a3,12(a1)
    39ec:	fd5e0713          	addi	a4,t3,-43
    39f0:	0fd77e93          	andi	t4,a4,253
    39f4:	00168813          	addi	a6,a3,1
    39f8:	0105a623          	sw	a6,12(a1)
    39fc:	000e8a63          	beqz	t4,0x3a10
    3a00:	00278693          	addi	a3,a5,2
    3a04:	00100513          	li	a0,1
    3a08:	00d62023          	sw	a3,0(a2)
    3a0c:	00008067          	ret
    3a10:	0027cf03          	lbu	t5,2(a5)
    3a14:	00278693          	addi	a3,a5,2
    3a18:	0e0f0a63          	beqz	t5,0x3b0c
    3a1c:	106f0063          	beq	t5,t1,0x3b1c
    3a20:	0185af83          	lw	t6,24(a1)
    3a24:	fd0f0293          	addi	t0,t5,-48
    3a28:	0ff2f393          	zext.b	t2,t0
    3a2c:	001f8893          	addi	a7,t6,1
    3a30:	00900513          	li	a0,9
    3a34:	0115ac23          	sw	a7,24(a1)
    3a38:	00757863          	bgeu	a0,t2,0x3a48
    3a3c:	00378693          	addi	a3,a5,3
    3a40:	00100513          	li	a0,1
    3a44:	e8dff06f          	j	0x38d0
    3a48:	00068e13          	mv	t3,a3
    3a4c:	0016c303          	lbu	t1,1(a3)
    3a50:	00168693          	addi	a3,a3,1
    3a54:	02c00713          	li	a4,44
    3a58:	fd030793          	addi	a5,t1,-48
    3a5c:	0ff7fe93          	zext.b	t4,a5
    3a60:	0e030863          	beqz	t1,0x3b50
    3a64:	0ee30063          	beq	t1,a4,0x3b44
    3a68:	ffd570e3          	bgeu	a0,t4,0x3a48
    3a6c:	0045a803          	lw	a6,4(a1)
    3a70:	00100513          	li	a0,1
    3a74:	002e0693          	addi	a3,t3,2
    3a78:	00a80f33          	add	t5,a6,a0
    3a7c:	01e5a223          	sw	t5,4(a1)
    3a80:	e51ff06f          	j	0x38d0
    3a84:	00078693          	mv	a3,a5
    3a88:	00500513          	li	a0,5
    3a8c:	00168693          	addi	a3,a3,1
    3a90:	e41ff06f          	j	0x38d0
    3a94:	fd078313          	addi	t1,a5,-48
    3a98:	0ff37393          	zext.b	t2,t1
    3a9c:	00900893          	li	a7,9
    3aa0:	e078e8e3          	bltu	a7,t2,0x38b0
    3aa4:	0005ae03          	lw	t3,0(a1)
    3aa8:	00168793          	addi	a5,a3,1
    3aac:	001e0e93          	addi	t4,t3,1
    3ab0:	01d5a023          	sw	t4,0(a1)
    3ab4:	0016c683          	lbu	a3,1(a3)
    3ab8:	e80690e3          	bnez	a3,0x3938
    3abc:	00078693          	mv	a3,a5
    3ac0:	00400513          	li	a0,4
    3ac4:	e0dff06f          	j	0x38d0
    3ac8:	0005a503          	lw	a0,0(a1)
    3acc:	00168793          	addi	a5,a3,1
    3ad0:	00150293          	addi	t0,a0,1
    3ad4:	0055a023          	sw	t0,0(a1)
    3ad8:	0016ce03          	lbu	t3,1(a3)
    3adc:	ea0e18e3          	bnez	t3,0x398c
    3ae0:	00078693          	mv	a3,a5
    3ae4:	00500513          	li	a0,5
    3ae8:	de9ff06f          	j	0x38d0
    3aec:	01d5a423          	sw	t4,8(a1)
    3af0:	e8dff06f          	j	0x397c
    3af4:	00078693          	mv	a3,a5
    3af8:	00200513          	li	a0,2
    3afc:	00168693          	addi	a3,a3,1
    3b00:	dd1ff06f          	j	0x38d0
    3b04:	00000513          	li	a0,0
    3b08:	dc9ff06f          	j	0x38d0
    3b0c:	00600513          	li	a0,6
    3b10:	dc1ff06f          	j	0x38d0
    3b14:	00300513          	li	a0,3
    3b18:	db9ff06f          	j	0x38d0
    3b1c:	00600513          	li	a0,6
    3b20:	00168693          	addi	a3,a3,1
    3b24:	dadff06f          	j	0x38d0
    3b28:	00300513          	li	a0,3
    3b2c:	00168693          	addi	a3,a3,1
    3b30:	da1ff06f          	j	0x38d0
    3b34:	00078693          	mv	a3,a5
    3b38:	00400513          	li	a0,4
    3b3c:	00168693          	addi	a3,a3,1
    3b40:	d91ff06f          	j	0x38d0
    3b44:	00700513          	li	a0,7
    3b48:	00168693          	addi	a3,a3,1
    3b4c:	d85ff06f          	j	0x38d0
    3b50:	00700513          	li	a0,7
    3b54:	d7dff06f          	j	0x38d0
    3b58:	00078693          	mv	a3,a5
    3b5c:	00200513          	li	a0,2
    3b60:	d71ff06f          	j	0x38d0
    3b64:	f8010113          	addi	sp,sp,-128
    3b68:	06812c23          	sw	s0,120(sp)
    3b6c:	06912a23          	sw	s1,116(sp)
    3b70:	07212823          	sw	s2,112(sp)
    3b74:	07312623          	sw	s3,108(sp)
    3b78:	07412423          	sw	s4,104(sp)
    3b7c:	07612023          	sw	s6,96(sp)
    3b80:	05712e23          	sw	s7,92(sp)
    3b84:	05812c23          	sw	s8,88(sp)
    3b88:	06112e23          	sw	ra,124(sp)
    3b8c:	07512223          	sw	s5,100(sp)
    3b90:	00058493          	mv	s1,a1
    3b94:	0005c583          	lbu	a1,0(a1)
    3b98:	03010993          	addi	s3,sp,48
    3b9c:	01010413          	addi	s0,sp,16
    3ba0:	02012823          	sw	zero,48(sp)
    3ba4:	00012823          	sw	zero,16(sp)
    3ba8:	0009a223          	sw	zero,4(s3)
    3bac:	0009a423          	sw	zero,8(s3)
    3bb0:	0009a623          	sw	zero,12(s3)
    3bb4:	0009a823          	sw	zero,16(s3)
    3bb8:	0009aa23          	sw	zero,20(s3)
    3bbc:	0009ac23          	sw	zero,24(s3)
    3bc0:	0009ae23          	sw	zero,28(s3)
    3bc4:	00042223          	sw	zero,4(s0)
    3bc8:	00042423          	sw	zero,8(s0)
    3bcc:	00042623          	sw	zero,12(s0)
    3bd0:	00042823          	sw	zero,16(s0)
    3bd4:	00042a23          	sw	zero,20(s0)
    3bd8:	00042c23          	sw	zero,24(s0)
    3bdc:	00042e23          	sw	zero,28(s0)
    3be0:	00050c13          	mv	s8,a0
    3be4:	00060b93          	mv	s7,a2
    3be8:	00068b13          	mv	s6,a3
    3bec:	00070a13          	mv	s4,a4
    3bf0:	00078913          	mv	s2,a5
    3bf4:	10058e63          	beqz	a1,0x3d10
    3bf8:	00912623          	sw	s1,12(sp)
    3bfc:	00c10a93          	addi	s5,sp,12
    3c00:	00098593          	mv	a1,s3
    3c04:	000a8513          	mv	a0,s5
    3c08:	c75ff0ef          	jal	0x387c
    3c0c:	00251813          	slli	a6,a0,0x2
    3c10:	008802b3          	add	t0,a6,s0
    3c14:	00c12703          	lw	a4,12(sp)
    3c18:	0002a783          	lw	a5,0(t0)
    3c1c:	00074303          	lbu	t1,0(a4)
    3c20:	00178393          	addi	t2,a5,1
    3c24:	0072a023          	sw	t2,0(t0)
    3c28:	fc031ce3          	bnez	t1,0x3c00
    3c2c:	01848c33          	add	s8,s1,s8
    3c30:	0f84f863          	bgeu	s1,s8,0x3d20
    3c34:	00048893          	mv	a7,s1
    3c38:	02c00613          	li	a2,44
    3c3c:	0008c503          	lbu	a0,0(a7)
    3c40:	017546b3          	xor	a3,a0,s7
    3c44:	00c50463          	beq	a0,a2,0x3c4c
    3c48:	00d88023          	sb	a3,0(a7)
    3c4c:	014888b3          	add	a7,a7,s4
    3c50:	ff88e6e3          	bltu	a7,s8,0x3c3c
    3c54:	0004ca83          	lbu	s5,0(s1)
    3c58:	020a8c63          	beqz	s5,0x3c90
    3c5c:	00912623          	sw	s1,12(sp)
    3c60:	00c10a93          	addi	s5,sp,12
    3c64:	00098593          	mv	a1,s3
    3c68:	000a8513          	mv	a0,s5
    3c6c:	c11ff0ef          	jal	0x387c
    3c70:	00251e13          	slli	t3,a0,0x2
    3c74:	008e0eb3          	add	t4,t3,s0
    3c78:	00c12f03          	lw	t5,12(sp)
    3c7c:	000eaf83          	lw	t6,0(t4)
    3c80:	000f4583          	lbu	a1,0(t5)
    3c84:	001f8813          	addi	a6,t6,1
    3c88:	010ea023          	sw	a6,0(t4)
    3c8c:	fc059ce3          	bnez	a1,0x3c64
    3c90:	00912623          	sw	s1,12(sp)
    3c94:	02c00293          	li	t0,44
    3c98:	0184fe63          	bgeu	s1,s8,0x3cb4
    3c9c:	0004c783          	lbu	a5,0(s1)
    3ca0:	0167c733          	xor	a4,a5,s6
    3ca4:	00578463          	beq	a5,t0,0x3cac
    3ca8:	00e48023          	sb	a4,0(s1)
    3cac:	014484b3          	add	s1,s1,s4
    3cb0:	ff84e6e3          	bltu	s1,s8,0x3c9c
    3cb4:	00098a13          	mv	s4,s3
    3cb8:	00042503          	lw	a0,0(s0)
    3cbc:	00090593          	mv	a1,s2
    3cc0:	00440413          	addi	s0,s0,4
    3cc4:	101030ef          	jal	0x75c4
    3cc8:	00050593          	mv	a1,a0
    3ccc:	000a2503          	lw	a0,0(s4)
    3cd0:	004a0a13          	addi	s4,s4,4
    3cd4:	0f1030ef          	jal	0x75c4
    3cd8:	00050913          	mv	s2,a0
    3cdc:	fc899ee3          	bne	s3,s0,0x3cb8
    3ce0:	07c12083          	lw	ra,124(sp)
    3ce4:	07812403          	lw	s0,120(sp)
    3ce8:	07412483          	lw	s1,116(sp)
    3cec:	07012903          	lw	s2,112(sp)
    3cf0:	06c12983          	lw	s3,108(sp)
    3cf4:	06812a03          	lw	s4,104(sp)
    3cf8:	06412a83          	lw	s5,100(sp)
    3cfc:	06012b03          	lw	s6,96(sp)
    3d00:	05c12b83          	lw	s7,92(sp)
    3d04:	05812c03          	lw	s8,88(sp)
    3d08:	08010113          	addi	sp,sp,128
    3d0c:	00008067          	ret
    3d10:	00a48c33          	add	s8,s1,a0
    3d14:	f384e0e3          	bltu	s1,s8,0x3c34
    3d18:	00912623          	sw	s1,12(sp)
    3d1c:	f99ff06f          	j	0x3cb4
    3d20:	00912623          	sw	s1,12(sp)
    3d24:	f41ff06f          	j	0x3c64
    3d28:	00f00313          	li	t1,15
    3d2c:	00050713          	mv	a4,a0
    3d30:	02c37e63          	bgeu	t1,a2,0x3d6c
    3d34:	00f77793          	andi	a5,a4,15
    3d38:	0a079063          	bnez	a5,0x3dd8
    3d3c:	08059263          	bnez	a1,0x3dc0
    3d40:	ff067693          	andi	a3,a2,-16
    3d44:	00f67613          	andi	a2,a2,15
    3d48:	00e686b3          	add	a3,a3,a4
    3d4c:	00b72023          	sw	a1,0(a4)
    3d50:	00b72223          	sw	a1,4(a4)
    3d54:	00b72423          	sw	a1,8(a4)
    3d58:	00b72623          	sw	a1,12(a4)
    3d5c:	01070713          	addi	a4,a4,16
    3d60:	fed766e3          	bltu	a4,a3,0x3d4c
    3d64:	00061463          	bnez	a2,0x3d6c
    3d68:	00008067          	ret
    3d6c:	40c306b3          	sub	a3,t1,a2
    3d70:	00269693          	slli	a3,a3,0x2
    3d74:	00000297          	auipc	t0,0x0
    3d78:	005686b3          	add	a3,a3,t0
    3d7c:	00c68067          	jr	12(a3)
    3d80:	00b70723          	sb	a1,14(a4)
    3d84:	00b706a3          	sb	a1,13(a4)
    3d88:	00b70623          	sb	a1,12(a4)
    3d8c:	00b705a3          	sb	a1,11(a4)
    3d90:	00b70523          	sb	a1,10(a4)
    3d94:	00b704a3          	sb	a1,9(a4)
    3d98:	00b70423          	sb	a1,8(a4)
    3d9c:	00b703a3          	sb	a1,7(a4)
    3da0:	00b70323          	sb	a1,6(a4)
    3da4:	00b702a3          	sb	a1,5(a4)
    3da8:	00b70223          	sb	a1,4(a4)
    3dac:	00b701a3          	sb	a1,3(a4)
    3db0:	00b70123          	sb	a1,2(a4)
    3db4:	00b700a3          	sb	a1,1(a4)
    3db8:	00b70023          	sb	a1,0(a4)
    3dbc:	00008067          	ret
    3dc0:	0ff5f593          	zext.b	a1,a1
    3dc4:	00859693          	slli	a3,a1,0x8
    3dc8:	00d5e5b3          	or	a1,a1,a3
    3dcc:	01059693          	slli	a3,a1,0x10
    3dd0:	00d5e5b3          	or	a1,a1,a3
    3dd4:	f6dff06f          	j	0x3d40
    3dd8:	00279693          	slli	a3,a5,0x2
    3ddc:	00000297          	auipc	t0,0x0
    3de0:	005686b3          	add	a3,a3,t0
    3de4:	00008293          	mv	t0,ra
    3de8:	fa0680e7          	jalr	-96(a3)
    3dec:	00028093          	mv	ra,t0
    3df0:	ff078793          	addi	a5,a5,-16
    3df4:	40f70733          	sub	a4,a4,a5
    3df8:	00f60633          	add	a2,a2,a5
    3dfc:	f6c378e3          	bgeu	t1,a2,0x3d6c
    3e00:	f3dff06f          	j	0x3d3c
    3e04:	fd010113          	addi	sp,sp,-48
    3e08:	01412c23          	sw	s4,24(sp)
    3e0c:	02112623          	sw	ra,44(sp)
    3e10:	02812423          	sw	s0,40(sp)
    3e14:	02912223          	sw	s1,36(sp)
    3e18:	03212023          	sw	s2,32(sp)
    3e1c:	01312e23          	sw	s3,28(sp)
    3e20:	01512a23          	sw	s5,20(sp)
    3e24:	01612823          	sw	s6,16(sp)
    3e28:	01712623          	sw	s7,12(sp)
    3e2c:	01812423          	sw	s8,8(sp)
    3e30:	01912223          	sw	s9,4(sp)
    3e34:	01a12023          	sw	s10,0(sp)
    3e38:	00050a13          	mv	s4,a0
    3e3c:	38069663          	bnez	a3,0x41c8
    3e40:	000197b7          	lui	a5,0x19
    3e44:	00060993          	mv	s3,a2
    3e48:	00050493          	mv	s1,a0
    3e4c:	a0c78793          	addi	a5,a5,-1524 # 0x18a0c
    3e50:	12c5f863          	bgeu	a1,a2,0x3f80
    3e54:	00010737          	lui	a4,0x10
    3e58:	00058913          	mv	s2,a1
    3e5c:	10e67863          	bgeu	a2,a4,0x3f6c
    3e60:	10063713          	sltiu	a4,a2,256
    3e64:	00173713          	seqz	a4,a4
    3e68:	00371713          	slli	a4,a4,0x3
    3e6c:	00e656b3          	srl	a3,a2,a4
    3e70:	00d787b3          	add	a5,a5,a3
    3e74:	0007c783          	lbu	a5,0(a5)
    3e78:	02000693          	li	a3,32
    3e7c:	00e787b3          	add	a5,a5,a4
    3e80:	40f68733          	sub	a4,a3,a5
    3e84:	00f68c63          	beq	a3,a5,0x3e9c
    3e88:	00e59933          	sll	s2,a1,a4
    3e8c:	00fa57b3          	srl	a5,s4,a5
    3e90:	00e619b3          	sll	s3,a2,a4
    3e94:	0127e933          	or	s2,a5,s2
    3e98:	00ea14b3          	sll	s1,s4,a4
    3e9c:	0109da93          	srli	s5,s3,0x10
    3ea0:	000a8593          	mv	a1,s5
    3ea4:	00090513          	mv	a0,s2
    3ea8:	01099b13          	slli	s6,s3,0x10
    3eac:	224020ef          	jal	0x60d0
    3eb0:	010b5b13          	srli	s6,s6,0x10
    3eb4:	00050593          	mv	a1,a0
    3eb8:	00050a13          	mv	s4,a0
    3ebc:	000b0513          	mv	a0,s6
    3ec0:	1e4020ef          	jal	0x60a4
    3ec4:	00050413          	mv	s0,a0
    3ec8:	000a8593          	mv	a1,s5
    3ecc:	00090513          	mv	a0,s2
    3ed0:	248020ef          	jal	0x6118
    3ed4:	01051513          	slli	a0,a0,0x10
    3ed8:	0104d713          	srli	a4,s1,0x10
    3edc:	00a76733          	or	a4,a4,a0
    3ee0:	000a0913          	mv	s2,s4
    3ee4:	00877e63          	bgeu	a4,s0,0x3f00
    3ee8:	00e98733          	add	a4,s3,a4
    3eec:	fffa0913          	addi	s2,s4,-1
    3ef0:	01376863          	bltu	a4,s3,0x3f00
    3ef4:	00877663          	bgeu	a4,s0,0x3f00
    3ef8:	ffea0913          	addi	s2,s4,-2
    3efc:	01370733          	add	a4,a4,s3
    3f00:	40870433          	sub	s0,a4,s0
    3f04:	000a8593          	mv	a1,s5
    3f08:	00040513          	mv	a0,s0
    3f0c:	1c4020ef          	jal	0x60d0
    3f10:	00050593          	mv	a1,a0
    3f14:	00050a13          	mv	s4,a0
    3f18:	000b0513          	mv	a0,s6
    3f1c:	188020ef          	jal	0x60a4
    3f20:	00050b13          	mv	s6,a0
    3f24:	000a8593          	mv	a1,s5
    3f28:	00040513          	mv	a0,s0
    3f2c:	1ec020ef          	jal	0x6118
    3f30:	01049493          	slli	s1,s1,0x10
    3f34:	01051513          	slli	a0,a0,0x10
    3f38:	0104d493          	srli	s1,s1,0x10
    3f3c:	00a4e4b3          	or	s1,s1,a0
    3f40:	000a0713          	mv	a4,s4
    3f44:	0164fc63          	bgeu	s1,s6,0x3f5c
    3f48:	009984b3          	add	s1,s3,s1
    3f4c:	fffa0713          	addi	a4,s4,-1
    3f50:	0134e663          	bltu	s1,s3,0x3f5c
    3f54:	0164f463          	bgeu	s1,s6,0x3f5c
    3f58:	ffea0713          	addi	a4,s4,-2
    3f5c:	01091793          	slli	a5,s2,0x10
    3f60:	00e7e7b3          	or	a5,a5,a4
    3f64:	00000913          	li	s2,0
    3f68:	1200006f          	j	0x4088
    3f6c:	010006b7          	lui	a3,0x1000
    3f70:	01800713          	li	a4,24
    3f74:	eed67ce3          	bgeu	a2,a3,0x3e6c
    3f78:	01000713          	li	a4,16
    3f7c:	ef1ff06f          	j	0x3e6c
    3f80:	00000713          	li	a4,0
    3f84:	00060c63          	beqz	a2,0x3f9c
    3f88:	00010737          	lui	a4,0x10
    3f8c:	12e67e63          	bgeu	a2,a4,0x40c8
    3f90:	10063713          	sltiu	a4,a2,256
    3f94:	00173713          	seqz	a4,a4
    3f98:	00371713          	slli	a4,a4,0x3
    3f9c:	00e656b3          	srl	a3,a2,a4
    3fa0:	00d787b3          	add	a5,a5,a3
    3fa4:	0007c783          	lbu	a5,0(a5)
    3fa8:	02000693          	li	a3,32
    3fac:	00e787b3          	add	a5,a5,a4
    3fb0:	40f68733          	sub	a4,a3,a5
    3fb4:	12f69463          	bne	a3,a5,0x40dc
    3fb8:	40c58a33          	sub	s4,a1,a2
    3fbc:	00100913          	li	s2,1
    3fc0:	0109db13          	srli	s6,s3,0x10
    3fc4:	000b0593          	mv	a1,s6
    3fc8:	000a0513          	mv	a0,s4
    3fcc:	01099b93          	slli	s7,s3,0x10
    3fd0:	100020ef          	jal	0x60d0
    3fd4:	010bdb93          	srli	s7,s7,0x10
    3fd8:	00050593          	mv	a1,a0
    3fdc:	00050c13          	mv	s8,a0
    3fe0:	000b8513          	mv	a0,s7
    3fe4:	0c0020ef          	jal	0x60a4
    3fe8:	00050a93          	mv	s5,a0
    3fec:	000b0593          	mv	a1,s6
    3ff0:	000a0513          	mv	a0,s4
    3ff4:	124020ef          	jal	0x6118
    3ff8:	01051513          	slli	a0,a0,0x10
    3ffc:	0104d713          	srli	a4,s1,0x10
    4000:	00a76733          	or	a4,a4,a0
    4004:	000c0a13          	mv	s4,s8
    4008:	01577e63          	bgeu	a4,s5,0x4024
    400c:	00e98733          	add	a4,s3,a4
    4010:	fffc0a13          	addi	s4,s8,-1
    4014:	01376863          	bltu	a4,s3,0x4024
    4018:	01577663          	bgeu	a4,s5,0x4024
    401c:	ffec0a13          	addi	s4,s8,-2
    4020:	01370733          	add	a4,a4,s3
    4024:	41570433          	sub	s0,a4,s5
    4028:	000b0593          	mv	a1,s6
    402c:	00040513          	mv	a0,s0
    4030:	0a0020ef          	jal	0x60d0
    4034:	00050593          	mv	a1,a0
    4038:	00050a93          	mv	s5,a0
    403c:	000b8513          	mv	a0,s7
    4040:	064020ef          	jal	0x60a4
    4044:	00050b93          	mv	s7,a0
    4048:	000b0593          	mv	a1,s6
    404c:	00040513          	mv	a0,s0
    4050:	0c8020ef          	jal	0x6118
    4054:	01049493          	slli	s1,s1,0x10
    4058:	01051513          	slli	a0,a0,0x10
    405c:	0104d493          	srli	s1,s1,0x10
    4060:	00a4e4b3          	or	s1,s1,a0
    4064:	000a8713          	mv	a4,s5
    4068:	0174fc63          	bgeu	s1,s7,0x4080
    406c:	009984b3          	add	s1,s3,s1
    4070:	fffa8713          	addi	a4,s5,-1
    4074:	0134e663          	bltu	s1,s3,0x4080
    4078:	0174f463          	bgeu	s1,s7,0x4080
    407c:	ffea8713          	addi	a4,s5,-2
    4080:	010a1793          	slli	a5,s4,0x10
    4084:	00e7e7b3          	or	a5,a5,a4
    4088:	02c12083          	lw	ra,44(sp)
    408c:	02812403          	lw	s0,40(sp)
    4090:	02412483          	lw	s1,36(sp)
    4094:	01c12983          	lw	s3,28(sp)
    4098:	01812a03          	lw	s4,24(sp)
    409c:	01412a83          	lw	s5,20(sp)
    40a0:	01012b03          	lw	s6,16(sp)
    40a4:	00c12b83          	lw	s7,12(sp)
    40a8:	00812c03          	lw	s8,8(sp)
    40ac:	00412c83          	lw	s9,4(sp)
    40b0:	00012d03          	lw	s10,0(sp)
    40b4:	00090593          	mv	a1,s2
    40b8:	00078513          	mv	a0,a5
    40bc:	02012903          	lw	s2,32(sp)
    40c0:	03010113          	addi	sp,sp,48
    40c4:	00008067          	ret
    40c8:	010006b7          	lui	a3,0x1000
    40cc:	01800713          	li	a4,24
    40d0:	ecd676e3          	bgeu	a2,a3,0x3f9c
    40d4:	01000713          	li	a4,16
    40d8:	ec5ff06f          	j	0x3f9c
    40dc:	00e619b3          	sll	s3,a2,a4
    40e0:	00f5d933          	srl	s2,a1,a5
    40e4:	0109db93          	srli	s7,s3,0x10
    40e8:	00e595b3          	sll	a1,a1,a4
    40ec:	00fa57b3          	srl	a5,s4,a5
    40f0:	00b7eab3          	or	s5,a5,a1
    40f4:	00ea14b3          	sll	s1,s4,a4
    40f8:	000b8593          	mv	a1,s7
    40fc:	00090513          	mv	a0,s2
    4100:	01099a13          	slli	s4,s3,0x10
    4104:	7cd010ef          	jal	0x60d0
    4108:	010a5a13          	srli	s4,s4,0x10
    410c:	00050593          	mv	a1,a0
    4110:	00050b13          	mv	s6,a0
    4114:	000a0513          	mv	a0,s4
    4118:	78d010ef          	jal	0x60a4
    411c:	00050413          	mv	s0,a0
    4120:	000b8593          	mv	a1,s7
    4124:	00090513          	mv	a0,s2
    4128:	7f1010ef          	jal	0x6118
    412c:	01051513          	slli	a0,a0,0x10
    4130:	010ad713          	srli	a4,s5,0x10
    4134:	00a76733          	or	a4,a4,a0
    4138:	000b0913          	mv	s2,s6
    413c:	00877e63          	bgeu	a4,s0,0x4158
    4140:	00e98733          	add	a4,s3,a4
    4144:	fffb0913          	addi	s2,s6,-1
    4148:	01376863          	bltu	a4,s3,0x4158
    414c:	00877663          	bgeu	a4,s0,0x4158
    4150:	ffeb0913          	addi	s2,s6,-2
    4154:	01370733          	add	a4,a4,s3
    4158:	40870433          	sub	s0,a4,s0
    415c:	000b8593          	mv	a1,s7
    4160:	00040513          	mv	a0,s0
    4164:	76d010ef          	jal	0x60d0
    4168:	00050593          	mv	a1,a0
    416c:	00050b13          	mv	s6,a0
    4170:	000a0513          	mv	a0,s4
    4174:	731010ef          	jal	0x60a4
    4178:	00050a13          	mv	s4,a0
    417c:	000b8593          	mv	a1,s7
    4180:	00040513          	mv	a0,s0
    4184:	795010ef          	jal	0x6118
    4188:	010a9793          	slli	a5,s5,0x10
    418c:	01051513          	slli	a0,a0,0x10
    4190:	0107d793          	srli	a5,a5,0x10
    4194:	00a7e7b3          	or	a5,a5,a0
    4198:	000b0713          	mv	a4,s6
    419c:	0147fe63          	bgeu	a5,s4,0x41b8
    41a0:	00f987b3          	add	a5,s3,a5
    41a4:	fffb0713          	addi	a4,s6,-1
    41a8:	0137e863          	bltu	a5,s3,0x41b8
    41ac:	0147f663          	bgeu	a5,s4,0x41b8
    41b0:	ffeb0713          	addi	a4,s6,-2
    41b4:	013787b3          	add	a5,a5,s3
    41b8:	01091913          	slli	s2,s2,0x10
    41bc:	41478a33          	sub	s4,a5,s4
    41c0:	00e96933          	or	s2,s2,a4
    41c4:	dfdff06f          	j	0x3fc0
    41c8:	1ed5ec63          	bltu	a1,a3,0x43c0
    41cc:	000107b7          	lui	a5,0x10
    41d0:	04f6f463          	bgeu	a3,a5,0x4218
    41d4:	1006b713          	sltiu	a4,a3,256
    41d8:	00173713          	seqz	a4,a4
    41dc:	00371713          	slli	a4,a4,0x3
    41e0:	000197b7          	lui	a5,0x19
    41e4:	00e6d533          	srl	a0,a3,a4
    41e8:	a0c78793          	addi	a5,a5,-1524 # 0x18a0c
    41ec:	00a787b3          	add	a5,a5,a0
    41f0:	0007c803          	lbu	a6,0(a5)
    41f4:	02000793          	li	a5,32
    41f8:	00e80833          	add	a6,a6,a4
    41fc:	41078933          	sub	s2,a5,a6
    4200:	03079663          	bne	a5,a6,0x422c
    4204:	00100793          	li	a5,1
    4208:	e8b6e0e3          	bltu	a3,a1,0x4088
    420c:	00ca37b3          	sltu	a5,s4,a2
    4210:	0017b793          	seqz	a5,a5
    4214:	e75ff06f          	j	0x4088
    4218:	010007b7          	lui	a5,0x1000
    421c:	01800713          	li	a4,24
    4220:	fcf6f0e3          	bgeu	a3,a5,0x41e0
    4224:	01000713          	li	a4,16
    4228:	fb9ff06f          	j	0x41e0
    422c:	012696b3          	sll	a3,a3,s2
    4230:	01065ab3          	srl	s5,a2,a6
    4234:	00daeab3          	or	s5,s5,a3
    4238:	0105d9b3          	srl	s3,a1,a6
    423c:	010adc13          	srli	s8,s5,0x10
    4240:	010a5833          	srl	a6,s4,a6
    4244:	012595b3          	sll	a1,a1,s2
    4248:	00b864b3          	or	s1,a6,a1
    424c:	010a9b93          	slli	s7,s5,0x10
    4250:	000c0593          	mv	a1,s8
    4254:	00098513          	mv	a0,s3
    4258:	01261433          	sll	s0,a2,s2
    425c:	010bdb93          	srli	s7,s7,0x10
    4260:	671010ef          	jal	0x60d0
    4264:	00050593          	mv	a1,a0
    4268:	00050d13          	mv	s10,a0
    426c:	000b8513          	mv	a0,s7
    4270:	635010ef          	jal	0x60a4
    4274:	00050c93          	mv	s9,a0
    4278:	000c0593          	mv	a1,s8
    427c:	00098513          	mv	a0,s3
    4280:	699010ef          	jal	0x6118
    4284:	01051513          	slli	a0,a0,0x10
    4288:	0104d693          	srli	a3,s1,0x10
    428c:	00a6e6b3          	or	a3,a3,a0
    4290:	000d0b13          	mv	s6,s10
    4294:	0196fe63          	bgeu	a3,s9,0x42b0
    4298:	00da86b3          	add	a3,s5,a3
    429c:	fffd0b13          	addi	s6,s10,-1
    42a0:	0156e863          	bltu	a3,s5,0x42b0
    42a4:	0196f663          	bgeu	a3,s9,0x42b0
    42a8:	ffed0b13          	addi	s6,s10,-2
    42ac:	015686b3          	add	a3,a3,s5
    42b0:	419689b3          	sub	s3,a3,s9
    42b4:	000c0593          	mv	a1,s8
    42b8:	00098513          	mv	a0,s3
    42bc:	615010ef          	jal	0x60d0
    42c0:	00050593          	mv	a1,a0
    42c4:	00050c93          	mv	s9,a0
    42c8:	000b8513          	mv	a0,s7
    42cc:	5d9010ef          	jal	0x60a4
    42d0:	00050b93          	mv	s7,a0
    42d4:	000c0593          	mv	a1,s8
    42d8:	00098513          	mv	a0,s3
    42dc:	63d010ef          	jal	0x6118
    42e0:	01049713          	slli	a4,s1,0x10
    42e4:	01051513          	slli	a0,a0,0x10
    42e8:	01075713          	srli	a4,a4,0x10
    42ec:	00a76733          	or	a4,a4,a0
    42f0:	000c8693          	mv	a3,s9
    42f4:	01777e63          	bgeu	a4,s7,0x4310
    42f8:	00ea8733          	add	a4,s5,a4
    42fc:	fffc8693          	addi	a3,s9,-1
    4300:	01576863          	bltu	a4,s5,0x4310
    4304:	01777663          	bgeu	a4,s7,0x4310
    4308:	ffec8693          	addi	a3,s9,-2
    430c:	01570733          	add	a4,a4,s5
    4310:	010b1793          	slli	a5,s6,0x10
    4314:	01069813          	slli	a6,a3,0x10
    4318:	01041313          	slli	t1,s0,0x10
    431c:	00d7e7b3          	or	a5,a5,a3
    4320:	01085813          	srli	a6,a6,0x10
    4324:	01035313          	srli	t1,t1,0x10
    4328:	41770733          	sub	a4,a4,s7
    432c:	0107de13          	srli	t3,a5,0x10
    4330:	01045413          	srli	s0,s0,0x10
    4334:	00080513          	mv	a0,a6
    4338:	00030593          	mv	a1,t1
    433c:	569010ef          	jal	0x60a4
    4340:	00050893          	mv	a7,a0
    4344:	00040593          	mv	a1,s0
    4348:	00080513          	mv	a0,a6
    434c:	559010ef          	jal	0x60a4
    4350:	00050813          	mv	a6,a0
    4354:	00030593          	mv	a1,t1
    4358:	000e0513          	mv	a0,t3
    435c:	549010ef          	jal	0x60a4
    4360:	00050313          	mv	t1,a0
    4364:	00040593          	mv	a1,s0
    4368:	000e0513          	mv	a0,t3
    436c:	539010ef          	jal	0x60a4
    4370:	0108d693          	srli	a3,a7,0x10
    4374:	00680833          	add	a6,a6,t1
    4378:	010686b3          	add	a3,a3,a6
    437c:	00050613          	mv	a2,a0
    4380:	0066f663          	bgeu	a3,t1,0x438c
    4384:	000105b7          	lui	a1,0x10
    4388:	00b50633          	add	a2,a0,a1
    438c:	0106d593          	srli	a1,a3,0x10
    4390:	00c58633          	add	a2,a1,a2
    4394:	02c76263          	bltu	a4,a2,0x43b8
    4398:	bcc716e3          	bne	a4,a2,0x3f64
    439c:	01089893          	slli	a7,a7,0x10
    43a0:	01069693          	slli	a3,a3,0x10
    43a4:	0108d893          	srli	a7,a7,0x10
    43a8:	012a1733          	sll	a4,s4,s2
    43ac:	011686b3          	add	a3,a3,a7
    43b0:	00000913          	li	s2,0
    43b4:	ccd77ae3          	bgeu	a4,a3,0x4088
    43b8:	fff78793          	addi	a5,a5,-1 # 0xffffff
    43bc:	ba9ff06f          	j	0x3f64
    43c0:	00000913          	li	s2,0
    43c4:	00000793          	li	a5,0
    43c8:	cc1ff06f          	j	0x4088
    43cc:	fd010113          	addi	sp,sp,-48
    43d0:	02812423          	sw	s0,40(sp)
    43d4:	02912223          	sw	s1,36(sp)
    43d8:	02112623          	sw	ra,44(sp)
    43dc:	03212023          	sw	s2,32(sp)
    43e0:	01312e23          	sw	s3,28(sp)
    43e4:	01412c23          	sw	s4,24(sp)
    43e8:	01512a23          	sw	s5,20(sp)
    43ec:	01612823          	sw	s6,16(sp)
    43f0:	01712623          	sw	s7,12(sp)
    43f4:	01812423          	sw	s8,8(sp)
    43f8:	01912223          	sw	s9,4(sp)
    43fc:	01a12023          	sw	s10,0(sp)
    4400:	00050413          	mv	s0,a0
    4404:	00058493          	mv	s1,a1
    4408:	24069c63          	bnez	a3,0x4660
    440c:	000197b7          	lui	a5,0x19
    4410:	00060993          	mv	s3,a2
    4414:	a0c78793          	addi	a5,a5,-1524 # 0x18a0c
    4418:	12c5fe63          	bgeu	a1,a2,0x4554
    441c:	00010737          	lui	a4,0x10
    4420:	12e67063          	bgeu	a2,a4,0x4540
    4424:	10063713          	sltiu	a4,a2,256
    4428:	00173713          	seqz	a4,a4
    442c:	00371713          	slli	a4,a4,0x3
    4430:	00e656b3          	srl	a3,a2,a4
    4434:	00d787b3          	add	a5,a5,a3
    4438:	0007c783          	lbu	a5,0(a5)
    443c:	00e787b3          	add	a5,a5,a4
    4440:	02000713          	li	a4,32
    4444:	40f70933          	sub	s2,a4,a5
    4448:	00f70c63          	beq	a4,a5,0x4460
    444c:	012594b3          	sll	s1,a1,s2
    4450:	00f557b3          	srl	a5,a0,a5
    4454:	012619b3          	sll	s3,a2,s2
    4458:	0097e4b3          	or	s1,a5,s1
    445c:	01251433          	sll	s0,a0,s2
    4460:	0109da93          	srli	s5,s3,0x10
    4464:	000a8593          	mv	a1,s5
    4468:	01099b13          	slli	s6,s3,0x10
    446c:	00048513          	mv	a0,s1
    4470:	461010ef          	jal	0x60d0
    4474:	010b5b13          	srli	s6,s6,0x10
    4478:	000b0593          	mv	a1,s6
    447c:	429010ef          	jal	0x60a4
    4480:	00050a13          	mv	s4,a0
    4484:	000a8593          	mv	a1,s5
    4488:	00048513          	mv	a0,s1
    448c:	48d010ef          	jal	0x6118
    4490:	01051513          	slli	a0,a0,0x10
    4494:	01045793          	srli	a5,s0,0x10
    4498:	00a7e7b3          	or	a5,a5,a0
    449c:	0147fa63          	bgeu	a5,s4,0x44b0
    44a0:	00f987b3          	add	a5,s3,a5
    44a4:	0137e663          	bltu	a5,s3,0x44b0
    44a8:	0147f463          	bgeu	a5,s4,0x44b0
    44ac:	013787b3          	add	a5,a5,s3
    44b0:	414784b3          	sub	s1,a5,s4
    44b4:	000a8593          	mv	a1,s5
    44b8:	00048513          	mv	a0,s1
    44bc:	415010ef          	jal	0x60d0
    44c0:	000b0593          	mv	a1,s6
    44c4:	3e1010ef          	jal	0x60a4
    44c8:	00050a13          	mv	s4,a0
    44cc:	000a8593          	mv	a1,s5
    44d0:	00048513          	mv	a0,s1
    44d4:	445010ef          	jal	0x6118
    44d8:	01041413          	slli	s0,s0,0x10
    44dc:	01051513          	slli	a0,a0,0x10
    44e0:	01045413          	srli	s0,s0,0x10
    44e4:	00a46433          	or	s0,s0,a0
    44e8:	01447a63          	bgeu	s0,s4,0x44fc
    44ec:	00898433          	add	s0,s3,s0
    44f0:	01346663          	bltu	s0,s3,0x44fc
    44f4:	01447463          	bgeu	s0,s4,0x44fc
    44f8:	01340433          	add	s0,s0,s3
    44fc:	41440433          	sub	s0,s0,s4
    4500:	01245533          	srl	a0,s0,s2
    4504:	00000593          	li	a1,0
    4508:	02c12083          	lw	ra,44(sp)
    450c:	02812403          	lw	s0,40(sp)
    4510:	02412483          	lw	s1,36(sp)
    4514:	02012903          	lw	s2,32(sp)
    4518:	01c12983          	lw	s3,28(sp)
    451c:	01812a03          	lw	s4,24(sp)
    4520:	01412a83          	lw	s5,20(sp)
    4524:	01012b03          	lw	s6,16(sp)
    4528:	00c12b83          	lw	s7,12(sp)
    452c:	00812c03          	lw	s8,8(sp)
    4530:	00412c83          	lw	s9,4(sp)
    4534:	00012d03          	lw	s10,0(sp)
    4538:	03010113          	addi	sp,sp,48
    453c:	00008067          	ret
    4540:	010006b7          	lui	a3,0x1000
    4544:	01800713          	li	a4,24
    4548:	eed674e3          	bgeu	a2,a3,0x4430
    454c:	01000713          	li	a4,16
    4550:	ee1ff06f          	j	0x4430
    4554:	00000713          	li	a4,0
    4558:	00060c63          	beqz	a2,0x4570
    455c:	00010737          	lui	a4,0x10
    4560:	0ee67663          	bgeu	a2,a4,0x464c
    4564:	10063713          	sltiu	a4,a2,256
    4568:	00173713          	seqz	a4,a4
    456c:	00371713          	slli	a4,a4,0x3
    4570:	00e656b3          	srl	a3,a2,a4
    4574:	00d787b3          	add	a5,a5,a3
    4578:	0007c783          	lbu	a5,0(a5)
    457c:	40c584b3          	sub	s1,a1,a2
    4580:	00e787b3          	add	a5,a5,a4
    4584:	02000713          	li	a4,32
    4588:	40f70933          	sub	s2,a4,a5
    458c:	ecf70ae3          	beq	a4,a5,0x4460
    4590:	012619b3          	sll	s3,a2,s2
    4594:	00f5dbb3          	srl	s7,a1,a5
    4598:	0109db13          	srli	s6,s3,0x10
    459c:	00f557b3          	srl	a5,a0,a5
    45a0:	012595b3          	sll	a1,a1,s2
    45a4:	00b7ea33          	or	s4,a5,a1
    45a8:	01251433          	sll	s0,a0,s2
    45ac:	000b0593          	mv	a1,s6
    45b0:	01099a93          	slli	s5,s3,0x10
    45b4:	000b8513          	mv	a0,s7
    45b8:	319010ef          	jal	0x60d0
    45bc:	010ada93          	srli	s5,s5,0x10
    45c0:	000a8593          	mv	a1,s5
    45c4:	2e1010ef          	jal	0x60a4
    45c8:	00050493          	mv	s1,a0
    45cc:	000b0593          	mv	a1,s6
    45d0:	000b8513          	mv	a0,s7
    45d4:	345010ef          	jal	0x6118
    45d8:	01051513          	slli	a0,a0,0x10
    45dc:	010a5713          	srli	a4,s4,0x10
    45e0:	00a76733          	or	a4,a4,a0
    45e4:	00977a63          	bgeu	a4,s1,0x45f8
    45e8:	00e98733          	add	a4,s3,a4
    45ec:	01376663          	bltu	a4,s3,0x45f8
    45f0:	00977463          	bgeu	a4,s1,0x45f8
    45f4:	01370733          	add	a4,a4,s3
    45f8:	409704b3          	sub	s1,a4,s1
    45fc:	000b0593          	mv	a1,s6
    4600:	00048513          	mv	a0,s1
    4604:	2cd010ef          	jal	0x60d0
    4608:	000a8593          	mv	a1,s5
    460c:	299010ef          	jal	0x60a4
    4610:	00050a93          	mv	s5,a0
    4614:	000b0593          	mv	a1,s6
    4618:	00048513          	mv	a0,s1
    461c:	2fd010ef          	jal	0x6118
    4620:	010a1793          	slli	a5,s4,0x10
    4624:	01051513          	slli	a0,a0,0x10
    4628:	0107d793          	srli	a5,a5,0x10
    462c:	00a7e7b3          	or	a5,a5,a0
    4630:	0157fa63          	bgeu	a5,s5,0x4644
    4634:	00f987b3          	add	a5,s3,a5
    4638:	0137e663          	bltu	a5,s3,0x4644
    463c:	0157f463          	bgeu	a5,s5,0x4644
    4640:	013787b3          	add	a5,a5,s3
    4644:	415784b3          	sub	s1,a5,s5
    4648:	e19ff06f          	j	0x4460
    464c:	010006b7          	lui	a3,0x1000
    4650:	01800713          	li	a4,24
    4654:	f0d67ee3          	bgeu	a2,a3,0x4570
    4658:	01000713          	li	a4,16
    465c:	f15ff06f          	j	0x4570
    4660:	ead5e4e3          	bltu	a1,a3,0x4508
    4664:	000107b7          	lui	a5,0x10
    4668:	04f6fe63          	bgeu	a3,a5,0x46c4
    466c:	1006b793          	sltiu	a5,a3,256
    4670:	0017b793          	seqz	a5,a5
    4674:	00379793          	slli	a5,a5,0x3
    4678:	00019737          	lui	a4,0x19
    467c:	00f6d833          	srl	a6,a3,a5
    4680:	a0c70713          	addi	a4,a4,-1524 # 0x18a0c
    4684:	01070733          	add	a4,a4,a6
    4688:	00074a83          	lbu	s5,0(a4)
    468c:	00fa8ab3          	add	s5,s5,a5
    4690:	02000793          	li	a5,32
    4694:	41578a33          	sub	s4,a5,s5
    4698:	05579063          	bne	a5,s5,0x46d8
    469c:	00b6e463          	bltu	a3,a1,0x46a4
    46a0:	00c56c63          	bltu	a0,a2,0x46b8
    46a4:	40c50933          	sub	s2,a0,a2
    46a8:	40d586b3          	sub	a3,a1,a3
    46ac:	012534b3          	sltu	s1,a0,s2
    46b0:	00090413          	mv	s0,s2
    46b4:	409684b3          	sub	s1,a3,s1
    46b8:	00040513          	mv	a0,s0
    46bc:	00048593          	mv	a1,s1
    46c0:	e49ff06f          	j	0x4508
    46c4:	01000737          	lui	a4,0x1000
    46c8:	01800793          	li	a5,24
    46cc:	fae6f6e3          	bgeu	a3,a4,0x4678
    46d0:	01000793          	li	a5,16
    46d4:	fa5ff06f          	j	0x4678
    46d8:	014696b3          	sll	a3,a3,s4
    46dc:	01565b33          	srl	s6,a2,s5
    46e0:	00db6b33          	or	s6,s6,a3
    46e4:	0155dbb3          	srl	s7,a1,s5
    46e8:	01555433          	srl	s0,a0,s5
    46ec:	014595b3          	sll	a1,a1,s4
    46f0:	010b5493          	srli	s1,s6,0x10
    46f4:	00b46433          	or	s0,s0,a1
    46f8:	014519b3          	sll	s3,a0,s4
    46fc:	00048593          	mv	a1,s1
    4700:	000b8513          	mv	a0,s7
    4704:	010b1c13          	slli	s8,s6,0x10
    4708:	01461933          	sll	s2,a2,s4
    470c:	010c5c13          	srli	s8,s8,0x10
    4710:	1c1010ef          	jal	0x60d0
    4714:	00050593          	mv	a1,a0
    4718:	00050d13          	mv	s10,a0
    471c:	000c0513          	mv	a0,s8
    4720:	185010ef          	jal	0x60a4
    4724:	00050c93          	mv	s9,a0
    4728:	00048593          	mv	a1,s1
    472c:	000b8513          	mv	a0,s7
    4730:	1e9010ef          	jal	0x6118
    4734:	01051513          	slli	a0,a0,0x10
    4738:	01045793          	srli	a5,s0,0x10
    473c:	00a7e7b3          	or	a5,a5,a0
    4740:	000d0b93          	mv	s7,s10
    4744:	0197fe63          	bgeu	a5,s9,0x4760
    4748:	00fb07b3          	add	a5,s6,a5
    474c:	fffd0b93          	addi	s7,s10,-1
    4750:	0167e863          	bltu	a5,s6,0x4760
    4754:	0197f663          	bgeu	a5,s9,0x4760
    4758:	ffed0b93          	addi	s7,s10,-2
    475c:	016787b3          	add	a5,a5,s6
    4760:	41978cb3          	sub	s9,a5,s9
    4764:	00048593          	mv	a1,s1
    4768:	000c8513          	mv	a0,s9
    476c:	165010ef          	jal	0x60d0
    4770:	00050593          	mv	a1,a0
    4774:	00050d13          	mv	s10,a0
    4778:	000c0513          	mv	a0,s8
    477c:	129010ef          	jal	0x60a4
    4780:	00048593          	mv	a1,s1
    4784:	00050c13          	mv	s8,a0
    4788:	000c8513          	mv	a0,s9
    478c:	18d010ef          	jal	0x6118
    4790:	01041593          	slli	a1,s0,0x10
    4794:	01051513          	slli	a0,a0,0x10
    4798:	0105d593          	srli	a1,a1,0x10
    479c:	00a5e5b3          	or	a1,a1,a0
    47a0:	000d0793          	mv	a5,s10
    47a4:	0185fe63          	bgeu	a1,s8,0x47c0
    47a8:	00bb05b3          	add	a1,s6,a1
    47ac:	fffd0793          	addi	a5,s10,-1
    47b0:	0165e863          	bltu	a1,s6,0x47c0
    47b4:	0185f663          	bgeu	a1,s8,0x47c0
    47b8:	ffed0793          	addi	a5,s10,-2
    47bc:	016585b3          	add	a1,a1,s6
    47c0:	010b9b93          	slli	s7,s7,0x10
    47c4:	00fbebb3          	or	s7,s7,a5
    47c8:	01091893          	slli	a7,s2,0x10
    47cc:	01079793          	slli	a5,a5,0x10
    47d0:	0107d793          	srli	a5,a5,0x10
    47d4:	0108d893          	srli	a7,a7,0x10
    47d8:	418584b3          	sub	s1,a1,s8
    47dc:	010bdb93          	srli	s7,s7,0x10
    47e0:	01095713          	srli	a4,s2,0x10
    47e4:	00078513          	mv	a0,a5
    47e8:	00088593          	mv	a1,a7
    47ec:	0b9010ef          	jal	0x60a4
    47f0:	00050813          	mv	a6,a0
    47f4:	00070593          	mv	a1,a4
    47f8:	00078513          	mv	a0,a5
    47fc:	00070793          	mv	a5,a4
    4800:	0a5010ef          	jal	0x60a4
    4804:	00050713          	mv	a4,a0
    4808:	00088593          	mv	a1,a7
    480c:	000b8513          	mv	a0,s7
    4810:	095010ef          	jal	0x60a4
    4814:	00050893          	mv	a7,a0
    4818:	00078593          	mv	a1,a5
    481c:	000b8513          	mv	a0,s7
    4820:	085010ef          	jal	0x60a4
    4824:	01085793          	srli	a5,a6,0x10
    4828:	01170733          	add	a4,a4,a7
    482c:	00e787b3          	add	a5,a5,a4
    4830:	00050693          	mv	a3,a0
    4834:	0117f663          	bgeu	a5,a7,0x4840
    4838:	00010737          	lui	a4,0x10
    483c:	00e506b3          	add	a3,a0,a4
    4840:	0107d713          	srli	a4,a5,0x10
    4844:	01081813          	slli	a6,a6,0x10
    4848:	01079793          	slli	a5,a5,0x10
    484c:	01085813          	srli	a6,a6,0x10
    4850:	00d70733          	add	a4,a4,a3
    4854:	010787b3          	add	a5,a5,a6
    4858:	00e4e663          	bltu	s1,a4,0x4864
    485c:	00e49e63          	bne	s1,a4,0x4878
    4860:	00f9fc63          	bgeu	s3,a5,0x4878
    4864:	41278933          	sub	s2,a5,s2
    4868:	0127b6b3          	sltu	a3,a5,s2
    486c:	016686b3          	add	a3,a3,s6
    4870:	00090793          	mv	a5,s2
    4874:	40d70733          	sub	a4,a4,a3
    4878:	40f987b3          	sub	a5,s3,a5
    487c:	00f9b9b3          	sltu	s3,s3,a5
    4880:	40e485b3          	sub	a1,s1,a4
    4884:	413585b3          	sub	a1,a1,s3
    4888:	01559ab3          	sll	s5,a1,s5
    488c:	0147d7b3          	srl	a5,a5,s4
    4890:	00fae533          	or	a0,s5,a5
    4894:	0145d5b3          	srl	a1,a1,s4
    4898:	c71ff06f          	j	0x4508
    489c:	fd010113          	addi	sp,sp,-48
    48a0:	01612823          	sw	s6,16(sp)
    48a4:	0145db13          	srli	s6,a1,0x14
    48a8:	02812423          	sw	s0,40(sp)
    48ac:	02912223          	sw	s1,36(sp)
    48b0:	01412c23          	sw	s4,24(sp)
    48b4:	01512a23          	sw	s5,20(sp)
    48b8:	01812423          	sw	s8,8(sp)
    48bc:	00c59493          	slli	s1,a1,0xc
    48c0:	02112623          	sw	ra,44(sp)
    48c4:	03212023          	sw	s2,32(sp)
    48c8:	01312e23          	sw	s3,28(sp)
    48cc:	01712623          	sw	s7,12(sp)
    48d0:	01912223          	sw	s9,4(sp)
    48d4:	7ffb7b13          	andi	s6,s6,2047
    48d8:	00050413          	mv	s0,a0
    48dc:	00060c13          	mv	s8,a2
    48e0:	00068a13          	mv	s4,a3
    48e4:	00c4d493          	srli	s1,s1,0xc
    48e8:	01f5da93          	srli	s5,a1,0x1f
    48ec:	0c0b0263          	beqz	s6,0x49b0
    48f0:	7ff00793          	li	a5,2047
    48f4:	12fb0463          	beq	s6,a5,0x4a1c
    48f8:	00349493          	slli	s1,s1,0x3
    48fc:	01d55793          	srli	a5,a0,0x1d
    4900:	0097e7b3          	or	a5,a5,s1
    4904:	008004b7          	lui	s1,0x800
    4908:	0097e4b3          	or	s1,a5,s1
    490c:	00351b93          	slli	s7,a0,0x3
    4910:	c01b0b13          	addi	s6,s6,-1023
    4914:	00000c93          	li	s9,0
    4918:	014a5693          	srli	a3,s4,0x14
    491c:	00ca1413          	slli	s0,s4,0xc
    4920:	7ff6f693          	andi	a3,a3,2047
    4924:	00c45413          	srli	s0,s0,0xc
    4928:	01fa5a13          	srli	s4,s4,0x1f
    492c:	12068063          	beqz	a3,0x4a4c
    4930:	7ff00793          	li	a5,2047
    4934:	18f68463          	beq	a3,a5,0x4abc
    4938:	00341413          	slli	s0,s0,0x3
    493c:	01dc5793          	srli	a5,s8,0x1d
    4940:	0087e7b3          	or	a5,a5,s0
    4944:	00800437          	lui	s0,0x800
    4948:	0087e433          	or	s0,a5,s0
    494c:	c0168693          	addi	a3,a3,-1023 # 0xfffc01
    4950:	003c1793          	slli	a5,s8,0x3
    4954:	00000613          	li	a2,0
    4958:	002c9713          	slli	a4,s9,0x2
    495c:	00db0b33          	add	s6,s6,a3
    4960:	00c76733          	or	a4,a4,a2
    4964:	00a00693          	li	a3,10
    4968:	001b0893          	addi	a7,s6,1
    496c:	1ae6c263          	blt	a3,a4,0x4b10
    4970:	00200593          	li	a1,2
    4974:	014ac833          	xor	a6,s5,s4
    4978:	00100693          	li	a3,1
    497c:	16e5c863          	blt	a1,a4,0x4aec
    4980:	fff70713          	addi	a4,a4,-1 # 0xffff
    4984:	1ae6e663          	bltu	a3,a4,0x4b30
    4988:	00060c93          	mv	s9,a2
    498c:	00200713          	li	a4,2
    4990:	5aec8063          	beq	s9,a4,0x4f30
    4994:	00300713          	li	a4,3
    4998:	58ec8663          	beq	s9,a4,0x4f24
    499c:	00100713          	li	a4,1
    49a0:	40ec9463          	bne	s9,a4,0x4da8
    49a4:	00000413          	li	s0,0
    49a8:	00000693          	li	a3,0
    49ac:	52c0006f          	j	0x4ed8
    49b0:	00a4ebb3          	or	s7,s1,a0
    49b4:	060b8e63          	beqz	s7,0x4a30
    49b8:	04048063          	beqz	s1,0x49f8
    49bc:	00048513          	mv	a0,s1
    49c0:	7bc010ef          	jal	0x617c
    49c4:	ff550713          	addi	a4,a0,-11
    49c8:	01d00793          	li	a5,29
    49cc:	ff850693          	addi	a3,a0,-8
    49d0:	40e787b3          	sub	a5,a5,a4
    49d4:	00d494b3          	sll	s1,s1,a3
    49d8:	00f457b3          	srl	a5,s0,a5
    49dc:	0097e7b3          	or	a5,a5,s1
    49e0:	00d414b3          	sll	s1,s0,a3
    49e4:	c0d00b13          	li	s6,-1011
    49e8:	00048b93          	mv	s7,s1
    49ec:	40ab0b33          	sub	s6,s6,a0
    49f0:	00078493          	mv	s1,a5
    49f4:	f21ff06f          	j	0x4914
    49f8:	784010ef          	jal	0x617c
    49fc:	00050793          	mv	a5,a0
    4a00:	01578713          	addi	a4,a5,21 # 0x10015
    4a04:	01c00693          	li	a3,28
    4a08:	02050513          	addi	a0,a0,32
    4a0c:	fae6dee3          	bge	a3,a4,0x49c8
    4a10:	ff878793          	addi	a5,a5,-8
    4a14:	00f417b3          	sll	a5,s0,a5
    4a18:	fcdff06f          	j	0x49e4
    4a1c:	00a4ebb3          	or	s7,s1,a0
    4a20:	020b9063          	bnez	s7,0x4a40
    4a24:	00000493          	li	s1,0
    4a28:	00200c93          	li	s9,2
    4a2c:	eedff06f          	j	0x4918
    4a30:	00000493          	li	s1,0
    4a34:	00000b13          	li	s6,0
    4a38:	00100c93          	li	s9,1
    4a3c:	eddff06f          	j	0x4918
    4a40:	00050b93          	mv	s7,a0
    4a44:	00300c93          	li	s9,3
    4a48:	ed1ff06f          	j	0x4918
    4a4c:	018467b3          	or	a5,s0,s8
    4a50:	08078063          	beqz	a5,0x4ad0
    4a54:	04040063          	beqz	s0,0x4a94
    4a58:	00040513          	mv	a0,s0
    4a5c:	720010ef          	jal	0x617c
    4a60:	ff550693          	addi	a3,a0,-11
    4a64:	01d00713          	li	a4,29
    4a68:	ff850793          	addi	a5,a0,-8
    4a6c:	40d70733          	sub	a4,a4,a3
    4a70:	00f41433          	sll	s0,s0,a5
    4a74:	00ec5733          	srl	a4,s8,a4
    4a78:	00876733          	or	a4,a4,s0
    4a7c:	00fc1433          	sll	s0,s8,a5
    4a80:	c0d00693          	li	a3,-1011
    4a84:	00040793          	mv	a5,s0
    4a88:	40a686b3          	sub	a3,a3,a0
    4a8c:	00070413          	mv	s0,a4
    4a90:	ec5ff06f          	j	0x4954
    4a94:	000c0513          	mv	a0,s8
    4a98:	6e4010ef          	jal	0x617c
    4a9c:	00050793          	mv	a5,a0
    4aa0:	01578693          	addi	a3,a5,21
    4aa4:	01c00713          	li	a4,28
    4aa8:	02050513          	addi	a0,a0,32
    4aac:	fad75ce3          	bge	a4,a3,0x4a64
    4ab0:	ff878793          	addi	a5,a5,-8
    4ab4:	00fc1733          	sll	a4,s8,a5
    4ab8:	fc9ff06f          	j	0x4a80
    4abc:	018467b3          	or	a5,s0,s8
    4ac0:	02079063          	bnez	a5,0x4ae0
    4ac4:	00000413          	li	s0,0
    4ac8:	00200613          	li	a2,2
    4acc:	e8dff06f          	j	0x4958
    4ad0:	00000413          	li	s0,0
    4ad4:	00000693          	li	a3,0
    4ad8:	00100613          	li	a2,1
    4adc:	e7dff06f          	j	0x4958
    4ae0:	000c0793          	mv	a5,s8
    4ae4:	00300613          	li	a2,3
    4ae8:	e71ff06f          	j	0x4958
    4aec:	00e69733          	sll	a4,a3,a4
    4af0:	53077693          	andi	a3,a4,1328
    4af4:	02069863          	bnez	a3,0x4b24
    4af8:	24077593          	andi	a1,a4,576
    4afc:	40059c63          	bnez	a1,0x4f14
    4b00:	08877713          	andi	a4,a4,136
    4b04:	02070663          	beqz	a4,0x4b30
    4b08:	000a0813          	mv	a6,s4
    4b0c:	e7dff06f          	j	0x4988
    4b10:	00f00693          	li	a3,15
    4b14:	40d70863          	beq	a4,a3,0x4f24
    4b18:	00b00693          	li	a3,11
    4b1c:	000a8813          	mv	a6,s5
    4b20:	fed704e3          	beq	a4,a3,0x4b08
    4b24:	00048413          	mv	s0,s1
    4b28:	000b8793          	mv	a5,s7
    4b2c:	e61ff06f          	j	0x498c
    4b30:	010bd713          	srli	a4,s7,0x10
    4b34:	01079393          	slli	t2,a5,0x10
    4b38:	010b9b93          	slli	s7,s7,0x10
    4b3c:	010bdb93          	srli	s7,s7,0x10
    4b40:	0103d393          	srli	t2,t2,0x10
    4b44:	0107de13          	srli	t3,a5,0x10
    4b48:	000b8513          	mv	a0,s7
    4b4c:	00038593          	mv	a1,t2
    4b50:	554010ef          	jal	0x60a4
    4b54:	00050793          	mv	a5,a0
    4b58:	000e0593          	mv	a1,t3
    4b5c:	000b8513          	mv	a0,s7
    4b60:	544010ef          	jal	0x60a4
    4b64:	00050e93          	mv	t4,a0
    4b68:	00038593          	mv	a1,t2
    4b6c:	00070513          	mv	a0,a4
    4b70:	534010ef          	jal	0x60a4
    4b74:	00050f13          	mv	t5,a0
    4b78:	000e0593          	mv	a1,t3
    4b7c:	00070513          	mv	a0,a4
    4b80:	524010ef          	jal	0x60a4
    4b84:	0107d313          	srli	t1,a5,0x10
    4b88:	01ee8eb3          	add	t4,t4,t5
    4b8c:	01d30333          	add	t1,t1,t4
    4b90:	00050293          	mv	t0,a0
    4b94:	01e37663          	bgeu	t1,t5,0x4ba0
    4b98:	000106b7          	lui	a3,0x10
    4b9c:	00d502b3          	add	t0,a0,a3
    4ba0:	01045f13          	srli	t5,s0,0x10
    4ba4:	01079793          	slli	a5,a5,0x10
    4ba8:	01041413          	slli	s0,s0,0x10
    4bac:	01035a13          	srli	s4,t1,0x10
    4bb0:	0107d793          	srli	a5,a5,0x10
    4bb4:	01045413          	srli	s0,s0,0x10
    4bb8:	01031313          	slli	t1,t1,0x10
    4bbc:	00f30333          	add	t1,t1,a5
    4bc0:	000b8513          	mv	a0,s7
    4bc4:	00040593          	mv	a1,s0
    4bc8:	4dc010ef          	jal	0x60a4
    4bcc:	00050f93          	mv	t6,a0
    4bd0:	000f0593          	mv	a1,t5
    4bd4:	000b8513          	mv	a0,s7
    4bd8:	4cc010ef          	jal	0x60a4
    4bdc:	00050e93          	mv	t4,a0
    4be0:	00040593          	mv	a1,s0
    4be4:	00070513          	mv	a0,a4
    4be8:	4bc010ef          	jal	0x60a4
    4bec:	00050a93          	mv	s5,a0
    4bf0:	000f0593          	mv	a1,t5
    4bf4:	00070513          	mv	a0,a4
    4bf8:	4ac010ef          	jal	0x60a4
    4bfc:	010fd713          	srli	a4,t6,0x10
    4c00:	015e8eb3          	add	t4,t4,s5
    4c04:	01d70733          	add	a4,a4,t4
    4c08:	00050793          	mv	a5,a0
    4c0c:	01577663          	bgeu	a4,s5,0x4c18
    4c10:	000106b7          	lui	a3,0x10
    4c14:	00d507b3          	add	a5,a0,a3
    4c18:	01075e93          	srli	t4,a4,0x10
    4c1c:	010f9f93          	slli	t6,t6,0x10
    4c20:	00fe8eb3          	add	t4,t4,a5
    4c24:	010fdf93          	srli	t6,t6,0x10
    4c28:	01071793          	slli	a5,a4,0x10
    4c2c:	01f787b3          	add	a5,a5,t6
    4c30:	00fa0733          	add	a4,s4,a5
    4c34:	0104da13          	srli	s4,s1,0x10
    4c38:	01049493          	slli	s1,s1,0x10
    4c3c:	0104d493          	srli	s1,s1,0x10
    4c40:	00048513          	mv	a0,s1
    4c44:	00038593          	mv	a1,t2
    4c48:	45c010ef          	jal	0x60a4
    4c4c:	00050f93          	mv	t6,a0
    4c50:	000e0593          	mv	a1,t3
    4c54:	00048513          	mv	a0,s1
    4c58:	44c010ef          	jal	0x60a4
    4c5c:	00050a93          	mv	s5,a0
    4c60:	00038593          	mv	a1,t2
    4c64:	000a0513          	mv	a0,s4
    4c68:	43c010ef          	jal	0x60a4
    4c6c:	00050393          	mv	t2,a0
    4c70:	000e0593          	mv	a1,t3
    4c74:	000a0513          	mv	a0,s4
    4c78:	42c010ef          	jal	0x60a4
    4c7c:	010fd593          	srli	a1,t6,0x10
    4c80:	007a8ab3          	add	s5,s5,t2
    4c84:	015585b3          	add	a1,a1,s5
    4c88:	00050693          	mv	a3,a0
    4c8c:	0075f663          	bgeu	a1,t2,0x4c98
    4c90:	00010637          	lui	a2,0x10
    4c94:	00c506b3          	add	a3,a0,a2
    4c98:	010f9f93          	slli	t6,t6,0x10
    4c9c:	0105de13          	srli	t3,a1,0x10
    4ca0:	010fdf93          	srli	t6,t6,0x10
    4ca4:	01059593          	slli	a1,a1,0x10
    4ca8:	01f58fb3          	add	t6,a1,t6
    4cac:	00de0e33          	add	t3,t3,a3
    4cb0:	00048513          	mv	a0,s1
    4cb4:	00040593          	mv	a1,s0
    4cb8:	3ec010ef          	jal	0x60a4
    4cbc:	00050393          	mv	t2,a0
    4cc0:	000f0593          	mv	a1,t5
    4cc4:	00048513          	mv	a0,s1
    4cc8:	3dc010ef          	jal	0x60a4
    4ccc:	00050493          	mv	s1,a0
    4cd0:	00040593          	mv	a1,s0
    4cd4:	000a0513          	mv	a0,s4
    4cd8:	3cc010ef          	jal	0x60a4
    4cdc:	00050413          	mv	s0,a0
    4ce0:	000f0593          	mv	a1,t5
    4ce4:	000a0513          	mv	a0,s4
    4ce8:	3bc010ef          	jal	0x60a4
    4cec:	0103d593          	srli	a1,t2,0x10
    4cf0:	008484b3          	add	s1,s1,s0
    4cf4:	009585b3          	add	a1,a1,s1
    4cf8:	00050f13          	mv	t5,a0
    4cfc:	0085f663          	bgeu	a1,s0,0x4d08
    4d00:	000106b7          	lui	a3,0x10
    4d04:	00d50f33          	add	t5,a0,a3
    4d08:	01039393          	slli	t2,t2,0x10
    4d0c:	00e286b3          	add	a3,t0,a4
    4d10:	0103d393          	srli	t2,t2,0x10
    4d14:	01059713          	slli	a4,a1,0x10
    4d18:	00770733          	add	a4,a4,t2
    4d1c:	01d70eb3          	add	t4,a4,t4
    4d20:	00f6b7b3          	sltu	a5,a3,a5
    4d24:	00fe87b3          	add	a5,t4,a5
    4d28:	00eeb633          	sltu	a2,t4,a4
    4d2c:	01d7beb3          	sltu	t4,a5,t4
    4d30:	0105d593          	srli	a1,a1,0x10
    4d34:	01d66633          	or	a2,a2,t4
    4d38:	00b60633          	add	a2,a2,a1
    4d3c:	01f685b3          	add	a1,a3,t6
    4d40:	01c78e33          	add	t3,a5,t3
    4d44:	00d5b6b3          	sltu	a3,a1,a3
    4d48:	00de06b3          	add	a3,t3,a3
    4d4c:	00fe3733          	sltu	a4,t3,a5
    4d50:	01c6be33          	sltu	t3,a3,t3
    4d54:	00959793          	slli	a5,a1,0x9
    4d58:	01c76733          	or	a4,a4,t3
    4d5c:	00c70733          	add	a4,a4,a2
    4d60:	0067e7b3          	or	a5,a5,t1
    4d64:	01e70733          	add	a4,a4,t5
    4d68:	00f037b3          	snez	a5,a5
    4d6c:	0175d593          	srli	a1,a1,0x17
    4d70:	00971713          	slli	a4,a4,0x9
    4d74:	0176d413          	srli	s0,a3,0x17
    4d78:	00b7e7b3          	or	a5,a5,a1
    4d7c:	00969693          	slli	a3,a3,0x9
    4d80:	00d7e7b3          	or	a5,a5,a3
    4d84:	00771693          	slli	a3,a4,0x7
    4d88:	00876433          	or	s0,a4,s0
    4d8c:	0c06d663          	bgez	a3,0x4e58
    4d90:	0017d713          	srli	a4,a5,0x1
    4d94:	0017f793          	andi	a5,a5,1
    4d98:	00f76733          	or	a4,a4,a5
    4d9c:	01f41793          	slli	a5,s0,0x1f
    4da0:	00f767b3          	or	a5,a4,a5
    4da4:	00145413          	srli	s0,s0,0x1
    4da8:	3ff88713          	addi	a4,a7,1023
    4dac:	0ae05a63          	blez	a4,0x4e60
    4db0:	0077f693          	andi	a3,a5,7
    4db4:	02068063          	beqz	a3,0x4dd4
    4db8:	00f7f693          	andi	a3,a5,15
    4dbc:	00400613          	li	a2,4
    4dc0:	00c68a63          	beq	a3,a2,0x4dd4
    4dc4:	00c786b3          	add	a3,a5,a2
    4dc8:	00f6b633          	sltu	a2,a3,a5
    4dcc:	00c40433          	add	s0,s0,a2
    4dd0:	00068793          	mv	a5,a3
    4dd4:	00741693          	slli	a3,s0,0x7
    4dd8:	0006da63          	bgez	a3,0x4dec
    4ddc:	ff000737          	lui	a4,0xff000
    4de0:	fff70713          	addi	a4,a4,-1 # 0xfeffffff
    4de4:	00e47433          	and	s0,s0,a4
    4de8:	40088713          	addi	a4,a7,1024
    4dec:	7fe00693          	li	a3,2046
    4df0:	14e6c063          	blt	a3,a4,0x4f30
    4df4:	01d41693          	slli	a3,s0,0x1d
    4df8:	0037d793          	srli	a5,a5,0x3
    4dfc:	00f6e6b3          	or	a3,a3,a5
    4e00:	00345413          	srli	s0,s0,0x3
    4e04:	00c41413          	slli	s0,s0,0xc
    4e08:	00c45413          	srli	s0,s0,0xc
    4e0c:	01471713          	slli	a4,a4,0x14
    4e10:	02c12083          	lw	ra,44(sp)
    4e14:	00876733          	or	a4,a4,s0
    4e18:	02812403          	lw	s0,40(sp)
    4e1c:	01f81813          	slli	a6,a6,0x1f
    4e20:	010767b3          	or	a5,a4,a6
    4e24:	02412483          	lw	s1,36(sp)
    4e28:	02012903          	lw	s2,32(sp)
    4e2c:	01c12983          	lw	s3,28(sp)
    4e30:	01812a03          	lw	s4,24(sp)
    4e34:	01412a83          	lw	s5,20(sp)
    4e38:	01012b03          	lw	s6,16(sp)
    4e3c:	00c12b83          	lw	s7,12(sp)
    4e40:	00812c03          	lw	s8,8(sp)
    4e44:	00412c83          	lw	s9,4(sp)
    4e48:	00068513          	mv	a0,a3
    4e4c:	00078593          	mv	a1,a5
    4e50:	03010113          	addi	sp,sp,48
    4e54:	00008067          	ret
    4e58:	000b0893          	mv	a7,s6
    4e5c:	f4dff06f          	j	0x4da8
    4e60:	00100613          	li	a2,1
    4e64:	00070c63          	beqz	a4,0x4e7c
    4e68:	40e60633          	sub	a2,a2,a4
    4e6c:	03800693          	li	a3,56
    4e70:	b2c6cae3          	blt	a3,a2,0x49a4
    4e74:	01f00693          	li	a3,31
    4e78:	06c6c463          	blt	a3,a2,0x4ee0
    4e7c:	41e88893          	addi	a7,a7,1054
    4e80:	00c7d733          	srl	a4,a5,a2
    4e84:	011797b3          	sll	a5,a5,a7
    4e88:	00f037b3          	snez	a5,a5
    4e8c:	011418b3          	sll	a7,s0,a7
    4e90:	0117e7b3          	or	a5,a5,a7
    4e94:	00f767b3          	or	a5,a4,a5
    4e98:	00c45433          	srl	s0,s0,a2
    4e9c:	0077f713          	andi	a4,a5,7
    4ea0:	02070063          	beqz	a4,0x4ec0
    4ea4:	00f7f713          	andi	a4,a5,15
    4ea8:	00400693          	li	a3,4
    4eac:	00d70a63          	beq	a4,a3,0x4ec0
    4eb0:	00d78733          	add	a4,a5,a3
    4eb4:	00f736b3          	sltu	a3,a4,a5
    4eb8:	00d40433          	add	s0,s0,a3
    4ebc:	00070793          	mv	a5,a4
    4ec0:	00841713          	slli	a4,s0,0x8
    4ec4:	06074e63          	bltz	a4,0x4f40
    4ec8:	01d41693          	slli	a3,s0,0x1d
    4ecc:	0037d793          	srli	a5,a5,0x3
    4ed0:	00f6e6b3          	or	a3,a3,a5
    4ed4:	00345413          	srli	s0,s0,0x3
    4ed8:	00000713          	li	a4,0
    4edc:	f29ff06f          	j	0x4e04
    4ee0:	fe100693          	li	a3,-31
    4ee4:	40e68733          	sub	a4,a3,a4
    4ee8:	02000593          	li	a1,32
    4eec:	00e45733          	srl	a4,s0,a4
    4ef0:	00000693          	li	a3,0
    4ef4:	00b60663          	beq	a2,a1,0x4f00
    4ef8:	43e88893          	addi	a7,a7,1086
    4efc:	011416b3          	sll	a3,s0,a7
    4f00:	00f6e6b3          	or	a3,a3,a5
    4f04:	00d036b3          	snez	a3,a3
    4f08:	00d767b3          	or	a5,a4,a3
    4f0c:	00000413          	li	s0,0
    4f10:	f8dff06f          	j	0x4e9c
    4f14:	00080437          	lui	s0,0x80
    4f18:	7ff00713          	li	a4,2047
    4f1c:	00000813          	li	a6,0
    4f20:	ee5ff06f          	j	0x4e04
    4f24:	00080437          	lui	s0,0x80
    4f28:	00000693          	li	a3,0
    4f2c:	fedff06f          	j	0x4f18
    4f30:	00000413          	li	s0,0
    4f34:	00000693          	li	a3,0
    4f38:	7ff00713          	li	a4,2047
    4f3c:	ec9ff06f          	j	0x4e04
    4f40:	00000413          	li	s0,0
    4f44:	00000693          	li	a3,0
    4f48:	00100713          	li	a4,1
    4f4c:	eb9ff06f          	j	0x4e04
    4f50:	00100837          	lui	a6,0x100
    4f54:	fff80813          	addi	a6,a6,-1 # 0xfffff
    4f58:	fe010113          	addi	sp,sp,-32
    4f5c:	00b878b3          	and	a7,a6,a1
    4f60:	0145d713          	srli	a4,a1,0x14
    4f64:	01d55793          	srli	a5,a0,0x1d
    4f68:	00d87833          	and	a6,a6,a3
    4f6c:	01412423          	sw	s4,8(sp)
    4f70:	7ff77a13          	andi	s4,a4,2047
    4f74:	00389713          	slli	a4,a7,0x3
    4f78:	0146d893          	srli	a7,a3,0x14
    4f7c:	01312623          	sw	s3,12(sp)
    4f80:	00e7e7b3          	or	a5,a5,a4
    4f84:	01f5d993          	srli	s3,a1,0x1f
    4f88:	00381813          	slli	a6,a6,0x3
    4f8c:	01d65593          	srli	a1,a2,0x1d
    4f90:	00112e23          	sw	ra,28(sp)
    4f94:	00812c23          	sw	s0,24(sp)
    4f98:	00912a23          	sw	s1,20(sp)
    4f9c:	01212823          	sw	s2,16(sp)
    4fa0:	01512223          	sw	s5,4(sp)
    4fa4:	7ff8f893          	andi	a7,a7,2047
    4fa8:	7ff00713          	li	a4,2047
    4fac:	00351513          	slli	a0,a0,0x3
    4fb0:	01f6d693          	srli	a3,a3,0x1f
    4fb4:	0105e5b3          	or	a1,a1,a6
    4fb8:	00361613          	slli	a2,a2,0x3
    4fbc:	00e89663          	bne	a7,a4,0x4fc8
    4fc0:	00c5e733          	or	a4,a1,a2
    4fc4:	00071463          	bnez	a4,0x4fcc
    4fc8:	0016c693          	xori	a3,a3,1
    4fcc:	411a0833          	sub	a6,s4,a7
    4fd0:	7ff00313          	li	t1,2047
    4fd4:	33369663          	bne	a3,s3,0x5300
    4fd8:	17005e63          	blez	a6,0x5154
    4fdc:	0a089863          	bnez	a7,0x508c
    4fe0:	00c5e733          	or	a4,a1,a2
    4fe4:	02070663          	beqz	a4,0x5010
    4fe8:	fffa0813          	addi	a6,s4,-1
    4fec:	02081063          	bnez	a6,0x500c
    4ff0:	00c50633          	add	a2,a0,a2
    4ff4:	00a63733          	sltu	a4,a2,a0
    4ff8:	00b786b3          	add	a3,a5,a1
    4ffc:	00060513          	mv	a0,a2
    5000:	00e687b3          	add	a5,a3,a4
    5004:	00100a13          	li	s4,1
    5008:	0d40006f          	j	0x50dc
    500c:	086a1663          	bne	s4,t1,0x5098
    5010:	01d79693          	slli	a3,a5,0x1d
    5014:	00355513          	srli	a0,a0,0x3
    5018:	7ff00713          	li	a4,2047
    501c:	00a6e6b3          	or	a3,a3,a0
    5020:	0037d793          	srli	a5,a5,0x3
    5024:	00ea1e63          	bne	s4,a4,0x5040
    5028:	00f6e6b3          	or	a3,a3,a5
    502c:	00000793          	li	a5,0
    5030:	00068863          	beqz	a3,0x5040
    5034:	000807b7          	lui	a5,0x80
    5038:	00000693          	li	a3,0
    503c:	00000993          	li	s3,0
    5040:	014a1713          	slli	a4,s4,0x14
    5044:	7ff00637          	lui	a2,0x7ff00
    5048:	00c79793          	slli	a5,a5,0xc
    504c:	00c77733          	and	a4,a4,a2
    5050:	01c12083          	lw	ra,28(sp)
    5054:	01812403          	lw	s0,24(sp)
    5058:	00c7d793          	srli	a5,a5,0xc
    505c:	00f767b3          	or	a5,a4,a5
    5060:	01f99713          	slli	a4,s3,0x1f
    5064:	00e7e633          	or	a2,a5,a4
    5068:	01412483          	lw	s1,20(sp)
    506c:	01012903          	lw	s2,16(sp)
    5070:	00c12983          	lw	s3,12(sp)
    5074:	00812a03          	lw	s4,8(sp)
    5078:	00412a83          	lw	s5,4(sp)
    507c:	00068513          	mv	a0,a3
    5080:	00060593          	mv	a1,a2
    5084:	02010113          	addi	sp,sp,32
    5088:	00008067          	ret
    508c:	f86a02e3          	beq	s4,t1,0x5010
    5090:	00800737          	lui	a4,0x800
    5094:	00e5e5b3          	or	a1,a1,a4
    5098:	03800713          	li	a4,56
    509c:	0b074663          	blt	a4,a6,0x5148
    50a0:	01f00713          	li	a4,31
    50a4:	02000893          	li	a7,32
    50a8:	07074863          	blt	a4,a6,0x5118
    50ac:	410888b3          	sub	a7,a7,a6
    50b0:	01159733          	sll	a4,a1,a7
    50b4:	010656b3          	srl	a3,a2,a6
    50b8:	011618b3          	sll	a7,a2,a7
    50bc:	00d76733          	or	a4,a4,a3
    50c0:	011038b3          	snez	a7,a7
    50c4:	01176733          	or	a4,a4,a7
    50c8:	0105d833          	srl	a6,a1,a6
    50cc:	00a70533          	add	a0,a4,a0
    50d0:	00f80833          	add	a6,a6,a5
    50d4:	00e53733          	sltu	a4,a0,a4
    50d8:	00e807b3          	add	a5,a6,a4
    50dc:	00879713          	slli	a4,a5,0x8
    50e0:	1c075c63          	bgez	a4,0x52b8
    50e4:	001a0a13          	addi	s4,s4,1
    50e8:	7ff00713          	li	a4,2047
    50ec:	5cea0263          	beq	s4,a4,0x56b0
    50f0:	ff800737          	lui	a4,0xff800
    50f4:	fff70713          	addi	a4,a4,-1 # 0xff7fffff
    50f8:	00e7f7b3          	and	a5,a5,a4
    50fc:	00155713          	srli	a4,a0,0x1
    5100:	00157513          	andi	a0,a0,1
    5104:	00a76733          	or	a4,a4,a0
    5108:	01f79513          	slli	a0,a5,0x1f
    510c:	00e56533          	or	a0,a0,a4
    5110:	0017d793          	srli	a5,a5,0x1
    5114:	1a40006f          	j	0x52b8
    5118:	fe080713          	addi	a4,a6,-32
    511c:	00e5d733          	srl	a4,a1,a4
    5120:	00000693          	li	a3,0
    5124:	01180863          	beq	a6,a7,0x5134
    5128:	04000693          	li	a3,64
    512c:	410686b3          	sub	a3,a3,a6
    5130:	00d596b3          	sll	a3,a1,a3
    5134:	00c6e6b3          	or	a3,a3,a2
    5138:	00d036b3          	snez	a3,a3
    513c:	00d76733          	or	a4,a4,a3
    5140:	00000813          	li	a6,0
    5144:	f89ff06f          	j	0x50cc
    5148:	00c5e733          	or	a4,a1,a2
    514c:	00e03733          	snez	a4,a4
    5150:	ff1ff06f          	j	0x5140
    5154:	0c080663          	beqz	a6,0x5220
    5158:	41488733          	sub	a4,a7,s4
    515c:	020a1463          	bnez	s4,0x5184
    5160:	00a7e6b3          	or	a3,a5,a0
    5164:	00068863          	beqz	a3,0x5174
    5168:	fff70693          	addi	a3,a4,-1
    516c:	e80682e3          	beqz	a3,0x4ff0
    5170:	02671263          	bne	a4,t1,0x5194
    5174:	00058793          	mv	a5,a1
    5178:	00060513          	mv	a0,a2
    517c:	00070a13          	mv	s4,a4
    5180:	e91ff06f          	j	0x5010
    5184:	52688c63          	beq	a7,t1,0x56bc
    5188:	008006b7          	lui	a3,0x800
    518c:	00d7e7b3          	or	a5,a5,a3
    5190:	00070693          	mv	a3,a4
    5194:	03800713          	li	a4,56
    5198:	06d74e63          	blt	a4,a3,0x5214
    519c:	01f00713          	li	a4,31
    51a0:	02000313          	li	t1,32
    51a4:	04d74063          	blt	a4,a3,0x51e4
    51a8:	40d30333          	sub	t1,t1,a3
    51ac:	00679733          	sll	a4,a5,t1
    51b0:	00d55833          	srl	a6,a0,a3
    51b4:	00651333          	sll	t1,a0,t1
    51b8:	01076733          	or	a4,a4,a6
    51bc:	00603333          	snez	t1,t1
    51c0:	00676733          	or	a4,a4,t1
    51c4:	00d7d6b3          	srl	a3,a5,a3
    51c8:	00c70633          	add	a2,a4,a2
    51cc:	00b686b3          	add	a3,a3,a1
    51d0:	00e63733          	sltu	a4,a2,a4
    51d4:	00060513          	mv	a0,a2
    51d8:	00e687b3          	add	a5,a3,a4
    51dc:	00088a13          	mv	s4,a7
    51e0:	efdff06f          	j	0x50dc
    51e4:	fe068713          	addi	a4,a3,-32 # 0x7fffe0
    51e8:	00e7d733          	srl	a4,a5,a4
    51ec:	00000813          	li	a6,0
    51f0:	00668863          	beq	a3,t1,0x5200
    51f4:	04000813          	li	a6,64
    51f8:	40d80833          	sub	a6,a6,a3
    51fc:	01079833          	sll	a6,a5,a6
    5200:	00a86833          	or	a6,a6,a0
    5204:	01003833          	snez	a6,a6
    5208:	01076733          	or	a4,a4,a6
    520c:	00000693          	li	a3,0
    5210:	fb9ff06f          	j	0x51c8
    5214:	00a7e733          	or	a4,a5,a0
    5218:	00e03733          	snez	a4,a4
    521c:	ff1ff06f          	j	0x520c
    5220:	001a0713          	addi	a4,s4,1
    5224:	7fe77693          	andi	a3,a4,2046
    5228:	06069463          	bnez	a3,0x5290
    522c:	00a7e733          	or	a4,a5,a0
    5230:	040a1063          	bnez	s4,0x5270
    5234:	2c070063          	beqz	a4,0x54f4
    5238:	00c5e733          	or	a4,a1,a2
    523c:	44070a63          	beqz	a4,0x5690
    5240:	00c50633          	add	a2,a0,a2
    5244:	00b786b3          	add	a3,a5,a1
    5248:	00a63533          	sltu	a0,a2,a0
    524c:	00a685b3          	add	a1,a3,a0
    5250:	00859793          	slli	a5,a1,0x8
    5254:	2a07d063          	bgez	a5,0x54f4
    5258:	ff8007b7          	lui	a5,0xff800
    525c:	fff78793          	addi	a5,a5,-1 # 0xff7fffff
    5260:	00f5f7b3          	and	a5,a1,a5
    5264:	00060513          	mv	a0,a2
    5268:	00100a13          	li	s4,1
    526c:	da5ff06f          	j	0x5010
    5270:	42070663          	beqz	a4,0x569c
    5274:	00c5e633          	or	a2,a1,a2
    5278:	00030a13          	mv	s4,t1
    527c:	d8060ae3          	beqz	a2,0x5010
    5280:	00000993          	li	s3,0
    5284:	004007b7          	lui	a5,0x400
    5288:	00000513          	li	a0,0
    528c:	d85ff06f          	j	0x5010
    5290:	40670e63          	beq	a4,t1,0x56ac
    5294:	00c50633          	add	a2,a0,a2
    5298:	00a63533          	sltu	a0,a2,a0
    529c:	00b786b3          	add	a3,a5,a1
    52a0:	00a686b3          	add	a3,a3,a0
    52a4:	01f69513          	slli	a0,a3,0x1f
    52a8:	00165613          	srli	a2,a2,0x1
    52ac:	00c56533          	or	a0,a0,a2
    52b0:	0016d793          	srli	a5,a3,0x1
    52b4:	00070a13          	mv	s4,a4
    52b8:	00757713          	andi	a4,a0,7
    52bc:	02070063          	beqz	a4,0x52dc
    52c0:	00f57713          	andi	a4,a0,15
    52c4:	00400693          	li	a3,4
    52c8:	00d70a63          	beq	a4,a3,0x52dc
    52cc:	00d50733          	add	a4,a0,a3
    52d0:	00a736b3          	sltu	a3,a4,a0
    52d4:	00d787b3          	add	a5,a5,a3
    52d8:	00070513          	mv	a0,a4
    52dc:	00879713          	slli	a4,a5,0x8
    52e0:	d20758e3          	bgez	a4,0x5010
    52e4:	001a0a13          	addi	s4,s4,1
    52e8:	7ff00713          	li	a4,2047
    52ec:	3cea0263          	beq	s4,a4,0x56b0
    52f0:	ff800737          	lui	a4,0xff800
    52f4:	fff70713          	addi	a4,a4,-1 # 0xff7fffff
    52f8:	00e7f7b3          	and	a5,a5,a4
    52fc:	d15ff06f          	j	0x5010
    5300:	0f005463          	blez	a6,0x53e8
    5304:	08089c63          	bnez	a7,0x539c
    5308:	00c5e733          	or	a4,a1,a2
    530c:	d00702e3          	beqz	a4,0x5010
    5310:	fffa0813          	addi	a6,s4,-1
    5314:	02081063          	bnez	a6,0x5334
    5318:	40c50633          	sub	a2,a0,a2
    531c:	00c53733          	sltu	a4,a0,a2
    5320:	40b786b3          	sub	a3,a5,a1
    5324:	00060513          	mv	a0,a2
    5328:	40e687b3          	sub	a5,a3,a4
    532c:	00100a13          	li	s4,1
    5330:	0500006f          	j	0x5380
    5334:	cc6a0ee3          	beq	s4,t1,0x5010
    5338:	03800713          	li	a4,56
    533c:	0b074063          	blt	a4,a6,0x53dc
    5340:	01f00713          	li	a4,31
    5344:	02000893          	li	a7,32
    5348:	07074263          	blt	a4,a6,0x53ac
    534c:	410888b3          	sub	a7,a7,a6
    5350:	01159733          	sll	a4,a1,a7
    5354:	010656b3          	srl	a3,a2,a6
    5358:	011618b3          	sll	a7,a2,a7
    535c:	00d76733          	or	a4,a4,a3
    5360:	011038b3          	snez	a7,a7
    5364:	01176733          	or	a4,a4,a7
    5368:	0105d833          	srl	a6,a1,a6
    536c:	40e50733          	sub	a4,a0,a4
    5370:	00e536b3          	sltu	a3,a0,a4
    5374:	41078833          	sub	a6,a5,a6
    5378:	00070513          	mv	a0,a4
    537c:	40d807b3          	sub	a5,a6,a3
    5380:	00879713          	slli	a4,a5,0x8
    5384:	f2075ae3          	bgez	a4,0x52b8
    5388:	00800937          	lui	s2,0x800
    538c:	fff90913          	addi	s2,s2,-1 # 0x7fffff
    5390:	0127f933          	and	s2,a5,s2
    5394:	00050a93          	mv	s5,a0
    5398:	2140006f          	j	0x55ac
    539c:	c66a0ae3          	beq	s4,t1,0x5010
    53a0:	00800737          	lui	a4,0x800
    53a4:	00e5e5b3          	or	a1,a1,a4
    53a8:	f91ff06f          	j	0x5338
    53ac:	fe080713          	addi	a4,a6,-32
    53b0:	00e5d733          	srl	a4,a1,a4
    53b4:	00000693          	li	a3,0
    53b8:	01180863          	beq	a6,a7,0x53c8
    53bc:	04000693          	li	a3,64
    53c0:	410686b3          	sub	a3,a3,a6
    53c4:	00d596b3          	sll	a3,a1,a3
    53c8:	00c6e6b3          	or	a3,a3,a2
    53cc:	00d036b3          	snez	a3,a3
    53d0:	00d76733          	or	a4,a4,a3
    53d4:	00000813          	li	a6,0
    53d8:	f95ff06f          	j	0x536c
    53dc:	00c5e733          	or	a4,a1,a2
    53e0:	00e03733          	snez	a4,a4
    53e4:	ff1ff06f          	j	0x53d4
    53e8:	0e080463          	beqz	a6,0x54d0
    53ec:	41488833          	sub	a6,a7,s4
    53f0:	040a1263          	bnez	s4,0x5434
    53f4:	00a7e733          	or	a4,a5,a0
    53f8:	02070463          	beqz	a4,0x5420
    53fc:	fff80713          	addi	a4,a6,-1
    5400:	00071e63          	bnez	a4,0x541c
    5404:	40a60533          	sub	a0,a2,a0
    5408:	40f585b3          	sub	a1,a1,a5
    540c:	00a63633          	sltu	a2,a2,a0
    5410:	40c587b3          	sub	a5,a1,a2
    5414:	00068993          	mv	s3,a3
    5418:	f15ff06f          	j	0x532c
    541c:	02681463          	bne	a6,t1,0x5444
    5420:	00068993          	mv	s3,a3
    5424:	00058793          	mv	a5,a1
    5428:	00060513          	mv	a0,a2
    542c:	00080a13          	mv	s4,a6
    5430:	be1ff06f          	j	0x5010
    5434:	28688263          	beq	a7,t1,0x56b8
    5438:	00800737          	lui	a4,0x800
    543c:	00e7e7b3          	or	a5,a5,a4
    5440:	00080713          	mv	a4,a6
    5444:	03800813          	li	a6,56
    5448:	06e84e63          	blt	a6,a4,0x54c4
    544c:	01f00813          	li	a6,31
    5450:	02000e13          	li	t3,32
    5454:	04e84063          	blt	a6,a4,0x5494
    5458:	40ee0e33          	sub	t3,t3,a4
    545c:	00e55333          	srl	t1,a0,a4
    5460:	01c79833          	sll	a6,a5,t3
    5464:	01c51e33          	sll	t3,a0,t3
    5468:	00686833          	or	a6,a6,t1
    546c:	01c03e33          	snez	t3,t3
    5470:	01c86533          	or	a0,a6,t3
    5474:	00e7d733          	srl	a4,a5,a4
    5478:	40a60533          	sub	a0,a2,a0
    547c:	40e58733          	sub	a4,a1,a4
    5480:	00a63633          	sltu	a2,a2,a0
    5484:	40c707b3          	sub	a5,a4,a2
    5488:	00088a13          	mv	s4,a7
    548c:	00068993          	mv	s3,a3
    5490:	ef1ff06f          	j	0x5380
    5494:	fe070813          	addi	a6,a4,-32 # 0x7fffe0
    5498:	0107d833          	srl	a6,a5,a6
    549c:	00000313          	li	t1,0
    54a0:	01c70863          	beq	a4,t3,0x54b0
    54a4:	04000313          	li	t1,64
    54a8:	40e30333          	sub	t1,t1,a4
    54ac:	00679333          	sll	t1,a5,t1
    54b0:	00a36333          	or	t1,t1,a0
    54b4:	00603333          	snez	t1,t1
    54b8:	00686533          	or	a0,a6,t1
    54bc:	00000713          	li	a4,0
    54c0:	fb9ff06f          	j	0x5478
    54c4:	00a7e533          	or	a0,a5,a0
    54c8:	00a03533          	snez	a0,a0
    54cc:	ff1ff06f          	j	0x54bc
    54d0:	001a0713          	addi	a4,s4,1
    54d4:	7fe77713          	andi	a4,a4,2046
    54d8:	0a071263          	bnez	a4,0x557c
    54dc:	00c5e733          	or	a4,a1,a2
    54e0:	00a7e833          	or	a6,a5,a0
    54e4:	060a1863          	bnez	s4,0x5554
    54e8:	02081263          	bnez	a6,0x550c
    54ec:	1e070063          	beqz	a4,0x56cc
    54f0:	00068993          	mv	s3,a3
    54f4:	00b66533          	or	a0,a2,a1
    54f8:	12050263          	beqz	a0,0x561c
    54fc:	00058793          	mv	a5,a1
    5500:	00060513          	mv	a0,a2
    5504:	00000a13          	li	s4,0
    5508:	db1ff06f          	j	0x52b8
    550c:	18070263          	beqz	a4,0x5690
    5510:	40c50833          	sub	a6,a0,a2
    5514:	010538b3          	sltu	a7,a0,a6
    5518:	40b78733          	sub	a4,a5,a1
    551c:	41170733          	sub	a4,a4,a7
    5520:	00871893          	slli	a7,a4,0x8
    5524:	0008de63          	bgez	a7,0x5540
    5528:	40a60533          	sub	a0,a2,a0
    552c:	00a63733          	sltu	a4,a2,a0
    5530:	40f585b3          	sub	a1,a1,a5
    5534:	00050613          	mv	a2,a0
    5538:	40e585b3          	sub	a1,a1,a4
    553c:	fb5ff06f          	j	0x54f0
    5540:	00e86533          	or	a0,a6,a4
    5544:	18050863          	beqz	a0,0x56d4
    5548:	00070593          	mv	a1,a4
    554c:	00080613          	mv	a2,a6
    5550:	fa5ff06f          	j	0x54f4
    5554:	00081e63          	bnez	a6,0x5570
    5558:	00068993          	mv	s3,a3
    555c:	14071063          	bnez	a4,0x569c
    5560:	00000993          	li	s3,0
    5564:	004007b7          	lui	a5,0x400
    5568:	00000513          	li	a0,0
    556c:	1380006f          	j	0x56a4
    5570:	00030a13          	mv	s4,t1
    5574:	a8070ee3          	beqz	a4,0x5010
    5578:	d09ff06f          	j	0x5280
    557c:	40c50733          	sub	a4,a0,a2
    5580:	00e53833          	sltu	a6,a0,a4
    5584:	40b78933          	sub	s2,a5,a1
    5588:	41090933          	sub	s2,s2,a6
    558c:	00891813          	slli	a6,s2,0x8
    5590:	00070a93          	mv	s5,a4
    5594:	06085e63          	bgez	a6,0x5610
    5598:	40a60ab3          	sub	s5,a2,a0
    559c:	40f58933          	sub	s2,a1,a5
    55a0:	01563633          	sltu	a2,a2,s5
    55a4:	40c90933          	sub	s2,s2,a2
    55a8:	00068993          	mv	s3,a3
    55ac:	06090e63          	beqz	s2,0x5628
    55b0:	00090513          	mv	a0,s2
    55b4:	3c9000ef          	jal	0x617c
    55b8:	ff850613          	addi	a2,a0,-8
    55bc:	02000693          	li	a3,32
    55c0:	40c686b3          	sub	a3,a3,a2
    55c4:	00c91933          	sll	s2,s2,a2
    55c8:	00dad6b3          	srl	a3,s5,a3
    55cc:	0126e6b3          	or	a3,a3,s2
    55d0:	00ca9933          	sll	s2,s5,a2
    55d4:	0b464263          	blt	a2,s4,0x5678
    55d8:	41460633          	sub	a2,a2,s4
    55dc:	00160593          	addi	a1,a2,1 # 0x7ff00001
    55e0:	01f00793          	li	a5,31
    55e4:	02000713          	li	a4,32
    55e8:	06b7c063          	blt	a5,a1,0x5648
    55ec:	40b70733          	sub	a4,a4,a1
    55f0:	00e69633          	sll	a2,a3,a4
    55f4:	00b957b3          	srl	a5,s2,a1
    55f8:	00e91733          	sll	a4,s2,a4
    55fc:	00f66633          	or	a2,a2,a5
    5600:	00e03733          	snez	a4,a4
    5604:	00e66633          	or	a2,a2,a4
    5608:	00b6d5b3          	srl	a1,a3,a1
    560c:	ee9ff06f          	j	0x54f4
    5610:	01276533          	or	a0,a4,s2
    5614:	f8051ce3          	bnez	a0,0x55ac
    5618:	00000993          	li	s3,0
    561c:	00000793          	li	a5,0
    5620:	00000a13          	li	s4,0
    5624:	9edff06f          	j	0x5010
    5628:	000a8513          	mv	a0,s5
    562c:	351000ef          	jal	0x617c
    5630:	01850613          	addi	a2,a0,24
    5634:	01f00793          	li	a5,31
    5638:	f8c7d2e3          	bge	a5,a2,0x55bc
    563c:	ff850693          	addi	a3,a0,-8
    5640:	00da96b3          	sll	a3,s5,a3
    5644:	f91ff06f          	j	0x55d4
    5648:	fe160613          	addi	a2,a2,-31
    564c:	00c6d633          	srl	a2,a3,a2
    5650:	00000793          	li	a5,0
    5654:	00e58863          	beq	a1,a4,0x5664
    5658:	04000793          	li	a5,64
    565c:	40b787b3          	sub	a5,a5,a1
    5660:	00f697b3          	sll	a5,a3,a5
    5664:	00f967b3          	or	a5,s2,a5
    5668:	00f037b3          	snez	a5,a5
    566c:	00f66633          	or	a2,a2,a5
    5670:	00000593          	li	a1,0
    5674:	e81ff06f          	j	0x54f4
    5678:	ff8007b7          	lui	a5,0xff800
    567c:	fff78793          	addi	a5,a5,-1 # 0xff7fffff
    5680:	40ca0a33          	sub	s4,s4,a2
    5684:	00f6f7b3          	and	a5,a3,a5
    5688:	00090513          	mv	a0,s2
    568c:	c2dff06f          	j	0x52b8
    5690:	00078593          	mv	a1,a5
    5694:	00050613          	mv	a2,a0
    5698:	e5dff06f          	j	0x54f4
    569c:	00058793          	mv	a5,a1
    56a0:	00060513          	mv	a0,a2
    56a4:	00030a13          	mv	s4,t1
    56a8:	969ff06f          	j	0x5010
    56ac:	00070a13          	mv	s4,a4
    56b0:	00000793          	li	a5,0
    56b4:	bd5ff06f          	j	0x5288
    56b8:	00068993          	mv	s3,a3
    56bc:	00058793          	mv	a5,a1
    56c0:	00060513          	mv	a0,a2
    56c4:	00088a13          	mv	s4,a7
    56c8:	949ff06f          	j	0x5010
    56cc:	00000993          	li	s3,0
    56d0:	fe1ff06f          	j	0x56b0
    56d4:	00000993          	li	s3,0
    56d8:	00000793          	li	a5,0
    56dc:	935ff06f          	j	0x5010
    56e0:	0145d713          	srli	a4,a1,0x14
    56e4:	001006b7          	lui	a3,0x100
    56e8:	fff68793          	addi	a5,a3,-1 # 0xfffff
    56ec:	7ff77713          	andi	a4,a4,2047
    56f0:	3fe00613          	li	a2,1022
    56f4:	00b7f7b3          	and	a5,a5,a1
    56f8:	01f5d593          	srli	a1,a1,0x1f
    56fc:	04e65e63          	bge	a2,a4,0x5758
    5700:	41d00613          	li	a2,1053
    5704:	00e65a63          	bge	a2,a4,0x5718
    5708:	80000537          	lui	a0,0x80000
    570c:	fff50513          	addi	a0,a0,-1 # 0x7fffffff
    5710:	00a58533          	add	a0,a1,a0
    5714:	00008067          	ret
    5718:	00d7e7b3          	or	a5,a5,a3
    571c:	43300693          	li	a3,1075
    5720:	40e686b3          	sub	a3,a3,a4
    5724:	01f00613          	li	a2,31
    5728:	02d64063          	blt	a2,a3,0x5748
    572c:	bed70713          	addi	a4,a4,-1043
    5730:	00e797b3          	sll	a5,a5,a4
    5734:	00d55533          	srl	a0,a0,a3
    5738:	00a7e533          	or	a0,a5,a0
    573c:	02058063          	beqz	a1,0x575c
    5740:	40a00533          	neg	a0,a0
    5744:	00008067          	ret
    5748:	41300693          	li	a3,1043
    574c:	40e68733          	sub	a4,a3,a4
    5750:	00e7d533          	srl	a0,a5,a4
    5754:	fe9ff06f          	j	0x573c
    5758:	00000513          	li	a0,0
    575c:	00008067          	ret
    5760:	fe010113          	addi	sp,sp,-32
    5764:	00112e23          	sw	ra,28(sp)
    5768:	00812c23          	sw	s0,24(sp)
    576c:	00912a23          	sw	s1,20(sp)
    5770:	01212823          	sw	s2,16(sp)
    5774:	01312623          	sw	s3,12(sp)
    5778:	00050793          	mv	a5,a0
    577c:	08050663          	beqz	a0,0x5808
    5780:	41f55713          	srai	a4,a0,0x1f
    5784:	00a74933          	xor	s2,a4,a0
    5788:	40e90933          	sub	s2,s2,a4
    578c:	01f55993          	srli	s3,a0,0x1f
    5790:	00090513          	mv	a0,s2
    5794:	1e9000ef          	jal	0x617c
    5798:	41e00793          	li	a5,1054
    579c:	00a00713          	li	a4,10
    57a0:	40a787b3          	sub	a5,a5,a0
    57a4:	04a74a63          	blt	a4,a0,0x57f8
    57a8:	00b00713          	li	a4,11
    57ac:	40a70733          	sub	a4,a4,a0
    57b0:	01550513          	addi	a0,a0,21
    57b4:	00e95733          	srl	a4,s2,a4
    57b8:	00a91933          	sll	s2,s2,a0
    57bc:	00c71713          	slli	a4,a4,0xc
    57c0:	01c12083          	lw	ra,28(sp)
    57c4:	01812403          	lw	s0,24(sp)
    57c8:	00c75713          	srli	a4,a4,0xc
    57cc:	01479793          	slli	a5,a5,0x14
    57d0:	01f99993          	slli	s3,s3,0x1f
    57d4:	00e7e7b3          	or	a5,a5,a4
    57d8:	0137e733          	or	a4,a5,s3
    57dc:	01412483          	lw	s1,20(sp)
    57e0:	00c12983          	lw	s3,12(sp)
    57e4:	00090513          	mv	a0,s2
    57e8:	00070593          	mv	a1,a4
    57ec:	01012903          	lw	s2,16(sp)
    57f0:	02010113          	addi	sp,sp,32
    57f4:	00008067          	ret
    57f8:	ff550513          	addi	a0,a0,-11
    57fc:	00a91733          	sll	a4,s2,a0
    5800:	00000913          	li	s2,0
    5804:	fb9ff06f          	j	0x57bc
    5808:	00000993          	li	s3,0
    580c:	00000713          	li	a4,0
    5810:	ff1ff06f          	j	0x5800
    5814:	fd010113          	addi	sp,sp,-48
    5818:	02912223          	sw	s1,36(sp)
    581c:	01755493          	srli	s1,a0,0x17
    5820:	03212023          	sw	s2,32(sp)
    5824:	01512a23          	sw	s5,20(sp)
    5828:	01612823          	sw	s6,16(sp)
    582c:	00951a93          	slli	s5,a0,0x9
    5830:	02112623          	sw	ra,44(sp)
    5834:	02812423          	sw	s0,40(sp)
    5838:	01312e23          	sw	s3,28(sp)
    583c:	01412c23          	sw	s4,24(sp)
    5840:	01712623          	sw	s7,12(sp)
    5844:	01812423          	sw	s8,8(sp)
    5848:	0ff4f493          	zext.b	s1,s1
    584c:	00058b13          	mv	s6,a1
    5850:	009ada93          	srli	s5,s5,0x9
    5854:	01f55913          	srli	s2,a0,0x1f
    5858:	08048463          	beqz	s1,0x58e0
    585c:	0ff00793          	li	a5,255
    5860:	0af48063          	beq	s1,a5,0x5900
    5864:	003a9a93          	slli	s5,s5,0x3
    5868:	040007b7          	lui	a5,0x4000
    586c:	00faeab3          	or	s5,s5,a5
    5870:	f8148493          	addi	s1,s1,-127 # 0x7fff81
    5874:	00000b93          	li	s7,0
    5878:	017b5793          	srli	a5,s6,0x17
    587c:	009b1413          	slli	s0,s6,0x9
    5880:	0ff7f793          	zext.b	a5,a5
    5884:	00945413          	srli	s0,s0,0x9
    5888:	01fb5b13          	srli	s6,s6,0x1f
    588c:	08078863          	beqz	a5,0x591c
    5890:	0ff00713          	li	a4,255
    5894:	0ae78463          	beq	a5,a4,0x593c
    5898:	00341413          	slli	s0,s0,0x3
    589c:	04000737          	lui	a4,0x4000
    58a0:	00e46433          	or	s0,s0,a4
    58a4:	f8178793          	addi	a5,a5,-127 # 0x3ffff81
    58a8:	00000713          	li	a4,0
    58ac:	40f48a33          	sub	s4,s1,a5
    58b0:	002b9793          	slli	a5,s7,0x2
    58b4:	00e7e7b3          	or	a5,a5,a4
    58b8:	fff78793          	addi	a5,a5,-1
    58bc:	00e00693          	li	a3,14
    58c0:	016949b3          	xor	s3,s2,s6
    58c4:	08f6ea63          	bltu	a3,a5,0x5958
    58c8:	000196b7          	lui	a3,0x19
    58cc:	00279793          	slli	a5,a5,0x2
    58d0:	9d068693          	addi	a3,a3,-1584 # 0x189d0
    58d4:	00d787b3          	add	a5,a5,a3
    58d8:	0007a783          	lw	a5,0(a5)
    58dc:	00078067          	jr	a5
    58e0:	020a8863          	beqz	s5,0x5910
    58e4:	000a8513          	mv	a0,s5
    58e8:	095000ef          	jal	0x617c
    58ec:	ffb50793          	addi	a5,a0,-5
    58f0:	f8a00493          	li	s1,-118
    58f4:	00fa9ab3          	sll	s5,s5,a5
    58f8:	40a484b3          	sub	s1,s1,a0
    58fc:	f79ff06f          	j	0x5874
    5900:	00200b93          	li	s7,2
    5904:	f60a8ae3          	beqz	s5,0x5878
    5908:	00300b93          	li	s7,3
    590c:	f6dff06f          	j	0x5878
    5910:	00000493          	li	s1,0
    5914:	00100b93          	li	s7,1
    5918:	f61ff06f          	j	0x5878
    591c:	02040863          	beqz	s0,0x594c
    5920:	00040513          	mv	a0,s0
    5924:	059000ef          	jal	0x617c
    5928:	ffb50793          	addi	a5,a0,-5
    592c:	00f41433          	sll	s0,s0,a5
    5930:	f8a00793          	li	a5,-118
    5934:	40a787b3          	sub	a5,a5,a0
    5938:	f71ff06f          	j	0x58a8
    593c:	00200713          	li	a4,2
    5940:	f60406e3          	beqz	s0,0x58ac
    5944:	00300713          	li	a4,3
    5948:	f65ff06f          	j	0x58ac
    594c:	00000793          	li	a5,0
    5950:	00100713          	li	a4,1
    5954:	f59ff06f          	j	0x58ac
    5958:	00541c13          	slli	s8,s0,0x5
    595c:	168af663          	bgeu	s5,s0,0x5ac8
    5960:	fffa0a13          	addi	s4,s4,-1
    5964:	00000413          	li	s0,0
    5968:	010c5b13          	srli	s6,s8,0x10
    596c:	000b0593          	mv	a1,s6
    5970:	010c1913          	slli	s2,s8,0x10
    5974:	000a8513          	mv	a0,s5
    5978:	758000ef          	jal	0x60d0
    597c:	01095913          	srli	s2,s2,0x10
    5980:	00050593          	mv	a1,a0
    5984:	00050b93          	mv	s7,a0
    5988:	00090513          	mv	a0,s2
    598c:	718000ef          	jal	0x60a4
    5990:	00050493          	mv	s1,a0
    5994:	000b0593          	mv	a1,s6
    5998:	000a8513          	mv	a0,s5
    599c:	77c000ef          	jal	0x6118
    59a0:	01045793          	srli	a5,s0,0x10
    59a4:	01051513          	slli	a0,a0,0x10
    59a8:	00a7e7b3          	or	a5,a5,a0
    59ac:	000b8413          	mv	s0,s7
    59b0:	0097fe63          	bgeu	a5,s1,0x59cc
    59b4:	00fc07b3          	add	a5,s8,a5
    59b8:	fffb8413          	addi	s0,s7,-1
    59bc:	0187e863          	bltu	a5,s8,0x59cc
    59c0:	0097f663          	bgeu	a5,s1,0x59cc
    59c4:	ffeb8413          	addi	s0,s7,-2
    59c8:	018787b3          	add	a5,a5,s8
    59cc:	409784b3          	sub	s1,a5,s1
    59d0:	000b0593          	mv	a1,s6
    59d4:	00048513          	mv	a0,s1
    59d8:	6f8000ef          	jal	0x60d0
    59dc:	00050593          	mv	a1,a0
    59e0:	00050a93          	mv	s5,a0
    59e4:	00090513          	mv	a0,s2
    59e8:	6bc000ef          	jal	0x60a4
    59ec:	00050913          	mv	s2,a0
    59f0:	000b0593          	mv	a1,s6
    59f4:	00048513          	mv	a0,s1
    59f8:	720000ef          	jal	0x6118
    59fc:	01051793          	slli	a5,a0,0x10
    5a00:	000a8713          	mv	a4,s5
    5a04:	0327f263          	bgeu	a5,s2,0x5a28
    5a08:	018786b3          	add	a3,a5,s8
    5a0c:	00f6b633          	sltu	a2,a3,a5
    5a10:	fffa8713          	addi	a4,s5,-1
    5a14:	00068793          	mv	a5,a3
    5a18:	00061863          	bnez	a2,0x5a28
    5a1c:	0126f663          	bgeu	a3,s2,0x5a28
    5a20:	ffea8713          	addi	a4,s5,-2
    5a24:	018687b3          	add	a5,a3,s8
    5a28:	01041413          	slli	s0,s0,0x10
    5a2c:	412787b3          	sub	a5,a5,s2
    5a30:	00e46433          	or	s0,s0,a4
    5a34:	00f037b3          	snez	a5,a5
    5a38:	00f46433          	or	s0,s0,a5
    5a3c:	07fa0713          	addi	a4,s4,127
    5a40:	0ce05663          	blez	a4,0x5b0c
    5a44:	00747793          	andi	a5,s0,7
    5a48:	00078a63          	beqz	a5,0x5a5c
    5a4c:	00f47793          	andi	a5,s0,15
    5a50:	00400693          	li	a3,4
    5a54:	00d78463          	beq	a5,a3,0x5a5c
    5a58:	00d40433          	add	s0,s0,a3
    5a5c:	00441793          	slli	a5,s0,0x4
    5a60:	0007da63          	bgez	a5,0x5a74
    5a64:	f80007b7          	lui	a5,0xf8000
    5a68:	fff78793          	addi	a5,a5,-1 # 0xf7ffffff
    5a6c:	00f47433          	and	s0,s0,a5
    5a70:	080a0713          	addi	a4,s4,128
    5a74:	0fe00793          	li	a5,254
    5a78:	10e7c263          	blt	a5,a4,0x5b7c
    5a7c:	00345793          	srli	a5,s0,0x3
    5a80:	02c12083          	lw	ra,44(sp)
    5a84:	02812403          	lw	s0,40(sp)
    5a88:	00979793          	slli	a5,a5,0x9
    5a8c:	01771713          	slli	a4,a4,0x17
    5a90:	0097d793          	srli	a5,a5,0x9
    5a94:	01f99513          	slli	a0,s3,0x1f
    5a98:	00f76733          	or	a4,a4,a5
    5a9c:	02412483          	lw	s1,36(sp)
    5aa0:	02012903          	lw	s2,32(sp)
    5aa4:	01c12983          	lw	s3,28(sp)
    5aa8:	01812a03          	lw	s4,24(sp)
    5aac:	01412a83          	lw	s5,20(sp)
    5ab0:	01012b03          	lw	s6,16(sp)
    5ab4:	00c12b83          	lw	s7,12(sp)
    5ab8:	00812c03          	lw	s8,8(sp)
    5abc:	00a76533          	or	a0,a4,a0
    5ac0:	03010113          	addi	sp,sp,48
    5ac4:	00008067          	ret
    5ac8:	01fa9413          	slli	s0,s5,0x1f
    5acc:	001ada93          	srli	s5,s5,0x1
    5ad0:	e99ff06f          	j	0x5968
    5ad4:	000b0993          	mv	s3,s6
    5ad8:	00200793          	li	a5,2
    5adc:	0af70063          	beq	a4,a5,0x5b7c
    5ae0:	00300793          	li	a5,3
    5ae4:	08f70463          	beq	a4,a5,0x5b6c
    5ae8:	00100793          	li	a5,1
    5aec:	f4f718e3          	bne	a4,a5,0x5a3c
    5af0:	00000793          	li	a5,0
    5af4:	00000713          	li	a4,0
    5af8:	f89ff06f          	j	0x5a80
    5afc:	00090993          	mv	s3,s2
    5b00:	000a8413          	mv	s0,s5
    5b04:	000b8713          	mv	a4,s7
    5b08:	fd1ff06f          	j	0x5ad8
    5b0c:	00100693          	li	a3,1
    5b10:	00070c63          	beqz	a4,0x5b28
    5b14:	40e686b3          	sub	a3,a3,a4
    5b18:	01b00613          	li	a2,27
    5b1c:	00000793          	li	a5,0
    5b20:	00000713          	li	a4,0
    5b24:	f4d64ee3          	blt	a2,a3,0x5a80
    5b28:	09ea0493          	addi	s1,s4,158
    5b2c:	00d456b3          	srl	a3,s0,a3
    5b30:	00941433          	sll	s0,s0,s1
    5b34:	00803433          	snez	s0,s0
    5b38:	0086e7b3          	or	a5,a3,s0
    5b3c:	0077f713          	andi	a4,a5,7
    5b40:	00070a63          	beqz	a4,0x5b54
    5b44:	00f7f713          	andi	a4,a5,15
    5b48:	00400693          	li	a3,4
    5b4c:	00d70463          	beq	a4,a3,0x5b54
    5b50:	00d787b3          	add	a5,a5,a3
    5b54:	00579713          	slli	a4,a5,0x5
    5b58:	0037d793          	srli	a5,a5,0x3
    5b5c:	f8075ce3          	bgez	a4,0x5af4
    5b60:	00000793          	li	a5,0
    5b64:	00100713          	li	a4,1
    5b68:	f19ff06f          	j	0x5a80
    5b6c:	004007b7          	lui	a5,0x400
    5b70:	0ff00713          	li	a4,255
    5b74:	00000993          	li	s3,0
    5b78:	f09ff06f          	j	0x5a80
    5b7c:	00000793          	li	a5,0
    5b80:	0ff00713          	li	a4,255
    5b84:	efdff06f          	j	0x5a80
    5b88:	fe010113          	addi	sp,sp,-32
    5b8c:	01212823          	sw	s2,16(sp)
    5b90:	01755913          	srli	s2,a0,0x17
    5b94:	00912a23          	sw	s1,20(sp)
    5b98:	01312623          	sw	s3,12(sp)
    5b9c:	01512223          	sw	s5,4(sp)
    5ba0:	00951493          	slli	s1,a0,0x9
    5ba4:	00112e23          	sw	ra,28(sp)
    5ba8:	00812c23          	sw	s0,24(sp)
    5bac:	01412423          	sw	s4,8(sp)
    5bb0:	0ff97913          	zext.b	s2,s2
    5bb4:	00058a93          	mv	s5,a1
    5bb8:	0094d493          	srli	s1,s1,0x9
    5bbc:	01f55993          	srli	s3,a0,0x1f
    5bc0:	1a090c63          	beqz	s2,0x5d78
    5bc4:	0ff00793          	li	a5,255
    5bc8:	1cf90863          	beq	s2,a5,0x5d98
    5bcc:	00349493          	slli	s1,s1,0x3
    5bd0:	040007b7          	lui	a5,0x4000
    5bd4:	00f4e4b3          	or	s1,s1,a5
    5bd8:	f8190913          	addi	s2,s2,-127
    5bdc:	00000a13          	li	s4,0
    5be0:	017ad793          	srli	a5,s5,0x17
    5be4:	009a9413          	slli	s0,s5,0x9
    5be8:	0ff7f793          	zext.b	a5,a5
    5bec:	00945413          	srli	s0,s0,0x9
    5bf0:	01fada93          	srli	s5,s5,0x1f
    5bf4:	1c078063          	beqz	a5,0x5db4
    5bf8:	0ff00713          	li	a4,255
    5bfc:	1ce78c63          	beq	a5,a4,0x5dd4
    5c00:	00341413          	slli	s0,s0,0x3
    5c04:	04000737          	lui	a4,0x4000
    5c08:	00e46433          	or	s0,s0,a4
    5c0c:	f8178793          	addi	a5,a5,-127 # 0x3ffff81
    5c10:	00000713          	li	a4,0
    5c14:	00f90933          	add	s2,s2,a5
    5c18:	002a1793          	slli	a5,s4,0x2
    5c1c:	00e7e7b3          	or	a5,a5,a4
    5c20:	00a00693          	li	a3,10
    5c24:	00190813          	addi	a6,s2,1
    5c28:	20f6c663          	blt	a3,a5,0x5e34
    5c2c:	00200613          	li	a2,2
    5c30:	0159c9b3          	xor	s3,s3,s5
    5c34:	00100693          	li	a3,1
    5c38:	1af64c63          	blt	a2,a5,0x5df0
    5c3c:	fff78793          	addi	a5,a5,-1
    5c40:	1cf6f863          	bgeu	a3,a5,0x5e10
    5c44:	0104de13          	srli	t3,s1,0x10
    5c48:	01045793          	srli	a5,s0,0x10
    5c4c:	01049493          	slli	s1,s1,0x10
    5c50:	01041413          	slli	s0,s0,0x10
    5c54:	0104d493          	srli	s1,s1,0x10
    5c58:	01045413          	srli	s0,s0,0x10
    5c5c:	00048513          	mv	a0,s1
    5c60:	00040593          	mv	a1,s0
    5c64:	440000ef          	jal	0x60a4
    5c68:	00050893          	mv	a7,a0
    5c6c:	00078593          	mv	a1,a5
    5c70:	00048513          	mv	a0,s1
    5c74:	430000ef          	jal	0x60a4
    5c78:	00050713          	mv	a4,a0
    5c7c:	00040593          	mv	a1,s0
    5c80:	000e0513          	mv	a0,t3
    5c84:	420000ef          	jal	0x60a4
    5c88:	00050313          	mv	t1,a0
    5c8c:	00078593          	mv	a1,a5
    5c90:	000e0513          	mv	a0,t3
    5c94:	410000ef          	jal	0x60a4
    5c98:	0108d793          	srli	a5,a7,0x10
    5c9c:	00670733          	add	a4,a4,t1
    5ca0:	00e787b3          	add	a5,a5,a4
    5ca4:	00050693          	mv	a3,a0
    5ca8:	0067f663          	bgeu	a5,t1,0x5cb4
    5cac:	00010737          	lui	a4,0x10
    5cb0:	00e506b3          	add	a3,a0,a4
    5cb4:	01089893          	slli	a7,a7,0x10
    5cb8:	01079713          	slli	a4,a5,0x10
    5cbc:	0108d893          	srli	a7,a7,0x10
    5cc0:	01170733          	add	a4,a4,a7
    5cc4:	0107d793          	srli	a5,a5,0x10
    5cc8:	00671413          	slli	s0,a4,0x6
    5ccc:	00d787b3          	add	a5,a5,a3
    5cd0:	01a75713          	srli	a4,a4,0x1a
    5cd4:	00679793          	slli	a5,a5,0x6
    5cd8:	00803433          	snez	s0,s0
    5cdc:	00e46433          	or	s0,s0,a4
    5ce0:	00479713          	slli	a4,a5,0x4
    5ce4:	0087e433          	or	s0,a5,s0
    5ce8:	16075463          	bgez	a4,0x5e50
    5cec:	00145793          	srli	a5,s0,0x1
    5cf0:	00147413          	andi	s0,s0,1
    5cf4:	0087e433          	or	s0,a5,s0
    5cf8:	07f80513          	addi	a0,a6,127
    5cfc:	14a05e63          	blez	a0,0x5e58
    5d00:	00747793          	andi	a5,s0,7
    5d04:	00078a63          	beqz	a5,0x5d18
    5d08:	00f47793          	andi	a5,s0,15
    5d0c:	00400713          	li	a4,4
    5d10:	00e78463          	beq	a5,a4,0x5d18
    5d14:	00e40433          	add	s0,s0,a4
    5d18:	00441793          	slli	a5,s0,0x4
    5d1c:	0007da63          	bgez	a5,0x5d30
    5d20:	f80007b7          	lui	a5,0xf8000
    5d24:	fff78793          	addi	a5,a5,-1 # 0xf7ffffff
    5d28:	00f47433          	and	s0,s0,a5
    5d2c:	08080513          	addi	a0,a6,128
    5d30:	0fe00793          	li	a5,254
    5d34:	18a7ca63          	blt	a5,a0,0x5ec8
    5d38:	00345793          	srli	a5,s0,0x3
    5d3c:	01c12083          	lw	ra,28(sp)
    5d40:	01812403          	lw	s0,24(sp)
    5d44:	00979793          	slli	a5,a5,0x9
    5d48:	01751513          	slli	a0,a0,0x17
    5d4c:	0097d793          	srli	a5,a5,0x9
    5d50:	01f99993          	slli	s3,s3,0x1f
    5d54:	00f56533          	or	a0,a0,a5
    5d58:	01412483          	lw	s1,20(sp)
    5d5c:	01012903          	lw	s2,16(sp)
    5d60:	00812a03          	lw	s4,8(sp)
    5d64:	00412a83          	lw	s5,4(sp)
    5d68:	01356533          	or	a0,a0,s3
    5d6c:	00c12983          	lw	s3,12(sp)
    5d70:	02010113          	addi	sp,sp,32
    5d74:	00008067          	ret
    5d78:	02048863          	beqz	s1,0x5da8
    5d7c:	00048513          	mv	a0,s1
    5d80:	3fc000ef          	jal	0x617c
    5d84:	ffb50793          	addi	a5,a0,-5
    5d88:	f8a00913          	li	s2,-118
    5d8c:	00f494b3          	sll	s1,s1,a5
    5d90:	40a90933          	sub	s2,s2,a0
    5d94:	e49ff06f          	j	0x5bdc
    5d98:	00200a13          	li	s4,2
    5d9c:	e40482e3          	beqz	s1,0x5be0
    5da0:	00300a13          	li	s4,3
    5da4:	e3dff06f          	j	0x5be0
    5da8:	00000913          	li	s2,0
    5dac:	00100a13          	li	s4,1
    5db0:	e31ff06f          	j	0x5be0
    5db4:	02040863          	beqz	s0,0x5de4
    5db8:	00040513          	mv	a0,s0
    5dbc:	3c0000ef          	jal	0x617c
    5dc0:	ffb50793          	addi	a5,a0,-5
    5dc4:	00f41433          	sll	s0,s0,a5
    5dc8:	f8a00793          	li	a5,-118
    5dcc:	40a787b3          	sub	a5,a5,a0
    5dd0:	e41ff06f          	j	0x5c10
    5dd4:	00200713          	li	a4,2
    5dd8:	e2040ee3          	beqz	s0,0x5c14
    5ddc:	00300713          	li	a4,3
    5de0:	e35ff06f          	j	0x5c14
    5de4:	00000793          	li	a5,0
    5de8:	00100713          	li	a4,1
    5dec:	e29ff06f          	j	0x5c14
    5df0:	00f697b3          	sll	a5,a3,a5
    5df4:	5307f693          	andi	a3,a5,1328
    5df8:	04069663          	bnez	a3,0x5e44
    5dfc:	2407f693          	andi	a3,a5,576
    5e00:	0a069c63          	bnez	a3,0x5eb8
    5e04:	0887f793          	andi	a5,a5,136
    5e08:	e2078ee3          	beqz	a5,0x5c44
    5e0c:	000a8993          	mv	s3,s5
    5e10:	00200793          	li	a5,2
    5e14:	0af70a63          	beq	a4,a5,0x5ec8
    5e18:	00300793          	li	a5,3
    5e1c:	08f70e63          	beq	a4,a5,0x5eb8
    5e20:	00100793          	li	a5,1
    5e24:	ecf71ae3          	bne	a4,a5,0x5cf8
    5e28:	00000793          	li	a5,0
    5e2c:	00000513          	li	a0,0
    5e30:	f0dff06f          	j	0x5d3c
    5e34:	00f00693          	li	a3,15
    5e38:	08d78063          	beq	a5,a3,0x5eb8
    5e3c:	00b00693          	li	a3,11
    5e40:	fcd786e3          	beq	a5,a3,0x5e0c
    5e44:	00048413          	mv	s0,s1
    5e48:	000a0713          	mv	a4,s4
    5e4c:	fc5ff06f          	j	0x5e10
    5e50:	00090813          	mv	a6,s2
    5e54:	ea5ff06f          	j	0x5cf8
    5e58:	00100713          	li	a4,1
    5e5c:	00050c63          	beqz	a0,0x5e74
    5e60:	40a70733          	sub	a4,a4,a0
    5e64:	01b00693          	li	a3,27
    5e68:	00000793          	li	a5,0
    5e6c:	00000513          	li	a0,0
    5e70:	ece6c6e3          	blt	a3,a4,0x5d3c
    5e74:	09e80813          	addi	a6,a6,158
    5e78:	00e45733          	srl	a4,s0,a4
    5e7c:	01041433          	sll	s0,s0,a6
    5e80:	00803433          	snez	s0,s0
    5e84:	008767b3          	or	a5,a4,s0
    5e88:	0077f713          	andi	a4,a5,7
    5e8c:	00070a63          	beqz	a4,0x5ea0
    5e90:	00f7f713          	andi	a4,a5,15
    5e94:	00400693          	li	a3,4
    5e98:	00d70463          	beq	a4,a3,0x5ea0
    5e9c:	00d787b3          	add	a5,a5,a3
    5ea0:	00579713          	slli	a4,a5,0x5
    5ea4:	0037d793          	srli	a5,a5,0x3
    5ea8:	f80752e3          	bgez	a4,0x5e2c
    5eac:	00000793          	li	a5,0
    5eb0:	00100513          	li	a0,1
    5eb4:	e89ff06f          	j	0x5d3c
    5eb8:	004007b7          	lui	a5,0x400
    5ebc:	0ff00513          	li	a0,255
    5ec0:	00000993          	li	s3,0
    5ec4:	e79ff06f          	j	0x5d3c
    5ec8:	00000793          	li	a5,0
    5ecc:	0ff00513          	li	a0,255
    5ed0:	e6dff06f          	j	0x5d3c
    5ed4:	ff010113          	addi	sp,sp,-16
    5ed8:	00812423          	sw	s0,8(sp)
    5edc:	00112623          	sw	ra,12(sp)
    5ee0:	00050413          	mv	s0,a0
    5ee4:	00000713          	li	a4,0
    5ee8:	02050463          	beqz	a0,0x5f10
    5eec:	290000ef          	jal	0x617c
    5ef0:	09e00713          	li	a4,158
    5ef4:	40a70733          	sub	a4,a4,a0
    5ef8:	09600793          	li	a5,150
    5efc:	02e7ca63          	blt	a5,a4,0x5f30
    5f00:	00800693          	li	a3,8
    5f04:	0ad50663          	beq	a0,a3,0x5fb0
    5f08:	ff850513          	addi	a0,a0,-8
    5f0c:	00a41433          	sll	s0,s0,a0
    5f10:	00941413          	slli	s0,s0,0x9
    5f14:	00945413          	srli	s0,s0,0x9
    5f18:	01771513          	slli	a0,a4,0x17
    5f1c:	00c12083          	lw	ra,12(sp)
    5f20:	00856533          	or	a0,a0,s0
    5f24:	00812403          	lw	s0,8(sp)
    5f28:	01010113          	addi	sp,sp,16
    5f2c:	00008067          	ret
    5f30:	09900793          	li	a5,153
    5f34:	06e7d463          	bge	a5,a4,0x5f9c
    5f38:	01b50793          	addi	a5,a0,27
    5f3c:	00500693          	li	a3,5
    5f40:	00f417b3          	sll	a5,s0,a5
    5f44:	40a686b3          	sub	a3,a3,a0
    5f48:	00f037b3          	snez	a5,a5
    5f4c:	00d45433          	srl	s0,s0,a3
    5f50:	0087e7b3          	or	a5,a5,s0
    5f54:	fc000437          	lui	s0,0xfc000
    5f58:	fff40413          	addi	s0,s0,-1 # 0xfbffffff
    5f5c:	0077f693          	andi	a3,a5,7
    5f60:	0087f433          	and	s0,a5,s0
    5f64:	04068263          	beqz	a3,0x5fa8
    5f68:	00f7f793          	andi	a5,a5,15
    5f6c:	00400693          	li	a3,4
    5f70:	02d78c63          	beq	a5,a3,0x5fa8
    5f74:	00d40433          	add	s0,s0,a3
    5f78:	00541693          	slli	a3,s0,0x5
    5f7c:	00345793          	srli	a5,s0,0x3
    5f80:	0206d463          	bgez	a3,0x5fa8
    5f84:	1f800437          	lui	s0,0x1f800
    5f88:	09f00713          	li	a4,159
    5f8c:	fff40413          	addi	s0,s0,-1 # 0x1f7fffff
    5f90:	40a70733          	sub	a4,a4,a0
    5f94:	0087f433          	and	s0,a5,s0
    5f98:	f79ff06f          	j	0x5f10
    5f9c:	ffb50793          	addi	a5,a0,-5
    5fa0:	00f417b3          	sll	a5,s0,a5
    5fa4:	fb1ff06f          	j	0x5f54
    5fa8:	00345413          	srli	s0,s0,0x3
    5fac:	f65ff06f          	j	0x5f10
    5fb0:	00078713          	mv	a4,a5
    5fb4:	f5dff06f          	j	0x5f10
    5fb8:	01755713          	srli	a4,a0,0x17
    5fbc:	0ff77713          	zext.b	a4,a4
    5fc0:	fe010113          	addi	sp,sp,-32
    5fc4:	00170793          	addi	a5,a4,1 # 0x10001
    5fc8:	00812c23          	sw	s0,24(sp)
    5fcc:	00912a23          	sw	s1,20(sp)
    5fd0:	00951413          	slli	s0,a0,0x9
    5fd4:	00112e23          	sw	ra,28(sp)
    5fd8:	01212823          	sw	s2,16(sp)
    5fdc:	01312623          	sw	s3,12(sp)
    5fe0:	0fe7f793          	andi	a5,a5,254
    5fe4:	00945413          	srli	s0,s0,0x9
    5fe8:	01f55493          	srli	s1,a0,0x1f
    5fec:	04078663          	beqz	a5,0x6038
    5ff0:	00345793          	srli	a5,s0,0x3
    5ff4:	38070713          	addi	a4,a4,896
    5ff8:	01d41413          	slli	s0,s0,0x1d
    5ffc:	00c79793          	slli	a5,a5,0xc
    6000:	00c7d793          	srli	a5,a5,0xc
    6004:	01471713          	slli	a4,a4,0x14
    6008:	01f49513          	slli	a0,s1,0x1f
    600c:	00f76733          	or	a4,a4,a5
    6010:	01c12083          	lw	ra,28(sp)
    6014:	00a767b3          	or	a5,a4,a0
    6018:	00040513          	mv	a0,s0
    601c:	01812403          	lw	s0,24(sp)
    6020:	01412483          	lw	s1,20(sp)
    6024:	01012903          	lw	s2,16(sp)
    6028:	00c12983          	lw	s3,12(sp)
    602c:	00078593          	mv	a1,a5
    6030:	02010113          	addi	sp,sp,32
    6034:	00008067          	ret
    6038:	04071663          	bnez	a4,0x6084
    603c:	00000793          	li	a5,0
    6040:	fa040ee3          	beqz	s0,0x5ffc
    6044:	00040513          	mv	a0,s0
    6048:	134000ef          	jal	0x617c
    604c:	00a00793          	li	a5,10
    6050:	02a7c263          	blt	a5,a0,0x6074
    6054:	00b00793          	li	a5,11
    6058:	40a787b3          	sub	a5,a5,a0
    605c:	01550713          	addi	a4,a0,21
    6060:	00f457b3          	srl	a5,s0,a5
    6064:	00e41433          	sll	s0,s0,a4
    6068:	38900713          	li	a4,905
    606c:	40a70733          	sub	a4,a4,a0
    6070:	f8dff06f          	j	0x5ffc
    6074:	ff550793          	addi	a5,a0,-11
    6078:	00f417b3          	sll	a5,s0,a5
    607c:	00000413          	li	s0,0
    6080:	fe9ff06f          	j	0x6068
    6084:	00000793          	li	a5,0
    6088:	00040a63          	beqz	s0,0x609c
    608c:	00345793          	srli	a5,s0,0x3
    6090:	00080737          	lui	a4,0x80
    6094:	01d41413          	slli	s0,s0,0x1d
    6098:	00e7e7b3          	or	a5,a5,a4
    609c:	7ff00713          	li	a4,2047
    60a0:	f5dff06f          	j	0x5ffc
    60a4:	00050613          	mv	a2,a0
    60a8:	00000513          	li	a0,0
    60ac:	0015f693          	andi	a3,a1,1
    60b0:	00068463          	beqz	a3,0x60b8
    60b4:	00c50533          	add	a0,a0,a2
    60b8:	0015d593          	srli	a1,a1,0x1
    60bc:	00161613          	slli	a2,a2,0x1
    60c0:	fe0596e3          	bnez	a1,0x60ac
    60c4:	00008067          	ret
    60c8:	06054063          	bltz	a0,0x6128
    60cc:	0605c663          	bltz	a1,0x6138
    60d0:	00058613          	mv	a2,a1
    60d4:	00050593          	mv	a1,a0
    60d8:	fff00513          	li	a0,-1
    60dc:	02060c63          	beqz	a2,0x6114
    60e0:	00100693          	li	a3,1
    60e4:	00b67a63          	bgeu	a2,a1,0x60f8
    60e8:	00c05863          	blez	a2,0x60f8
    60ec:	00161613          	slli	a2,a2,0x1
    60f0:	00169693          	slli	a3,a3,0x1
    60f4:	feb66ae3          	bltu	a2,a1,0x60e8
    60f8:	00000513          	li	a0,0
    60fc:	00c5e663          	bltu	a1,a2,0x6108
    6100:	40c585b3          	sub	a1,a1,a2
    6104:	00d56533          	or	a0,a0,a3
    6108:	0016d693          	srli	a3,a3,0x1
    610c:	00165613          	srli	a2,a2,0x1
    6110:	fe0696e3          	bnez	a3,0x60fc
    6114:	00008067          	ret
    6118:	00008293          	mv	t0,ra
    611c:	fb5ff0ef          	jal	0x60d0
    6120:	00058513          	mv	a0,a1
    6124:	00028067          	jr	t0 # 0x3ddc
    6128:	40a00533          	neg	a0,a0
    612c:	00b04863          	bgtz	a1,0x613c
    6130:	40b005b3          	neg	a1,a1
    6134:	f9dff06f          	j	0x60d0
    6138:	40b005b3          	neg	a1,a1
    613c:	00008293          	mv	t0,ra
    6140:	f91ff0ef          	jal	0x60d0
    6144:	40a00533          	neg	a0,a0
    6148:	00028067          	jr	t0
    614c:	00008293          	mv	t0,ra
    6150:	0005ca63          	bltz	a1,0x6164
    6154:	00054c63          	bltz	a0,0x616c
    6158:	f79ff0ef          	jal	0x60d0
    615c:	00058513          	mv	a0,a1
    6160:	00028067          	jr	t0
    6164:	40b005b3          	neg	a1,a1
    6168:	fe0558e3          	bgez	a0,0x6158
    616c:	40a00533          	neg	a0,a0
    6170:	f61ff0ef          	jal	0x60d0
    6174:	40b00533          	neg	a0,a1
    6178:	00028067          	jr	t0
    617c:	000107b7          	lui	a5,0x10
    6180:	02f57a63          	bgeu	a0,a5,0x61b4
    6184:	10053793          	sltiu	a5,a0,256
    6188:	0017b793          	seqz	a5,a5
    618c:	00379793          	slli	a5,a5,0x3
    6190:	00019737          	lui	a4,0x19
    6194:	02000693          	li	a3,32
    6198:	40f686b3          	sub	a3,a3,a5
    619c:	00f55533          	srl	a0,a0,a5
    61a0:	a0c70793          	addi	a5,a4,-1524 # 0x18a0c
    61a4:	00a787b3          	add	a5,a5,a0
    61a8:	0007c503          	lbu	a0,0(a5) # 0x10000
    61ac:	40a68533          	sub	a0,a3,a0
    61b0:	00008067          	ret
    61b4:	01000737          	lui	a4,0x1000
    61b8:	01800793          	li	a5,24
    61bc:	fce57ae3          	bgeu	a0,a4,0x6190
    61c0:	01000793          	li	a5,16
    61c4:	fcdff06f          	j	0x6190

Disassembly of section .text.hot:

000061c8 <.text.hot>:
    61c8:	00050813          	mv	a6,a0
    61cc:	48050463          	beqz	a0,0x6654
    61d0:	00251313          	slli	t1,a0,0x2
    61d4:	40a008b3          	neg	a7,a0
    61d8:	00658733          	add	a4,a1,t1
    61dc:	00389893          	slli	a7,a7,0x3
    61e0:	00000593          	li	a1,0
    61e4:	00000513          	li	a0,0
    61e8:	00000f93          	li	t6,0
    61ec:	00000e93          	li	t4,0
    61f0:	406706b3          	sub	a3,a4,t1
    61f4:	40d707b3          	sub	a5,a4,a3
    61f8:	ffc78293          	addi	t0,a5,-4
    61fc:	0022d393          	srli	t2,t0,0x2
    6200:	00138e13          	addi	t3,t2,1
    6204:	007e7793          	andi	a5,t3,7
    6208:	00068e13          	mv	t3,a3
    620c:	28078a63          	beqz	a5,0x64a0
    6210:	00100f13          	li	t5,1
    6214:	13e78a63          	beq	a5,t5,0x6348
    6218:	00200293          	li	t0,2
    621c:	10578063          	beq	a5,t0,0x631c
    6220:	00300393          	li	t2,3
    6224:	0c778663          	beq	a5,t2,0x62f0
    6228:	00400f13          	li	t5,4
    622c:	09e78c63          	beq	a5,t5,0x62c4
    6230:	00500293          	li	t0,5
    6234:	06578263          	beq	a5,t0,0x6298
    6238:	00600393          	li	t2,6
    623c:	02778863          	beq	a5,t2,0x626c
    6240:	000f8e13          	mv	t3,t6
    6244:	0006af83          	lw	t6,0(a3)
    6248:	01051513          	slli	a0,a0,0x10
    624c:	01055f13          	srli	t5,a0,0x10
    6250:	01fe8eb3          	add	t4,t4,t6
    6254:	3fd65663          	bge	a2,t4,0x6640
    6258:	00af0e93          	addi	t4,t5,10
    625c:	010e9e13          	slli	t3,t4,0x10
    6260:	410e5513          	srai	a0,t3,0x10
    6264:	00000e93          	li	t4,0
    6268:	00468e13          	addi	t3,a3,4
    626c:	000f8f13          	mv	t5,t6
    6270:	000e2f83          	lw	t6,0(t3)
    6274:	01051513          	slli	a0,a0,0x10
    6278:	01055293          	srli	t0,a0,0x10
    627c:	01fe8eb3          	add	t4,t4,t6
    6280:	3bd65663          	bge	a2,t4,0x662c
    6284:	00a28e93          	addi	t4,t0,10
    6288:	010e9513          	slli	a0,t4,0x10
    628c:	41055513          	srai	a0,a0,0x10
    6290:	00000e93          	li	t4,0
    6294:	004e0e13          	addi	t3,t3,4
    6298:	000f8293          	mv	t0,t6
    629c:	000e2f83          	lw	t6,0(t3)
    62a0:	01051793          	slli	a5,a0,0x10
    62a4:	0107d393          	srli	t2,a5,0x10
    62a8:	01fe8eb3          	add	t4,t4,t6
    62ac:	37d65663          	bge	a2,t4,0x6618
    62b0:	00a38e93          	addi	t4,t2,10
    62b4:	010e9793          	slli	a5,t4,0x10
    62b8:	4107d513          	srai	a0,a5,0x10
    62bc:	00000e93          	li	t4,0
    62c0:	004e0e13          	addi	t3,t3,4
    62c4:	000f8393          	mv	t2,t6
    62c8:	000e2f83          	lw	t6,0(t3)
    62cc:	01051f13          	slli	t5,a0,0x10
    62d0:	010f5513          	srli	a0,t5,0x10
    62d4:	01fe8eb3          	add	t4,t4,t6
    62d8:	33d65663          	bge	a2,t4,0x6604
    62dc:	00a50e93          	addi	t4,a0,10
    62e0:	010e9f13          	slli	t5,t4,0x10
    62e4:	410f5513          	srai	a0,t5,0x10
    62e8:	00000e93          	li	t4,0
    62ec:	004e0e13          	addi	t3,t3,4
    62f0:	000f8293          	mv	t0,t6
    62f4:	000e2f83          	lw	t6,0(t3)
    62f8:	01051513          	slli	a0,a0,0x10
    62fc:	01055793          	srli	a5,a0,0x10
    6300:	01fe8eb3          	add	t4,t4,t6
    6304:	2fd65663          	bge	a2,t4,0x65f0
    6308:	00a78e93          	addi	t4,a5,10
    630c:	010e9513          	slli	a0,t4,0x10
    6310:	41055513          	srai	a0,a0,0x10
    6314:	00000e93          	li	t4,0
    6318:	004e0e13          	addi	t3,t3,4
    631c:	000f8393          	mv	t2,t6
    6320:	000e2f83          	lw	t6,0(t3)
    6324:	01051793          	slli	a5,a0,0x10
    6328:	0107d293          	srli	t0,a5,0x10
    632c:	01fe8eb3          	add	t4,t4,t6
    6330:	2bd65663          	bge	a2,t4,0x65dc
    6334:	00a28e93          	addi	t4,t0,10
    6338:	010e9793          	slli	a5,t4,0x10
    633c:	4107d513          	srai	a0,a5,0x10
    6340:	00000e93          	li	t4,0
    6344:	004e0e13          	addi	t3,t3,4
    6348:	000f8293          	mv	t0,t6
    634c:	000e2f83          	lw	t6,0(t3)
    6350:	01051f13          	slli	t5,a0,0x10
    6354:	010f5513          	srli	a0,t5,0x10
    6358:	01fe8eb3          	add	t4,t4,t6
    635c:	27d65663          	bge	a2,t4,0x65c8
    6360:	00a50e93          	addi	t4,a0,10
    6364:	010e9f13          	slli	t5,t4,0x10
    6368:	410f5513          	srai	a0,t5,0x10
    636c:	00000e93          	li	t4,0
    6370:	004e0e13          	addi	t3,t3,4
    6374:	13c71663          	bne	a4,t3,0x64a0
    6378:	00158593          	addi	a1,a1,1 # 0x10001
    637c:	41168733          	sub	a4,a3,a7
    6380:	e6b818e3          	bne	a6,a1,0x61f0
    6384:	00008067          	ret
    6388:	007fafb3          	slt	t6,t6,t2
    638c:	01f782b3          	add	t0,a5,t6
    6390:	004e2f83          	lw	t6,4(t3)
    6394:	01029f13          	slli	t5,t0,0x10
    6398:	410f5793          	srai	a5,t5,0x10
    639c:	01079293          	slli	t0,a5,0x10
    63a0:	01fe8533          	add	a0,t4,t6
    63a4:	0102d793          	srli	a5,t0,0x10
    63a8:	004e0e13          	addi	t3,t3,4
    63ac:	12a65863          	bge	a2,a0,0x64dc
    63b0:	004e2383          	lw	t2,4(t3)
    63b4:	00a78793          	addi	a5,a5,10
    63b8:	01079513          	slli	a0,a5,0x10
    63bc:	41055293          	srai	t0,a0,0x10
    63c0:	00000513          	li	a0,0
    63c4:	01029f13          	slli	t5,t0,0x10
    63c8:	007502b3          	add	t0,a0,t2
    63cc:	010f5e93          	srli	t4,t5,0x10
    63d0:	12565863          	bge	a2,t0,0x6500
    63d4:	00ae8e93          	addi	t4,t4,10
    63d8:	008e2f83          	lw	t6,8(t3)
    63dc:	010e9293          	slli	t0,t4,0x10
    63e0:	4102df13          	srai	t5,t0,0x10
    63e4:	00000293          	li	t0,0
    63e8:	010f1793          	slli	a5,t5,0x10
    63ec:	01f28533          	add	a0,t0,t6
    63f0:	0107de93          	srli	t4,a5,0x10
    63f4:	12a65863          	bge	a2,a0,0x6524
    63f8:	00ce2383          	lw	t2,12(t3)
    63fc:	00ae8e93          	addi	t4,t4,10
    6400:	010e9513          	slli	a0,t4,0x10
    6404:	41055793          	srai	a5,a0,0x10
    6408:	00000513          	li	a0,0
    640c:	01079f13          	slli	t5,a5,0x10
    6410:	00750533          	add	a0,a0,t2
    6414:	010f5293          	srli	t0,t5,0x10
    6418:	12a65863          	bge	a2,a0,0x6548
    641c:	00a28293          	addi	t0,t0,10
    6420:	010e2f83          	lw	t6,16(t3)
    6424:	01029513          	slli	a0,t0,0x10
    6428:	41055f13          	srai	t5,a0,0x10
    642c:	00000513          	li	a0,0
    6430:	010f1793          	slli	a5,t5,0x10
    6434:	01f502b3          	add	t0,a0,t6
    6438:	0107de93          	srli	t4,a5,0x10
    643c:	12565863          	bge	a2,t0,0x656c
    6440:	014e2383          	lw	t2,20(t3)
    6444:	00ae8e93          	addi	t4,t4,10
    6448:	010e9293          	slli	t0,t4,0x10
    644c:	4102d793          	srai	a5,t0,0x10
    6450:	00000293          	li	t0,0
    6454:	01079f13          	slli	t5,a5,0x10
    6458:	00728533          	add	a0,t0,t2
    645c:	010f5793          	srli	a5,t5,0x10
    6460:	12a65863          	bge	a2,a0,0x6590
    6464:	00a78793          	addi	a5,a5,10
    6468:	01079513          	slli	a0,a5,0x10
    646c:	018e2f83          	lw	t6,24(t3)
    6470:	41055f13          	srai	t5,a0,0x10
    6474:	010f1e93          	slli	t4,t5,0x10
    6478:	00000513          	li	a0,0
    647c:	010ed293          	srli	t0,t4,0x10
    6480:	01f50eb3          	add	t4,a0,t6
    6484:	13d65863          	bge	a2,t4,0x65b4
    6488:	00a28513          	addi	a0,t0,10
    648c:	01051293          	slli	t0,a0,0x10
    6490:	4102d513          	srai	a0,t0,0x10
    6494:	00000e93          	li	t4,0
    6498:	01ce0e13          	addi	t3,t3,28
    649c:	edc70ee3          	beq	a4,t3,0x6378
    64a0:	000e2383          	lw	t2,0(t3)
    64a4:	01051513          	slli	a0,a0,0x10
    64a8:	01055793          	srli	a5,a0,0x10
    64ac:	007e8eb3          	add	t4,t4,t2
    64b0:	edd65ce3          	bge	a2,t4,0x6388
    64b4:	00a78e93          	addi	t4,a5,10
    64b8:	004e2f83          	lw	t6,4(t3)
    64bc:	010e9513          	slli	a0,t4,0x10
    64c0:	41055793          	srai	a5,a0,0x10
    64c4:	00000e93          	li	t4,0
    64c8:	01079293          	slli	t0,a5,0x10
    64cc:	01fe8533          	add	a0,t4,t6
    64d0:	0102d793          	srli	a5,t0,0x10
    64d4:	004e0e13          	addi	t3,t3,4
    64d8:	eca64ce3          	blt	a2,a0,0x63b0
    64dc:	01f3a3b3          	slt	t2,t2,t6
    64e0:	00778f33          	add	t5,a5,t2
    64e4:	004e2383          	lw	t2,4(t3)
    64e8:	010f1e93          	slli	t4,t5,0x10
    64ec:	410ed293          	srai	t0,t4,0x10
    64f0:	01029f13          	slli	t5,t0,0x10
    64f4:	007502b3          	add	t0,a0,t2
    64f8:	010f5e93          	srli	t4,t5,0x10
    64fc:	ec564ce3          	blt	a2,t0,0x63d4
    6500:	007fafb3          	slt	t6,t6,t2
    6504:	01fe87b3          	add	a5,t4,t6
    6508:	008e2f83          	lw	t6,8(t3)
    650c:	01079513          	slli	a0,a5,0x10
    6510:	41055f13          	srai	t5,a0,0x10
    6514:	010f1793          	slli	a5,t5,0x10
    6518:	01f28533          	add	a0,t0,t6
    651c:	0107de93          	srli	t4,a5,0x10
    6520:	eca64ce3          	blt	a2,a0,0x63f8
    6524:	01f3a3b3          	slt	t2,t2,t6
    6528:	007e8f33          	add	t5,t4,t2
    652c:	00ce2383          	lw	t2,12(t3)
    6530:	010f1293          	slli	t0,t5,0x10
    6534:	4102d793          	srai	a5,t0,0x10
    6538:	01079f13          	slli	t5,a5,0x10
    653c:	00750533          	add	a0,a0,t2
    6540:	010f5293          	srli	t0,t5,0x10
    6544:	eca64ce3          	blt	a2,a0,0x641c
    6548:	007fafb3          	slt	t6,t6,t2
    654c:	01f287b3          	add	a5,t0,t6
    6550:	010e2f83          	lw	t6,16(t3)
    6554:	01079e93          	slli	t4,a5,0x10
    6558:	410edf13          	srai	t5,t4,0x10
    655c:	010f1793          	slli	a5,t5,0x10
    6560:	01f502b3          	add	t0,a0,t6
    6564:	0107de93          	srli	t4,a5,0x10
    6568:	ec564ce3          	blt	a2,t0,0x6440
    656c:	01f3a3b3          	slt	t2,t2,t6
    6570:	007e8f33          	add	t5,t4,t2
    6574:	014e2383          	lw	t2,20(t3)
    6578:	010f1513          	slli	a0,t5,0x10
    657c:	41055793          	srai	a5,a0,0x10
    6580:	01079f13          	slli	t5,a5,0x10
    6584:	00728533          	add	a0,t0,t2
    6588:	010f5793          	srli	a5,t5,0x10
    658c:	eca64ce3          	blt	a2,a0,0x6464
    6590:	007fafb3          	slt	t6,t6,t2
    6594:	01f78eb3          	add	t4,a5,t6
    6598:	010e9293          	slli	t0,t4,0x10
    659c:	018e2f83          	lw	t6,24(t3)
    65a0:	4102df13          	srai	t5,t0,0x10
    65a4:	010f1e93          	slli	t4,t5,0x10
    65a8:	010ed293          	srli	t0,t4,0x10
    65ac:	01f50eb3          	add	t4,a0,t6
    65b0:	edd64ce3          	blt	a2,t4,0x6488
    65b4:	01f3a3b3          	slt	t2,t2,t6
    65b8:	00728f33          	add	t5,t0,t2
    65bc:	010f1793          	slli	a5,t5,0x10
    65c0:	4107d513          	srai	a0,a5,0x10
    65c4:	ed5ff06f          	j	0x6498
    65c8:	01f2a3b3          	slt	t2,t0,t6
    65cc:	007507b3          	add	a5,a0,t2
    65d0:	01079293          	slli	t0,a5,0x10
    65d4:	4102d513          	srai	a0,t0,0x10
    65d8:	d99ff06f          	j	0x6370
    65dc:	01f3af33          	slt	t5,t2,t6
    65e0:	01e28533          	add	a0,t0,t5
    65e4:	01051393          	slli	t2,a0,0x10
    65e8:	4103d513          	srai	a0,t2,0x10
    65ec:	d59ff06f          	j	0x6344
    65f0:	01f2a3b3          	slt	t2,t0,t6
    65f4:	00778f33          	add	t5,a5,t2
    65f8:	010f1293          	slli	t0,t5,0x10
    65fc:	4102d513          	srai	a0,t0,0x10
    6600:	d19ff06f          	j	0x6318
    6604:	01f3a2b3          	slt	t0,t2,t6
    6608:	005507b3          	add	a5,a0,t0
    660c:	01079393          	slli	t2,a5,0x10
    6610:	4103d513          	srai	a0,t2,0x10
    6614:	cd9ff06f          	j	0x62ec
    6618:	01f2af33          	slt	t5,t0,t6
    661c:	01e38533          	add	a0,t2,t5
    6620:	01051293          	slli	t0,a0,0x10
    6624:	4102d513          	srai	a0,t0,0x10
    6628:	c99ff06f          	j	0x62c0
    662c:	01ff27b3          	slt	a5,t5,t6
    6630:	00f283b3          	add	t2,t0,a5
    6634:	01039f13          	slli	t5,t2,0x10
    6638:	410f5513          	srai	a0,t5,0x10
    663c:	c59ff06f          	j	0x6294
    6640:	01fe27b3          	slt	a5,t3,t6
    6644:	00ff02b3          	add	t0,t5,a5
    6648:	01029393          	slli	t2,t0,0x10
    664c:	4103d513          	srai	a0,t2,0x10
    6650:	c19ff06f          	j	0x6268
    6654:	00000513          	li	a0,0
    6658:	00008067          	ret
    665c:	24050863          	beqz	a0,0x68ac
    6660:	fd010113          	addi	sp,sp,-48
    6664:	01812423          	sw	s8,8(sp)
    6668:	01a12023          	sw	s10,0(sp)
    666c:	40a00c33          	neg	s8,a0
    6670:	00151d13          	slli	s10,a0,0x1
    6674:	03212023          	sw	s2,32(sp)
    6678:	01312e23          	sw	s3,28(sp)
    667c:	01512a23          	sw	s5,20(sp)
    6680:	01612823          	sw	s6,16(sp)
    6684:	01712623          	sw	s7,12(sp)
    6688:	01912223          	sw	s9,4(sp)
    668c:	02112623          	sw	ra,44(sp)
    6690:	02812423          	sw	s0,40(sp)
    6694:	02912223          	sw	s1,36(sp)
    6698:	01412c23          	sw	s4,24(sp)
    669c:	00050b93          	mv	s7,a0
    66a0:	00058c93          	mv	s9,a1
    66a4:	00068913          	mv	s2,a3
    66a8:	01a609b3          	add	s3,a2,s10
    66ac:	002c1c13          	slli	s8,s8,0x2
    66b0:	00000b13          	li	s6,0
    66b4:	00000a93          	li	s5,0
    66b8:	41a98a33          	sub	s4,s3,s10
    66bc:	414987b3          	sub	a5,s3,s4
    66c0:	ffe78293          	addi	t0,a5,-2
    66c4:	0012d313          	srli	t1,t0,0x1
    66c8:	00130393          	addi	t2,t1,1
    66cc:	002b1413          	slli	s0,s6,0x2
    66d0:	0073f513          	andi	a0,t2,7
    66d4:	000a0493          	mv	s1,s4
    66d8:	008c8433          	add	s0,s9,s0
    66dc:	0e050063          	beqz	a0,0x67bc
    66e0:	00100713          	li	a4,1
    66e4:	0ae50e63          	beq	a0,a4,0x67a0
    66e8:	00200593          	li	a1,2
    66ec:	08b50e63          	beq	a0,a1,0x6788
    66f0:	00300613          	li	a2,3
    66f4:	06c50e63          	beq	a0,a2,0x6770
    66f8:	00400693          	li	a3,4
    66fc:	04d50e63          	beq	a0,a3,0x6758
    6700:	00500813          	li	a6,5
    6704:	03050e63          	beq	a0,a6,0x6740
    6708:	00600893          	li	a7,6
    670c:	01150e63          	beq	a0,a7,0x6728
    6710:	000a1503          	lh	a0,0(s4)
    6714:	00090593          	mv	a1,s2
    6718:	002a0493          	addi	s1,s4,2
    671c:	989ff0ef          	jal	0x60a4
    6720:	00a42023          	sw	a0,0(s0)
    6724:	00440413          	addi	s0,s0,4
    6728:	00049503          	lh	a0,0(s1)
    672c:	00090593          	mv	a1,s2
    6730:	00248493          	addi	s1,s1,2
    6734:	971ff0ef          	jal	0x60a4
    6738:	00a42023          	sw	a0,0(s0)
    673c:	00440413          	addi	s0,s0,4
    6740:	00049503          	lh	a0,0(s1)
    6744:	00090593          	mv	a1,s2
    6748:	00248493          	addi	s1,s1,2
    674c:	959ff0ef          	jal	0x60a4
    6750:	00a42023          	sw	a0,0(s0)
    6754:	00440413          	addi	s0,s0,4
    6758:	00049503          	lh	a0,0(s1)
    675c:	00090593          	mv	a1,s2
    6760:	00248493          	addi	s1,s1,2
    6764:	941ff0ef          	jal	0x60a4
    6768:	00a42023          	sw	a0,0(s0)
    676c:	00440413          	addi	s0,s0,4
    6770:	00049503          	lh	a0,0(s1)
    6774:	00090593          	mv	a1,s2
    6778:	00248493          	addi	s1,s1,2
    677c:	929ff0ef          	jal	0x60a4
    6780:	00a42023          	sw	a0,0(s0)
    6784:	00440413          	addi	s0,s0,4
    6788:	00049503          	lh	a0,0(s1)
    678c:	00090593          	mv	a1,s2
    6790:	00248493          	addi	s1,s1,2
    6794:	911ff0ef          	jal	0x60a4
    6798:	00a42023          	sw	a0,0(s0)
    679c:	00440413          	addi	s0,s0,4
    67a0:	00049503          	lh	a0,0(s1)
    67a4:	00090593          	mv	a1,s2
    67a8:	00248493          	addi	s1,s1,2
    67ac:	8f9ff0ef          	jal	0x60a4
    67b0:	00a42023          	sw	a0,0(s0)
    67b4:	00440413          	addi	s0,s0,4
    67b8:	0b348663          	beq	s1,s3,0x6864
    67bc:	00049503          	lh	a0,0(s1)
    67c0:	00090593          	mv	a1,s2
    67c4:	01048493          	addi	s1,s1,16
    67c8:	8ddff0ef          	jal	0x60a4
    67cc:	00050e13          	mv	t3,a0
    67d0:	ff249503          	lh	a0,-14(s1)
    67d4:	00090593          	mv	a1,s2
    67d8:	01c42023          	sw	t3,0(s0)
    67dc:	8c9ff0ef          	jal	0x60a4
    67e0:	00050e93          	mv	t4,a0
    67e4:	ff449503          	lh	a0,-12(s1)
    67e8:	00090593          	mv	a1,s2
    67ec:	01d42223          	sw	t4,4(s0)
    67f0:	8b5ff0ef          	jal	0x60a4
    67f4:	00050f13          	mv	t5,a0
    67f8:	ff649503          	lh	a0,-10(s1)
    67fc:	00090593          	mv	a1,s2
    6800:	01e42423          	sw	t5,8(s0)
    6804:	8a1ff0ef          	jal	0x60a4
    6808:	00050f93          	mv	t6,a0
    680c:	ff849503          	lh	a0,-8(s1)
    6810:	00090593          	mv	a1,s2
    6814:	01f42623          	sw	t6,12(s0)
    6818:	88dff0ef          	jal	0x60a4
    681c:	00050793          	mv	a5,a0
    6820:	ffa49503          	lh	a0,-6(s1)
    6824:	00090593          	mv	a1,s2
    6828:	00f42823          	sw	a5,16(s0)
    682c:	879ff0ef          	jal	0x60a4
    6830:	00050293          	mv	t0,a0
    6834:	ffc49503          	lh	a0,-4(s1)
    6838:	00090593          	mv	a1,s2
    683c:	00542a23          	sw	t0,20(s0)
    6840:	865ff0ef          	jal	0x60a4
    6844:	00050313          	mv	t1,a0
    6848:	ffe49503          	lh	a0,-2(s1)
    684c:	00090593          	mv	a1,s2
    6850:	00642c23          	sw	t1,24(s0)
    6854:	851ff0ef          	jal	0x60a4
    6858:	00a42e23          	sw	a0,28(s0)
    685c:	02040413          	addi	s0,s0,32
    6860:	f5349ee3          	bne	s1,s3,0x67bc
    6864:	001a8a93          	addi	s5,s5,1
    6868:	017b0b33          	add	s6,s6,s7
    686c:	418a09b3          	sub	s3,s4,s8
    6870:	e55b94e3          	bne	s7,s5,0x66b8
    6874:	02c12083          	lw	ra,44(sp)
    6878:	02812403          	lw	s0,40(sp)
    687c:	02412483          	lw	s1,36(sp)
    6880:	02012903          	lw	s2,32(sp)
    6884:	01c12983          	lw	s3,28(sp)
    6888:	01812a03          	lw	s4,24(sp)
    688c:	01412a83          	lw	s5,20(sp)
    6890:	01012b03          	lw	s6,16(sp)
    6894:	00c12b83          	lw	s7,12(sp)
    6898:	00812c03          	lw	s8,8(sp)
    689c:	00412c83          	lw	s9,4(sp)
    68a0:	00012d03          	lw	s10,0(sp)
    68a4:	03010113          	addi	sp,sp,48
    68a8:	00008067          	ret
    68ac:	00008067          	ret
    68b0:	22050c63          	beqz	a0,0x6ae8
    68b4:	01061693          	slli	a3,a2,0x10
    68b8:	00151393          	slli	t2,a0,0x1
    68bc:	40a002b3          	neg	t0,a0
    68c0:	0106d693          	srli	a3,a3,0x10
    68c4:	00758633          	add	a2,a1,t2
    68c8:	00229293          	slli	t0,t0,0x2
    68cc:	00000f93          	li	t6,0
    68d0:	407605b3          	sub	a1,a2,t2
    68d4:	40b60733          	sub	a4,a2,a1
    68d8:	ffe70313          	addi	t1,a4,-2 # 0xfffffe
    68dc:	00135793          	srli	a5,t1,0x1
    68e0:	00178813          	addi	a6,a5,1
    68e4:	00787893          	andi	a7,a6,7
    68e8:	00058793          	mv	a5,a1
    68ec:	0a088463          	beqz	a7,0x6994
    68f0:	00100e13          	li	t3,1
    68f4:	09c88663          	beq	a7,t3,0x6980
    68f8:	00200e93          	li	t4,2
    68fc:	07d88a63          	beq	a7,t4,0x6970
    6900:	00300f13          	li	t5,3
    6904:	05e88e63          	beq	a7,t5,0x6960
    6908:	00400713          	li	a4,4
    690c:	04e88263          	beq	a7,a4,0x6950
    6910:	00500313          	li	t1,5
    6914:	02688663          	beq	a7,t1,0x6940
    6918:	00600813          	li	a6,6
    691c:	01088a63          	beq	a7,a6,0x6930
    6920:	0005d883          	lhu	a7,0(a1)
    6924:	00258793          	addi	a5,a1,2
    6928:	01168e33          	add	t3,a3,a7
    692c:	01c59023          	sh	t3,0(a1)
    6930:	0007de83          	lhu	t4,0(a5)
    6934:	00278793          	addi	a5,a5,2
    6938:	01d68f33          	add	t5,a3,t4
    693c:	ffe79f23          	sh	t5,-2(a5)
    6940:	0007d703          	lhu	a4,0(a5)
    6944:	00278793          	addi	a5,a5,2
    6948:	00e68333          	add	t1,a3,a4
    694c:	fe679f23          	sh	t1,-2(a5)
    6950:	0007d803          	lhu	a6,0(a5)
    6954:	00278793          	addi	a5,a5,2
    6958:	010688b3          	add	a7,a3,a6
    695c:	ff179f23          	sh	a7,-2(a5)
    6960:	0007de03          	lhu	t3,0(a5)
    6964:	00278793          	addi	a5,a5,2
    6968:	01c68eb3          	add	t4,a3,t3
    696c:	ffd79f23          	sh	t4,-2(a5)
    6970:	0007df03          	lhu	t5,0(a5)
    6974:	00278793          	addi	a5,a5,2
    6978:	01e68733          	add	a4,a3,t5
    697c:	fee79f23          	sh	a4,-2(a5)
    6980:	0007d303          	lhu	t1,0(a5)
    6984:	00278793          	addi	a5,a5,2
    6988:	00668833          	add	a6,a3,t1
    698c:	ff079f23          	sh	a6,-2(a5)
    6990:	14f60663          	beq	a2,a5,0x6adc
    6994:	ff010113          	addi	sp,sp,-16
    6998:	00812623          	sw	s0,12(sp)
    699c:	0007d403          	lhu	s0,0(a5)
    69a0:	0027df03          	lhu	t5,2(a5)
    69a4:	0047de83          	lhu	t4,4(a5)
    69a8:	0067de03          	lhu	t3,6(a5)
    69ac:	0087d303          	lhu	t1,8(a5)
    69b0:	00a7d883          	lhu	a7,10(a5)
    69b4:	00c7d803          	lhu	a6,12(a5)
    69b8:	00e7d703          	lhu	a4,14(a5)
    69bc:	00868433          	add	s0,a3,s0
    69c0:	01e68f33          	add	t5,a3,t5
    69c4:	01d68eb3          	add	t4,a3,t4
    69c8:	01c68e33          	add	t3,a3,t3
    69cc:	00668333          	add	t1,a3,t1
    69d0:	011688b3          	add	a7,a3,a7
    69d4:	01068833          	add	a6,a3,a6
    69d8:	00e68733          	add	a4,a3,a4
    69dc:	00879023          	sh	s0,0(a5)
    69e0:	01e79123          	sh	t5,2(a5)
    69e4:	01d79223          	sh	t4,4(a5)
    69e8:	01c79323          	sh	t3,6(a5)
    69ec:	00679423          	sh	t1,8(a5)
    69f0:	01179523          	sh	a7,10(a5)
    69f4:	01079623          	sh	a6,12(a5)
    69f8:	00e79723          	sh	a4,14(a5)
    69fc:	01078793          	addi	a5,a5,16
    6a00:	f8f61ee3          	bne	a2,a5,0x699c
    6a04:	001f8f93          	addi	t6,t6,1
    6a08:	40558633          	sub	a2,a1,t0
    6a0c:	0df50263          	beq	a0,t6,0x6ad0
    6a10:	407605b3          	sub	a1,a2,t2
    6a14:	40b607b3          	sub	a5,a2,a1
    6a18:	ffe78413          	addi	s0,a5,-2
    6a1c:	00145f13          	srli	t5,s0,0x1
    6a20:	001f0e93          	addi	t4,t5,1
    6a24:	007efe13          	andi	t3,t4,7
    6a28:	00058793          	mv	a5,a1
    6a2c:	f60e08e3          	beqz	t3,0x699c
    6a30:	00100313          	li	t1,1
    6a34:	066e0e63          	beq	t3,t1,0x6ab0
    6a38:	00200893          	li	a7,2
    6a3c:	071e0263          	beq	t3,a7,0x6aa0
    6a40:	00300813          	li	a6,3
    6a44:	050e0663          	beq	t3,a6,0x6a90
    6a48:	00400713          	li	a4,4
    6a4c:	02ee0a63          	beq	t3,a4,0x6a80
    6a50:	00500413          	li	s0,5
    6a54:	008e0e63          	beq	t3,s0,0x6a70
    6a58:	00600f13          	li	t5,6
    6a5c:	09ee1863          	bne	t3,t5,0x6aec
    6a60:	0007d303          	lhu	t1,0(a5)
    6a64:	00278793          	addi	a5,a5,2
    6a68:	006688b3          	add	a7,a3,t1
    6a6c:	ff179f23          	sh	a7,-2(a5)
    6a70:	0007d803          	lhu	a6,0(a5)
    6a74:	00278793          	addi	a5,a5,2
    6a78:	01068733          	add	a4,a3,a6
    6a7c:	fee79f23          	sh	a4,-2(a5)
    6a80:	0007d403          	lhu	s0,0(a5)
    6a84:	00278793          	addi	a5,a5,2
    6a88:	00868f33          	add	t5,a3,s0
    6a8c:	ffe79f23          	sh	t5,-2(a5)
    6a90:	0007de83          	lhu	t4,0(a5)
    6a94:	00278793          	addi	a5,a5,2
    6a98:	01d68e33          	add	t3,a3,t4
    6a9c:	ffc79f23          	sh	t3,-2(a5)
    6aa0:	0007d303          	lhu	t1,0(a5)
    6aa4:	00278793          	addi	a5,a5,2
    6aa8:	006688b3          	add	a7,a3,t1
    6aac:	ff179f23          	sh	a7,-2(a5)
    6ab0:	0007d803          	lhu	a6,0(a5)
    6ab4:	00278793          	addi	a5,a5,2
    6ab8:	01068733          	add	a4,a3,a6
    6abc:	fee79f23          	sh	a4,-2(a5)
    6ac0:	ecf61ee3          	bne	a2,a5,0x699c
    6ac4:	001f8f93          	addi	t6,t6,1
    6ac8:	40558633          	sub	a2,a1,t0
    6acc:	f5f512e3          	bne	a0,t6,0x6a10
    6ad0:	00c12403          	lw	s0,12(sp)
    6ad4:	01010113          	addi	sp,sp,16
    6ad8:	00008067          	ret
    6adc:	001f8f93          	addi	t6,t6,1
    6ae0:	40558633          	sub	a2,a1,t0
    6ae4:	dff516e3          	bne	a0,t6,0x68d0
    6ae8:	00008067          	ret
    6aec:	0005de83          	lhu	t4,0(a1)
    6af0:	00258793          	addi	a5,a1,2
    6af4:	01d68e33          	add	t3,a3,t4
    6af8:	01c59023          	sh	t3,0(a1)
    6afc:	f65ff06f          	j	0x6a60
    6b00:	24050463          	beqz	a0,0x6d48
    6b04:	fd010113          	addi	sp,sp,-48
    6b08:	01312e23          	sw	s3,28(sp)
    6b0c:	01712623          	sw	s7,12(sp)
    6b10:	00151993          	slli	s3,a0,0x1
    6b14:	00251b93          	slli	s7,a0,0x2
    6b18:	03212023          	sw	s2,32(sp)
    6b1c:	01412c23          	sw	s4,24(sp)
    6b20:	01512a23          	sw	s5,20(sp)
    6b24:	01612823          	sw	s6,16(sp)
    6b28:	01812423          	sw	s8,8(sp)
    6b2c:	02112623          	sw	ra,44(sp)
    6b30:	02812423          	sw	s0,40(sp)
    6b34:	02912223          	sw	s1,36(sp)
    6b38:	01912223          	sw	s9,4(sp)
    6b3c:	00050b13          	mv	s6,a0
    6b40:	00060c13          	mv	s8,a2
    6b44:	00068a93          	mv	s5,a3
    6b48:	00058913          	mv	s2,a1
    6b4c:	01758bb3          	add	s7,a1,s7
    6b50:	013689b3          	add	s3,a3,s3
    6b54:	00000a13          	li	s4,0
    6b58:	415987b3          	sub	a5,s3,s5
    6b5c:	ffe78293          	addi	t0,a5,-2
    6b60:	0012d313          	srli	t1,t0,0x1
    6b64:	00130393          	addi	t2,t1,1
    6b68:	001a1493          	slli	s1,s4,0x1
    6b6c:	0073f513          	andi	a0,t2,7
    6b70:	009c04b3          	add	s1,s8,s1
    6b74:	000a8c93          	mv	s9,s5
    6b78:	00000413          	li	s0,0
    6b7c:	0e050063          	beqz	a0,0x6c5c
    6b80:	00100713          	li	a4,1
    6b84:	0ae50e63          	beq	a0,a4,0x6c40
    6b88:	00200593          	li	a1,2
    6b8c:	08b50e63          	beq	a0,a1,0x6c28
    6b90:	00300613          	li	a2,3
    6b94:	06c50e63          	beq	a0,a2,0x6c10
    6b98:	00400693          	li	a3,4
    6b9c:	04d50e63          	beq	a0,a3,0x6bf8
    6ba0:	00500813          	li	a6,5
    6ba4:	03050e63          	beq	a0,a6,0x6be0
    6ba8:	00600893          	li	a7,6
    6bac:	01150e63          	beq	a0,a7,0x6bc8
    6bb0:	00049503          	lh	a0,0(s1)
    6bb4:	000a9583          	lh	a1,0(s5)
    6bb8:	00248493          	addi	s1,s1,2
    6bbc:	002a8c93          	addi	s9,s5,2
    6bc0:	ce4ff0ef          	jal	0x60a4
    6bc4:	00050413          	mv	s0,a0
    6bc8:	000c9583          	lh	a1,0(s9)
    6bcc:	00049503          	lh	a0,0(s1)
    6bd0:	002c8c93          	addi	s9,s9,2
    6bd4:	00248493          	addi	s1,s1,2
    6bd8:	cccff0ef          	jal	0x60a4
    6bdc:	00a40433          	add	s0,s0,a0
    6be0:	000c9583          	lh	a1,0(s9)
    6be4:	00049503          	lh	a0,0(s1)
    6be8:	002c8c93          	addi	s9,s9,2
    6bec:	00248493          	addi	s1,s1,2
    6bf0:	cb4ff0ef          	jal	0x60a4
    6bf4:	00a40433          	add	s0,s0,a0
    6bf8:	000c9583          	lh	a1,0(s9)
    6bfc:	00049503          	lh	a0,0(s1)
    6c00:	002c8c93          	addi	s9,s9,2
    6c04:	00248493          	addi	s1,s1,2
    6c08:	c9cff0ef          	jal	0x60a4
    6c0c:	00a40433          	add	s0,s0,a0
    6c10:	000c9583          	lh	a1,0(s9)
    6c14:	00049503          	lh	a0,0(s1)
    6c18:	002c8c93          	addi	s9,s9,2
    6c1c:	00248493          	addi	s1,s1,2
    6c20:	c84ff0ef          	jal	0x60a4
    6c24:	00a40433          	add	s0,s0,a0
    6c28:	000c9583          	lh	a1,0(s9)
    6c2c:	00049503          	lh	a0,0(s1)
    6c30:	002c8c93          	addi	s9,s9,2
    6c34:	00248493          	addi	s1,s1,2
    6c38:	c6cff0ef          	jal	0x60a4
    6c3c:	00a40433          	add	s0,s0,a0
    6c40:	000c9583          	lh	a1,0(s9)
    6c44:	00049503          	lh	a0,0(s1)
    6c48:	002c8c93          	addi	s9,s9,2
    6c4c:	00248493          	addi	s1,s1,2
    6c50:	c54ff0ef          	jal	0x60a4
    6c54:	00a40433          	add	s0,s0,a0
    6c58:	0b998663          	beq	s3,s9,0x6d04
    6c5c:	000c9583          	lh	a1,0(s9)
    6c60:	00049503          	lh	a0,0(s1)
    6c64:	010c8c93          	addi	s9,s9,16
    6c68:	01048493          	addi	s1,s1,16
    6c6c:	c38ff0ef          	jal	0x60a4
    6c70:	00050e13          	mv	t3,a0
    6c74:	ff2c9583          	lh	a1,-14(s9)
    6c78:	ff249503          	lh	a0,-14(s1)
    6c7c:	01c40433          	add	s0,s0,t3
    6c80:	c24ff0ef          	jal	0x60a4
    6c84:	00050e93          	mv	t4,a0
    6c88:	ff4c9583          	lh	a1,-12(s9)
    6c8c:	ff449503          	lh	a0,-12(s1)
    6c90:	01d40433          	add	s0,s0,t4
    6c94:	c10ff0ef          	jal	0x60a4
    6c98:	00050f13          	mv	t5,a0
    6c9c:	ff6c9583          	lh	a1,-10(s9)
    6ca0:	ff649503          	lh	a0,-10(s1)
    6ca4:	01e40433          	add	s0,s0,t5
    6ca8:	bfcff0ef          	jal	0x60a4
    6cac:	00050f93          	mv	t6,a0
    6cb0:	ff8c9583          	lh	a1,-8(s9)
    6cb4:	ff849503          	lh	a0,-8(s1)
    6cb8:	01f40433          	add	s0,s0,t6
    6cbc:	be8ff0ef          	jal	0x60a4
    6cc0:	00050793          	mv	a5,a0
    6cc4:	ffac9583          	lh	a1,-6(s9)
    6cc8:	ffa49503          	lh	a0,-6(s1)
    6ccc:	00f40433          	add	s0,s0,a5
    6cd0:	bd4ff0ef          	jal	0x60a4
    6cd4:	00050293          	mv	t0,a0
    6cd8:	ffcc9583          	lh	a1,-4(s9)
    6cdc:	ffc49503          	lh	a0,-4(s1)
    6ce0:	00540433          	add	s0,s0,t0
    6ce4:	bc0ff0ef          	jal	0x60a4
    6ce8:	00050313          	mv	t1,a0
    6cec:	ffec9583          	lh	a1,-2(s9)
    6cf0:	ffe49503          	lh	a0,-2(s1)
    6cf4:	00640433          	add	s0,s0,t1
    6cf8:	bacff0ef          	jal	0x60a4
    6cfc:	00a40433          	add	s0,s0,a0
    6d00:	f5999ee3          	bne	s3,s9,0x6c5c
    6d04:	00892023          	sw	s0,0(s2)
    6d08:	00490913          	addi	s2,s2,4
    6d0c:	016a0a33          	add	s4,s4,s6
    6d10:	e52b94e3          	bne	s7,s2,0x6b58
    6d14:	02c12083          	lw	ra,44(sp)
    6d18:	02812403          	lw	s0,40(sp)
    6d1c:	02412483          	lw	s1,36(sp)
    6d20:	02012903          	lw	s2,32(sp)
    6d24:	01c12983          	lw	s3,28(sp)
    6d28:	01812a03          	lw	s4,24(sp)
    6d2c:	01412a83          	lw	s5,20(sp)
    6d30:	01012b03          	lw	s6,16(sp)
    6d34:	00c12b83          	lw	s7,12(sp)
    6d38:	00812c03          	lw	s8,8(sp)
    6d3c:	00412c83          	lw	s9,4(sp)
    6d40:	03010113          	addi	sp,sp,48
    6d44:	00008067          	ret
    6d48:	00008067          	ret
    6d4c:	fb010113          	addi	sp,sp,-80
    6d50:	04112623          	sw	ra,76(sp)
    6d54:	00b12423          	sw	a1,8(sp)
    6d58:	00d12623          	sw	a3,12(sp)
    6d5c:	28050863          	beqz	a0,0x6fec
    6d60:	04912223          	sw	s1,68(sp)
    6d64:	00151493          	slli	s1,a0,0x1
    6d68:	03412c23          	sw	s4,56(sp)
    6d6c:	03512a23          	sw	s5,52(sp)
    6d70:	03712623          	sw	s7,44(sp)
    6d74:	03812423          	sw	s8,40(sp)
    6d78:	04812423          	sw	s0,72(sp)
    6d7c:	05212023          	sw	s2,64(sp)
    6d80:	03312e23          	sw	s3,60(sp)
    6d84:	03612823          	sw	s6,48(sp)
    6d88:	03912223          	sw	s9,36(sp)
    6d8c:	03a12023          	sw	s10,32(sp)
    6d90:	01b12e23          	sw	s11,28(sp)
    6d94:	00050b93          	mv	s7,a0
    6d98:	00060a93          	mv	s5,a2
    6d9c:	00960a33          	add	s4,a2,s1
    6da0:	00000c13          	li	s8,0
    6da4:	00012223          	sw	zero,4(sp)
    6da8:	00812783          	lw	a5,8(sp)
    6dac:	00c12903          	lw	s2,12(sp)
    6db0:	002c1993          	slli	s3,s8,0x2
    6db4:	013789b3          	add	s3,a5,s3
    6db8:	00000b13          	li	s6,0
    6dbc:	415a0733          	sub	a4,s4,s5
    6dc0:	ffe70293          	addi	t0,a4,-2
    6dc4:	0012d313          	srli	t1,t0,0x1
    6dc8:	00130393          	addi	t2,t1,1
    6dcc:	0073f513          	andi	a0,t2,7
    6dd0:	00090413          	mv	s0,s2
    6dd4:	000a8d93          	mv	s11,s5
    6dd8:	00000d13          	li	s10,0
    6ddc:	0e050063          	beqz	a0,0x6ebc
    6de0:	00100613          	li	a2,1
    6de4:	0ac50e63          	beq	a0,a2,0x6ea0
    6de8:	00200593          	li	a1,2
    6dec:	08b50e63          	beq	a0,a1,0x6e88
    6df0:	00300693          	li	a3,3
    6df4:	06d50e63          	beq	a0,a3,0x6e70
    6df8:	00400813          	li	a6,4
    6dfc:	05050e63          	beq	a0,a6,0x6e58
    6e00:	00500893          	li	a7,5
    6e04:	03150e63          	beq	a0,a7,0x6e40
    6e08:	00600c93          	li	s9,6
    6e0c:	01950e63          	beq	a0,s9,0x6e28
    6e10:	00091583          	lh	a1,0(s2)
    6e14:	000a9503          	lh	a0,0(s5)
    6e18:	002a8d93          	addi	s11,s5,2
    6e1c:	00990433          	add	s0,s2,s1
    6e20:	a84ff0ef          	jal	0x60a4
    6e24:	00050d13          	mv	s10,a0
    6e28:	00041583          	lh	a1,0(s0)
    6e2c:	000d9503          	lh	a0,0(s11)
    6e30:	00940433          	add	s0,s0,s1
    6e34:	002d8d93          	addi	s11,s11,2
    6e38:	a6cff0ef          	jal	0x60a4
    6e3c:	00ad0d33          	add	s10,s10,a0
    6e40:	00041583          	lh	a1,0(s0)
    6e44:	000d9503          	lh	a0,0(s11)
    6e48:	00940433          	add	s0,s0,s1
    6e4c:	002d8d93          	addi	s11,s11,2
    6e50:	a54ff0ef          	jal	0x60a4
    6e54:	00ad0d33          	add	s10,s10,a0
    6e58:	00041583          	lh	a1,0(s0)
    6e5c:	000d9503          	lh	a0,0(s11)
    6e60:	00940433          	add	s0,s0,s1
    6e64:	002d8d93          	addi	s11,s11,2
    6e68:	a3cff0ef          	jal	0x60a4
    6e6c:	00ad0d33          	add	s10,s10,a0
    6e70:	00041583          	lh	a1,0(s0)
    6e74:	000d9503          	lh	a0,0(s11)
    6e78:	00940433          	add	s0,s0,s1
    6e7c:	002d8d93          	addi	s11,s11,2
    6e80:	a24ff0ef          	jal	0x60a4
    6e84:	00ad0d33          	add	s10,s10,a0
    6e88:	00041583          	lh	a1,0(s0)
    6e8c:	000d9503          	lh	a0,0(s11)
    6e90:	00940433          	add	s0,s0,s1
    6e94:	002d8d93          	addi	s11,s11,2
    6e98:	a0cff0ef          	jal	0x60a4
    6e9c:	00ad0d33          	add	s10,s10,a0
    6ea0:	00041583          	lh	a1,0(s0)
    6ea4:	000d9503          	lh	a0,0(s11)
    6ea8:	002d8d93          	addi	s11,s11,2
    6eac:	00940433          	add	s0,s0,s1
    6eb0:	9f4ff0ef          	jal	0x60a4
    6eb4:	00ad0d33          	add	s10,s10,a0
    6eb8:	0dba0463          	beq	s4,s11,0x6f80
    6ebc:	00041583          	lh	a1,0(s0)
    6ec0:	000d9503          	lh	a0,0(s11)
    6ec4:	00940433          	add	s0,s0,s1
    6ec8:	010d8d93          	addi	s11,s11,16
    6ecc:	9d8ff0ef          	jal	0x60a4
    6ed0:	00050e13          	mv	t3,a0
    6ed4:	00041583          	lh	a1,0(s0)
    6ed8:	ff2d9503          	lh	a0,-14(s11)
    6edc:	01cd0d33          	add	s10,s10,t3
    6ee0:	00940433          	add	s0,s0,s1
    6ee4:	9c0ff0ef          	jal	0x60a4
    6ee8:	00050e93          	mv	t4,a0
    6eec:	00041583          	lh	a1,0(s0)
    6ef0:	ff4d9503          	lh	a0,-12(s11)
    6ef4:	01dd0cb3          	add	s9,s10,t4
    6ef8:	00940433          	add	s0,s0,s1
    6efc:	9a8ff0ef          	jal	0x60a4
    6f00:	00050f13          	mv	t5,a0
    6f04:	00041583          	lh	a1,0(s0)
    6f08:	ff6d9503          	lh	a0,-10(s11)
    6f0c:	01ec8d33          	add	s10,s9,t5
    6f10:	00940433          	add	s0,s0,s1
    6f14:	990ff0ef          	jal	0x60a4
    6f18:	00050f93          	mv	t6,a0
    6f1c:	00041583          	lh	a1,0(s0)
    6f20:	ff8d9503          	lh	a0,-8(s11)
    6f24:	01fd0cb3          	add	s9,s10,t6
    6f28:	00940433          	add	s0,s0,s1
    6f2c:	978ff0ef          	jal	0x60a4
    6f30:	00050793          	mv	a5,a0
    6f34:	00041583          	lh	a1,0(s0)
    6f38:	ffad9503          	lh	a0,-6(s11)
    6f3c:	00fc8d33          	add	s10,s9,a5
    6f40:	00940433          	add	s0,s0,s1
    6f44:	960ff0ef          	jal	0x60a4
    6f48:	00050713          	mv	a4,a0
    6f4c:	00041583          	lh	a1,0(s0)
    6f50:	ffcd9503          	lh	a0,-4(s11)
    6f54:	00ed0cb3          	add	s9,s10,a4
    6f58:	00940433          	add	s0,s0,s1
    6f5c:	948ff0ef          	jal	0x60a4
    6f60:	00050293          	mv	t0,a0
    6f64:	00041583          	lh	a1,0(s0)
    6f68:	ffed9503          	lh	a0,-2(s11)
    6f6c:	005c8d33          	add	s10,s9,t0
    6f70:	00940433          	add	s0,s0,s1
    6f74:	930ff0ef          	jal	0x60a4
    6f78:	00ad0d33          	add	s10,s10,a0
    6f7c:	f5ba10e3          	bne	s4,s11,0x6ebc
    6f80:	01a9a023          	sw	s10,0(s3)
    6f84:	001b0313          	addi	t1,s6,1
    6f88:	00498993          	addi	s3,s3,4
    6f8c:	00290913          	addi	s2,s2,2
    6f90:	006b8663          	beq	s7,t1,0x6f9c
    6f94:	00030b13          	mv	s6,t1
    6f98:	e25ff06f          	j	0x6dbc
    6f9c:	00412983          	lw	s3,4(sp)
    6fa0:	009a8ab3          	add	s5,s5,s1
    6fa4:	017c0c33          	add	s8,s8,s7
    6fa8:	009a0a33          	add	s4,s4,s1
    6fac:	00198913          	addi	s2,s3,1
    6fb0:	01698663          	beq	s3,s6,0x6fbc
    6fb4:	01212223          	sw	s2,4(sp)
    6fb8:	df1ff06f          	j	0x6da8
    6fbc:	04812403          	lw	s0,72(sp)
    6fc0:	04412483          	lw	s1,68(sp)
    6fc4:	04012903          	lw	s2,64(sp)
    6fc8:	03c12983          	lw	s3,60(sp)
    6fcc:	03812a03          	lw	s4,56(sp)
    6fd0:	03412a83          	lw	s5,52(sp)
    6fd4:	03012b03          	lw	s6,48(sp)
    6fd8:	02c12b83          	lw	s7,44(sp)
    6fdc:	02812c03          	lw	s8,40(sp)
    6fe0:	02412c83          	lw	s9,36(sp)
    6fe4:	02012d03          	lw	s10,32(sp)
    6fe8:	01c12d83          	lw	s11,28(sp)
    6fec:	04c12083          	lw	ra,76(sp)
    6ff0:	05010113          	addi	sp,sp,80
    6ff4:	00008067          	ret
    6ff8:	fb010113          	addi	sp,sp,-80
    6ffc:	04112623          	sw	ra,76(sp)
    7000:	00b12423          	sw	a1,8(sp)
    7004:	00d12623          	sw	a3,12(sp)
    7008:	22050e63          	beqz	a0,0x7244
    700c:	04912223          	sw	s1,68(sp)
    7010:	00151493          	slli	s1,a0,0x1
    7014:	05212023          	sw	s2,64(sp)
    7018:	03512a23          	sw	s5,52(sp)
    701c:	03712623          	sw	s7,44(sp)
    7020:	03812423          	sw	s8,40(sp)
    7024:	04812423          	sw	s0,72(sp)
    7028:	03312e23          	sw	s3,60(sp)
    702c:	03412c23          	sw	s4,56(sp)
    7030:	03612823          	sw	s6,48(sp)
    7034:	03912223          	sw	s9,36(sp)
    7038:	03a12023          	sw	s10,32(sp)
    703c:	01b12e23          	sw	s11,28(sp)
    7040:	00050b93          	mv	s7,a0
    7044:	00060a93          	mv	s5,a2
    7048:	00960933          	add	s2,a2,s1
    704c:	00000c13          	li	s8,0
    7050:	00012223          	sw	zero,4(sp)
    7054:	00812783          	lw	a5,8(sp)
    7058:	00c12983          	lw	s3,12(sp)
    705c:	002c1a13          	slli	s4,s8,0x2
    7060:	01478a33          	add	s4,a5,s4
    7064:	00000b13          	li	s6,0
    7068:	41590733          	sub	a4,s2,s5
    706c:	ffe70293          	addi	t0,a4,-2
    7070:	0012d313          	srli	t1,t0,0x1
    7074:	00130393          	addi	t2,t1,1
    7078:	0033f513          	andi	a0,t2,3
    707c:	00098413          	mv	s0,s3
    7080:	000a8d93          	mv	s11,s5
    7084:	00000d13          	li	s10,0
    7088:	08050e63          	beqz	a0,0x7124
    708c:	00100613          	li	a2,1
    7090:	06c50263          	beq	a0,a2,0x70f4
    7094:	00200593          	li	a1,2
    7098:	02b50863          	beq	a0,a1,0x70c8
    709c:	00099583          	lh	a1,0(s3)
    70a0:	000a9503          	lh	a0,0(s5)
    70a4:	002a8d93          	addi	s11,s5,2
    70a8:	ffdfe0ef          	jal	0x60a4
    70ac:	40555693          	srai	a3,a0,0x5
    70b0:	40255413          	srai	s0,a0,0x2
    70b4:	00f47513          	andi	a0,s0,15
    70b8:	07f6f593          	andi	a1,a3,127
    70bc:	fe9fe0ef          	jal	0x60a4
    70c0:	00050d13          	mv	s10,a0
    70c4:	00998433          	add	s0,s3,s1
    70c8:	00041583          	lh	a1,0(s0)
    70cc:	000d9503          	lh	a0,0(s11)
    70d0:	00940433          	add	s0,s0,s1
    70d4:	002d8d93          	addi	s11,s11,2
    70d8:	fcdfe0ef          	jal	0x60a4
    70dc:	40555893          	srai	a7,a0,0x5
    70e0:	40255813          	srai	a6,a0,0x2
    70e4:	00f87513          	andi	a0,a6,15
    70e8:	07f8f593          	andi	a1,a7,127
    70ec:	fb9fe0ef          	jal	0x60a4
    70f0:	00ad0d33          	add	s10,s10,a0
    70f4:	00041583          	lh	a1,0(s0)
    70f8:	000d9503          	lh	a0,0(s11)
    70fc:	002d8d93          	addi	s11,s11,2
    7100:	00940433          	add	s0,s0,s1
    7104:	fa1fe0ef          	jal	0x60a4
    7108:	40555e13          	srai	t3,a0,0x5
    710c:	40255c93          	srai	s9,a0,0x2
    7110:	00fcf513          	andi	a0,s9,15
    7114:	07fe7593          	andi	a1,t3,127
    7118:	f8dfe0ef          	jal	0x60a4
    711c:	00ad0d33          	add	s10,s10,a0
    7120:	0bb90c63          	beq	s2,s11,0x71d8
    7124:	00041583          	lh	a1,0(s0)
    7128:	000d9503          	lh	a0,0(s11)
    712c:	00940433          	add	s0,s0,s1
    7130:	008d8d93          	addi	s11,s11,8
    7134:	f71fe0ef          	jal	0x60a4
    7138:	40555f13          	srai	t5,a0,0x5
    713c:	40255e93          	srai	t4,a0,0x2
    7140:	07ff7593          	andi	a1,t5,127
    7144:	00fef513          	andi	a0,t4,15
    7148:	f5dfe0ef          	jal	0x60a4
    714c:	00050f93          	mv	t6,a0
    7150:	00041583          	lh	a1,0(s0)
    7154:	ffad9503          	lh	a0,-6(s11)
    7158:	01fd0d33          	add	s10,s10,t6
    715c:	00940433          	add	s0,s0,s1
    7160:	f45fe0ef          	jal	0x60a4
    7164:	40555713          	srai	a4,a0,0x5
    7168:	40255793          	srai	a5,a0,0x2
    716c:	07f77593          	andi	a1,a4,127
    7170:	00f7f513          	andi	a0,a5,15
    7174:	f31fe0ef          	jal	0x60a4
    7178:	00050293          	mv	t0,a0
    717c:	00041583          	lh	a1,0(s0)
    7180:	ffcd9503          	lh	a0,-4(s11)
    7184:	005d0cb3          	add	s9,s10,t0
    7188:	00940433          	add	s0,s0,s1
    718c:	f19fe0ef          	jal	0x60a4
    7190:	40555393          	srai	t2,a0,0x5
    7194:	40255313          	srai	t1,a0,0x2
    7198:	07f3f593          	andi	a1,t2,127
    719c:	00f37513          	andi	a0,t1,15
    71a0:	f05fe0ef          	jal	0x60a4
    71a4:	00050613          	mv	a2,a0
    71a8:	00041583          	lh	a1,0(s0)
    71ac:	ffed9503          	lh	a0,-2(s11)
    71b0:	00cc8d33          	add	s10,s9,a2
    71b4:	00940433          	add	s0,s0,s1
    71b8:	eedfe0ef          	jal	0x60a4
    71bc:	40255693          	srai	a3,a0,0x2
    71c0:	40555593          	srai	a1,a0,0x5
    71c4:	07f5f593          	andi	a1,a1,127
    71c8:	00f6f513          	andi	a0,a3,15
    71cc:	ed9fe0ef          	jal	0x60a4
    71d0:	00ad0d33          	add	s10,s10,a0
    71d4:	f5b918e3          	bne	s2,s11,0x7124
    71d8:	01aa2023          	sw	s10,0(s4)
    71dc:	001b0513          	addi	a0,s6,1
    71e0:	004a0a13          	addi	s4,s4,4
    71e4:	00298993          	addi	s3,s3,2
    71e8:	00ab8663          	beq	s7,a0,0x71f4
    71ec:	00050b13          	mv	s6,a0
    71f0:	e79ff06f          	j	0x7068
    71f4:	00412a03          	lw	s4,4(sp)
    71f8:	009a8ab3          	add	s5,s5,s1
    71fc:	017c0c33          	add	s8,s8,s7
    7200:	00990933          	add	s2,s2,s1
    7204:	001a0993          	addi	s3,s4,1
    7208:	016a0663          	beq	s4,s6,0x7214
    720c:	01312223          	sw	s3,4(sp)
    7210:	e45ff06f          	j	0x7054
    7214:	04812403          	lw	s0,72(sp)
    7218:	04412483          	lw	s1,68(sp)
    721c:	04012903          	lw	s2,64(sp)
    7220:	03c12983          	lw	s3,60(sp)
    7224:	03812a03          	lw	s4,56(sp)
    7228:	03412a83          	lw	s5,52(sp)
    722c:	03012b03          	lw	s6,48(sp)
    7230:	02c12b83          	lw	s7,44(sp)
    7234:	02812c03          	lw	s8,40(sp)
    7238:	02412c83          	lw	s9,36(sp)
    723c:	02012d03          	lw	s10,32(sp)
    7240:	01c12d83          	lw	s11,28(sp)
    7244:	04c12083          	lw	ra,76(sp)
    7248:	05010113          	addi	sp,sp,80
    724c:	00008067          	ret
    7250:	00b54733          	xor	a4,a0,a1
    7254:	00177293          	andi	t0,a4,1
    7258:	ffffa637          	lui	a2,0xffffa
    725c:	00160393          	addi	t2,a2,1 # 0xffffa001
    7260:	40500333          	neg	t1,t0
    7264:	007376b3          	and	a3,t1,t2
    7268:	0015d593          	srli	a1,a1,0x1
    726c:	00b6c7b3          	xor	a5,a3,a1
    7270:	01079813          	slli	a6,a5,0x10
    7274:	01085893          	srli	a7,a6,0x10
    7278:	00155e13          	srli	t3,a0,0x1
    727c:	011e4f33          	xor	t5,t3,a7
    7280:	001f7f93          	andi	t6,t5,1
    7284:	41f00733          	neg	a4,t6
    7288:	007772b3          	and	t0,a4,t2
    728c:	0018d613          	srli	a2,a7,0x1
    7290:	00c2c333          	xor	t1,t0,a2
    7294:	01031593          	slli	a1,t1,0x10
    7298:	0105d793          	srli	a5,a1,0x10
    729c:	00255e93          	srli	t4,a0,0x2
    72a0:	00fec833          	xor	a6,t4,a5
    72a4:	00187e13          	andi	t3,a6,1
    72a8:	41c00eb3          	neg	t4,t3
    72ac:	007eff33          	and	t5,t4,t2
    72b0:	0017df93          	srli	t6,a5,0x1
    72b4:	01ff4733          	xor	a4,t5,t6
    72b8:	01071293          	slli	t0,a4,0x10
    72bc:	0102d613          	srli	a2,t0,0x10
    72c0:	00355893          	srli	a7,a0,0x3
    72c4:	00c8c5b3          	xor	a1,a7,a2
    72c8:	0015f893          	andi	a7,a1,1
    72cc:	41100833          	neg	a6,a7
    72d0:	00787e33          	and	t3,a6,t2
    72d4:	00165e93          	srli	t4,a2,0x1
    72d8:	01de4f33          	xor	t5,t3,t4
    72dc:	010f1f93          	slli	t6,t5,0x10
    72e0:	010fd713          	srli	a4,t6,0x10
    72e4:	00455693          	srli	a3,a0,0x4
    72e8:	00e6c6b3          	xor	a3,a3,a4
    72ec:	0016f293          	andi	t0,a3,1
    72f0:	40500633          	neg	a2,t0
    72f4:	007678b3          	and	a7,a2,t2
    72f8:	00175593          	srli	a1,a4,0x1
    72fc:	00b8c833          	xor	a6,a7,a1
    7300:	01081e13          	slli	t3,a6,0x10
    7304:	010e5e93          	srli	t4,t3,0x10
    7308:	00555313          	srli	t1,a0,0x5
    730c:	01d34333          	xor	t1,t1,t4
    7310:	00137f13          	andi	t5,t1,1
    7314:	41e00fb3          	neg	t6,t5
    7318:	007ff733          	and	a4,t6,t2
    731c:	001ed693          	srli	a3,t4,0x1
    7320:	00d742b3          	xor	t0,a4,a3
    7324:	01029613          	slli	a2,t0,0x10
    7328:	01065893          	srli	a7,a2,0x10
    732c:	00655793          	srli	a5,a0,0x6
    7330:	0117c7b3          	xor	a5,a5,a7
    7334:	0017f593          	andi	a1,a5,1
    7338:	40b00833          	neg	a6,a1
    733c:	00787e33          	and	t3,a6,t2
    7340:	0018de93          	srli	t4,a7,0x1
    7344:	01de4333          	xor	t1,t3,t4
    7348:	01031f13          	slli	t5,t1,0x10
    734c:	010f5f93          	srli	t6,t5,0x10
    7350:	00755513          	srli	a0,a0,0x7
    7354:	01f54533          	xor	a0,a0,t6
    7358:	00157713          	andi	a4,a0,1
    735c:	40e006b3          	neg	a3,a4
    7360:	0076f3b3          	and	t2,a3,t2
    7364:	001fd293          	srli	t0,t6,0x1
    7368:	0053c633          	xor	a2,t2,t0
    736c:	01061893          	slli	a7,a2,0x10
    7370:	0108d513          	srli	a0,a7,0x10
    7374:	00008067          	ret
    7378:	0ff57313          	zext.b	t1,a0
    737c:	00b346b3          	xor	a3,t1,a1
    7380:	0016f293          	andi	t0,a3,1
    7384:	ffffa737          	lui	a4,0xffffa
    7388:	00170f13          	addi	t5,a4,1 # 0xffffa001
    738c:	405003b3          	neg	t2,t0
    7390:	01e3f633          	and	a2,t2,t5
    7394:	0015d593          	srli	a1,a1,0x1
    7398:	00b647b3          	xor	a5,a2,a1
    739c:	01079813          	slli	a6,a5,0x10
    73a0:	01085893          	srli	a7,a6,0x10
    73a4:	00135e13          	srli	t3,t1,0x1
    73a8:	011e4fb3          	xor	t6,t3,a7
    73ac:	001ff693          	andi	a3,t6,1
    73b0:	40d002b3          	neg	t0,a3
    73b4:	01e2f733          	and	a4,t0,t5
    73b8:	0018d393          	srli	t2,a7,0x1
    73bc:	007745b3          	xor	a1,a4,t2
    73c0:	01059613          	slli	a2,a1,0x10
    73c4:	01065793          	srli	a5,a2,0x10
    73c8:	00235e93          	srli	t4,t1,0x2
    73cc:	00fec833          	xor	a6,t4,a5
    73d0:	00187e93          	andi	t4,a6,1
    73d4:	41d00fb3          	neg	t6,t4
    73d8:	01eff6b3          	and	a3,t6,t5
    73dc:	0017d293          	srli	t0,a5,0x1
    73e0:	0056c733          	xor	a4,a3,t0
    73e4:	01071393          	slli	t2,a4,0x10
    73e8:	0103d613          	srli	a2,t2,0x10
    73ec:	00335893          	srli	a7,t1,0x3
    73f0:	00c8c5b3          	xor	a1,a7,a2
    73f4:	0015f893          	andi	a7,a1,1
    73f8:	41100833          	neg	a6,a7
    73fc:	01e87eb3          	and	t4,a6,t5
    7400:	00165693          	srli	a3,a2,0x1
    7404:	00dec2b3          	xor	t0,t4,a3
    7408:	01029713          	slli	a4,t0,0x10
    740c:	01075393          	srli	t2,a4,0x10
    7410:	00435e13          	srli	t3,t1,0x4
    7414:	007e4e33          	xor	t3,t3,t2
    7418:	001e7613          	andi	a2,t3,1
    741c:	40c005b3          	neg	a1,a2
    7420:	01e5f8b3          	and	a7,a1,t5
    7424:	0013d813          	srli	a6,t2,0x1
    7428:	0108ceb3          	xor	t4,a7,a6
    742c:	010e9693          	slli	a3,t4,0x10
    7430:	0106d293          	srli	t0,a3,0x10
    7434:	00535f93          	srli	t6,t1,0x5
    7438:	005fcfb3          	xor	t6,t6,t0
    743c:	001ffe13          	andi	t3,t6,1
    7440:	41c00633          	neg	a2,t3
    7444:	01e675b3          	and	a1,a2,t5
    7448:	0012d893          	srli	a7,t0,0x1
    744c:	0115c833          	xor	a6,a1,a7
    7450:	01081e93          	slli	t4,a6,0x10
    7454:	010ed693          	srli	a3,t4,0x10
    7458:	00635793          	srli	a5,t1,0x6
    745c:	00d7c7b3          	xor	a5,a5,a3
    7460:	0017fe13          	andi	t3,a5,1
    7464:	41c00633          	neg	a2,t3
    7468:	01e675b3          	and	a1,a2,t5
    746c:	0016d893          	srli	a7,a3,0x1
    7470:	0115c833          	xor	a6,a1,a7
    7474:	01081e93          	slli	t4,a6,0x10
    7478:	010ed793          	srli	a5,t4,0x10
    747c:	00735313          	srli	t1,t1,0x7
    7480:	00f34333          	xor	t1,t1,a5
    7484:	00137613          	andi	a2,t1,1
    7488:	40c005b3          	neg	a1,a2
    748c:	01e5f8b3          	and	a7,a1,t5
    7490:	0017d813          	srli	a6,a5,0x1
    7494:	0108ceb3          	xor	t4,a7,a6
    7498:	010e9793          	slli	a5,t4,0x10
    749c:	00855513          	srli	a0,a0,0x8
    74a0:	0107d313          	srli	t1,a5,0x10
    74a4:	00155713          	srli	a4,a0,0x1
    74a8:	00255393          	srli	t2,a0,0x2
    74ac:	00355293          	srli	t0,a0,0x3
    74b0:	00455f93          	srli	t6,a0,0x4
    74b4:	00555e13          	srli	t3,a0,0x5
    74b8:	00655693          	srli	a3,a0,0x6
    74bc:	00755593          	srli	a1,a0,0x7
    74c0:	00654533          	xor	a0,a0,t1
    74c4:	00157613          	andi	a2,a0,1
    74c8:	40c008b3          	neg	a7,a2
    74cc:	01e8f833          	and	a6,a7,t5
    74d0:	00135e93          	srli	t4,t1,0x1
    74d4:	01d847b3          	xor	a5,a6,t4
    74d8:	01079313          	slli	t1,a5,0x10
    74dc:	01035613          	srli	a2,t1,0x10
    74e0:	00c74733          	xor	a4,a4,a2
    74e4:	00177513          	andi	a0,a4,1
    74e8:	40a008b3          	neg	a7,a0
    74ec:	01e8f833          	and	a6,a7,t5
    74f0:	00165e93          	srli	t4,a2,0x1
    74f4:	01d847b3          	xor	a5,a6,t4
    74f8:	01079313          	slli	t1,a5,0x10
    74fc:	01035613          	srli	a2,t1,0x10
    7500:	00c3c3b3          	xor	t2,t2,a2
    7504:	0013f713          	andi	a4,t2,1
    7508:	40e00533          	neg	a0,a4
    750c:	01e578b3          	and	a7,a0,t5
    7510:	00165813          	srli	a6,a2,0x1
    7514:	0108ceb3          	xor	t4,a7,a6
    7518:	010e9793          	slli	a5,t4,0x10
    751c:	0107d313          	srli	t1,a5,0x10
    7520:	0062c2b3          	xor	t0,t0,t1
    7524:	0012f613          	andi	a2,t0,1
    7528:	40c003b3          	neg	t2,a2
    752c:	01e3f733          	and	a4,t2,t5
    7530:	00135513          	srli	a0,t1,0x1
    7534:	00a748b3          	xor	a7,a4,a0
    7538:	01089813          	slli	a6,a7,0x10
    753c:	01085e93          	srli	t4,a6,0x10
    7540:	01dfcfb3          	xor	t6,t6,t4
    7544:	001ff793          	andi	a5,t6,1
    7548:	40f00333          	neg	t1,a5
    754c:	01e372b3          	and	t0,t1,t5
    7550:	001ed613          	srli	a2,t4,0x1
    7554:	00c2c3b3          	xor	t2,t0,a2
    7558:	01039713          	slli	a4,t2,0x10
    755c:	01075513          	srli	a0,a4,0x10
    7560:	00ae4e33          	xor	t3,t3,a0
    7564:	001e7893          	andi	a7,t3,1
    7568:	41100833          	neg	a6,a7
    756c:	01e87eb3          	and	t4,a6,t5
    7570:	00155f93          	srli	t6,a0,0x1
    7574:	01fec7b3          	xor	a5,t4,t6
    7578:	01079313          	slli	t1,a5,0x10
    757c:	01035293          	srli	t0,t1,0x10
    7580:	0056c6b3          	xor	a3,a3,t0
    7584:	0016f613          	andi	a2,a3,1
    7588:	40c003b3          	neg	t2,a2
    758c:	01e3f733          	and	a4,t2,t5
    7590:	0012d513          	srli	a0,t0,0x1
    7594:	00a74e33          	xor	t3,a4,a0
    7598:	010e1893          	slli	a7,t3,0x10
    759c:	0108d813          	srli	a6,a7,0x10
    75a0:	0105c5b3          	xor	a1,a1,a6
    75a4:	0015fe93          	andi	t4,a1,1
    75a8:	41d00fb3          	neg	t6,t4
    75ac:	01efff33          	and	t5,t6,t5
    75b0:	00185793          	srli	a5,a6,0x1
    75b4:	00ff4333          	xor	t1,t5,a5
    75b8:	01031293          	slli	t0,t1,0x10
    75bc:	0102d513          	srli	a0,t0,0x10
    75c0:	00008067          	ret
    75c4:	0ff57f13          	zext.b	t5,a0
    75c8:	00bf4633          	xor	a2,t5,a1
    75cc:	00167293          	andi	t0,a2,1
    75d0:	ffffa7b7          	lui	a5,0xffffa
    75d4:	00178793          	addi	a5,a5,1 # 0xffffa001
    75d8:	40500333          	neg	t1,t0
    75dc:	ff010113          	addi	sp,sp,-16
    75e0:	00f373b3          	and	t2,t1,a5
    75e4:	0015d593          	srli	a1,a1,0x1
    75e8:	00812623          	sw	s0,12(sp)
    75ec:	00b3c433          	xor	s0,t2,a1
    75f0:	01041693          	slli	a3,s0,0x10
    75f4:	0106d813          	srli	a6,a3,0x10
    75f8:	001f5893          	srli	a7,t5,0x1
    75fc:	0108ce33          	xor	t3,a7,a6
    7600:	001e7e93          	andi	t4,t3,1
    7604:	41d00fb3          	neg	t6,t4
    7608:	00fff2b3          	and	t0,t6,a5
    760c:	00185613          	srli	a2,a6,0x1
    7610:	00c2c333          	xor	t1,t0,a2
    7614:	01031593          	slli	a1,t1,0x10
    7618:	0105d393          	srli	t2,a1,0x10
    761c:	002f5713          	srli	a4,t5,0x2
    7620:	007746b3          	xor	a3,a4,t2
    7624:	0016f893          	andi	a7,a3,1
    7628:	41100733          	neg	a4,a7
    762c:	00f77e33          	and	t3,a4,a5
    7630:	0013de93          	srli	t4,t2,0x1
    7634:	01de4fb3          	xor	t6,t3,t4
    7638:	010f9293          	slli	t0,t6,0x10
    763c:	0102d313          	srli	t1,t0,0x10
    7640:	003f5413          	srli	s0,t5,0x3
    7644:	006445b3          	xor	a1,s0,t1
    7648:	0015f413          	andi	s0,a1,1
    764c:	408006b3          	neg	a3,s0
    7650:	00f6f8b3          	and	a7,a3,a5
    7654:	00135713          	srli	a4,t1,0x1
    7658:	00e8ce33          	xor	t3,a7,a4
    765c:	010e1e93          	slli	t4,t3,0x10
    7660:	010edf93          	srli	t6,t4,0x10
    7664:	004f5813          	srli	a6,t5,0x4
    7668:	01f84833          	xor	a6,a6,t6
    766c:	00187593          	andi	a1,a6,1
    7670:	40b00433          	neg	s0,a1
    7674:	00f476b3          	and	a3,s0,a5
    7678:	001fd893          	srli	a7,t6,0x1
    767c:	0116c733          	xor	a4,a3,a7
    7680:	01071e13          	slli	t3,a4,0x10
    7684:	010e5e93          	srli	t4,t3,0x10
    7688:	01051293          	slli	t0,a0,0x10
    768c:	005f5613          	srli	a2,t5,0x5
    7690:	0102d313          	srli	t1,t0,0x10
    7694:	01d64633          	xor	a2,a2,t4
    7698:	00835f93          	srli	t6,t1,0x8
    769c:	00167313          	andi	t1,a2,1
    76a0:	40600833          	neg	a6,t1
    76a4:	00f875b3          	and	a1,a6,a5
    76a8:	001ed413          	srli	s0,t4,0x1
    76ac:	0085c6b3          	xor	a3,a1,s0
    76b0:	01069893          	slli	a7,a3,0x10
    76b4:	0108d713          	srli	a4,a7,0x10
    76b8:	006f5393          	srli	t2,t5,0x6
    76bc:	00e3c3b3          	xor	t2,t2,a4
    76c0:	0013f613          	andi	a2,t2,1
    76c4:	40c00333          	neg	t1,a2
    76c8:	00f37833          	and	a6,t1,a5
    76cc:	00175593          	srli	a1,a4,0x1
    76d0:	00b84433          	xor	s0,a6,a1
    76d4:	01041693          	slli	a3,s0,0x10
    76d8:	0106d713          	srli	a4,a3,0x10
    76dc:	007f5f13          	srli	t5,t5,0x7
    76e0:	00ef4f33          	xor	t5,t5,a4
    76e4:	001f7393          	andi	t2,t5,1
    76e8:	40700633          	neg	a2,t2
    76ec:	00f67833          	and	a6,a2,a5
    76f0:	00175593          	srli	a1,a4,0x1
    76f4:	00b84433          	xor	s0,a6,a1
    76f8:	01041693          	slli	a3,s0,0x10
    76fc:	0106d713          	srli	a4,a3,0x10
    7700:	001fd293          	srli	t0,t6,0x1
    7704:	002fde93          	srli	t4,t6,0x2
    7708:	003fde13          	srli	t3,t6,0x3
    770c:	004fd313          	srli	t1,t6,0x4
    7710:	005fd893          	srli	a7,t6,0x5
    7714:	006fd813          	srli	a6,t6,0x6
    7718:	007fd613          	srli	a2,t6,0x7
    771c:	00efcfb3          	xor	t6,t6,a4
    7720:	001fff13          	andi	t5,t6,1
    7724:	41e003b3          	neg	t2,t5
    7728:	00f3f5b3          	and	a1,t2,a5
    772c:	00175413          	srli	s0,a4,0x1
    7730:	0085c6b3          	xor	a3,a1,s0
    7734:	01069713          	slli	a4,a3,0x10
    7738:	01075f93          	srli	t6,a4,0x10
    773c:	01f2c2b3          	xor	t0,t0,t6
    7740:	0012f393          	andi	t2,t0,1
    7744:	407005b3          	neg	a1,t2
    7748:	00f5f433          	and	s0,a1,a5
    774c:	001fd693          	srli	a3,t6,0x1
    7750:	00d44fb3          	xor	t6,s0,a3
    7754:	01055f13          	srli	t5,a0,0x10
    7758:	0fff7713          	zext.b	a4,t5
    775c:	010f9f13          	slli	t5,t6,0x10
    7760:	010f5293          	srli	t0,t5,0x10
    7764:	005eceb3          	xor	t4,t4,t0
    7768:	001ef393          	andi	t2,t4,1
    776c:	407006b3          	neg	a3,t2
    7770:	00f6ffb3          	and	t6,a3,a5
    7774:	0012df13          	srli	t5,t0,0x1
    7778:	01efc2b3          	xor	t0,t6,t5
    777c:	01029e93          	slli	t4,t0,0x10
    7780:	010edf93          	srli	t6,t4,0x10
    7784:	01fe4e33          	xor	t3,t3,t6
    7788:	001e7693          	andi	a3,t3,1
    778c:	40d00f33          	neg	t5,a3
    7790:	00ff7e33          	and	t3,t5,a5
    7794:	001fde93          	srli	t4,t6,0x1
    7798:	01de4fb3          	xor	t6,t3,t4
    779c:	010f9693          	slli	a3,t6,0x10
    77a0:	0106de13          	srli	t3,a3,0x10
    77a4:	01c34333          	xor	t1,t1,t3
    77a8:	00137e93          	andi	t4,t1,1
    77ac:	41d006b3          	neg	a3,t4
    77b0:	00f6f333          	and	t1,a3,a5
    77b4:	001e5e13          	srli	t3,t3,0x1
    77b8:	01c34eb3          	xor	t4,t1,t3
    77bc:	010e9693          	slli	a3,t4,0x10
    77c0:	0106d313          	srli	t1,a3,0x10
    77c4:	0068c8b3          	xor	a7,a7,t1
    77c8:	0018fe13          	andi	t3,a7,1
    77cc:	41c006b3          	neg	a3,t3
    77d0:	00f6f8b3          	and	a7,a3,a5
    77d4:	00135313          	srli	t1,t1,0x1
    77d8:	0068ce33          	xor	t3,a7,t1
    77dc:	010e1693          	slli	a3,t3,0x10
    77e0:	0106d893          	srli	a7,a3,0x10
    77e4:	01184833          	xor	a6,a6,a7
    77e8:	00187693          	andi	a3,a6,1
    77ec:	40d00833          	neg	a6,a3
    77f0:	00f87833          	and	a6,a6,a5
    77f4:	0018d893          	srli	a7,a7,0x1
    77f8:	011846b3          	xor	a3,a6,a7
    77fc:	01069813          	slli	a6,a3,0x10
    7800:	01085813          	srli	a6,a6,0x10
    7804:	01064633          	xor	a2,a2,a6
    7808:	00167693          	andi	a3,a2,1
    780c:	40d00633          	neg	a2,a3
    7810:	00f676b3          	and	a3,a2,a5
    7814:	00185813          	srli	a6,a6,0x1
    7818:	0106c633          	xor	a2,a3,a6
    781c:	01061693          	slli	a3,a2,0x10
    7820:	0106d613          	srli	a2,a3,0x10
    7824:	00175413          	srli	s0,a4,0x1
    7828:	00275593          	srli	a1,a4,0x2
    782c:	00375393          	srli	t2,a4,0x3
    7830:	00475293          	srli	t0,a4,0x4
    7834:	00575f93          	srli	t6,a4,0x5
    7838:	00675f13          	srli	t5,a4,0x6
    783c:	00775e93          	srli	t4,a4,0x7
    7840:	00c74733          	xor	a4,a4,a2
    7844:	00177693          	andi	a3,a4,1
    7848:	40d00733          	neg	a4,a3
    784c:	00f77733          	and	a4,a4,a5
    7850:	00165613          	srli	a2,a2,0x1
    7854:	00c746b3          	xor	a3,a4,a2
    7858:	01069713          	slli	a4,a3,0x10
    785c:	01075693          	srli	a3,a4,0x10
    7860:	00d44433          	xor	s0,s0,a3
    7864:	00147713          	andi	a4,s0,1
    7868:	40e00433          	neg	s0,a4
    786c:	00f47433          	and	s0,s0,a5
    7870:	0016d693          	srli	a3,a3,0x1
    7874:	00d44733          	xor	a4,s0,a3
    7878:	01071413          	slli	s0,a4,0x10
    787c:	01045413          	srli	s0,s0,0x10
    7880:	0085c5b3          	xor	a1,a1,s0
    7884:	0015f713          	andi	a4,a1,1
    7888:	40e005b3          	neg	a1,a4
    788c:	00f5f733          	and	a4,a1,a5
    7890:	00145413          	srli	s0,s0,0x1
    7894:	008745b3          	xor	a1,a4,s0
    7898:	01059713          	slli	a4,a1,0x10
    789c:	01075413          	srli	s0,a4,0x10
    78a0:	0083c3b3          	xor	t2,t2,s0
    78a4:	0013f713          	andi	a4,t2,1
    78a8:	40e003b3          	neg	t2,a4
    78ac:	00f3f3b3          	and	t2,t2,a5
    78b0:	00145413          	srli	s0,s0,0x1
    78b4:	0083c733          	xor	a4,t2,s0
    78b8:	01071393          	slli	t2,a4,0x10
    78bc:	0103d413          	srli	s0,t2,0x10
    78c0:	0082c2b3          	xor	t0,t0,s0
    78c4:	0012f713          	andi	a4,t0,1
    78c8:	40e003b3          	neg	t2,a4
    78cc:	00f3f2b3          	and	t0,t2,a5
    78d0:	00145413          	srli	s0,s0,0x1
    78d4:	0082c733          	xor	a4,t0,s0
    78d8:	01071393          	slli	t2,a4,0x10
    78dc:	0103d293          	srli	t0,t2,0x10
    78e0:	005fcfb3          	xor	t6,t6,t0
    78e4:	001ff413          	andi	s0,t6,1
    78e8:	40800733          	neg	a4,s0
    78ec:	00f773b3          	and	t2,a4,a5
    78f0:	0012d293          	srli	t0,t0,0x1
    78f4:	0053cfb3          	xor	t6,t2,t0
    78f8:	010f9413          	slli	s0,t6,0x10
    78fc:	01045393          	srli	t2,s0,0x10
    7900:	007f4f33          	xor	t5,t5,t2
    7904:	001f7713          	andi	a4,t5,1
    7908:	40e002b3          	neg	t0,a4
    790c:	00f2f433          	and	s0,t0,a5
    7910:	0013df93          	srli	t6,t2,0x1
    7914:	01f443b3          	xor	t2,s0,t6
    7918:	01039f13          	slli	t5,t2,0x10
    791c:	010f5713          	srli	a4,t5,0x10
    7920:	00eeceb3          	xor	t4,t4,a4
    7924:	001ef293          	andi	t0,t4,1
    7928:	40500433          	neg	s0,t0
    792c:	00f47fb3          	and	t6,s0,a5
    7930:	00175393          	srli	t2,a4,0x1
    7934:	007fcf33          	xor	t5,t6,t2
    7938:	010f1713          	slli	a4,t5,0x10
    793c:	01855513          	srli	a0,a0,0x18
    7940:	01075e93          	srli	t4,a4,0x10
    7944:	00155e13          	srli	t3,a0,0x1
    7948:	00255313          	srli	t1,a0,0x2
    794c:	00355893          	srli	a7,a0,0x3
    7950:	00455813          	srli	a6,a0,0x4
    7954:	00555613          	srli	a2,a0,0x5
    7958:	00655693          	srli	a3,a0,0x6
    795c:	00755593          	srli	a1,a0,0x7
    7960:	01d54533          	xor	a0,a0,t4
    7964:	00157293          	andi	t0,a0,1
    7968:	40500433          	neg	s0,t0
    796c:	00f47fb3          	and	t6,s0,a5
    7970:	001ed393          	srli	t2,t4,0x1
    7974:	007fcf33          	xor	t5,t6,t2
    7978:	010f1713          	slli	a4,t5,0x10
    797c:	01075e93          	srli	t4,a4,0x10
    7980:	01de4e33          	xor	t3,t3,t4
    7984:	001e7513          	andi	a0,t3,1
    7988:	40a002b3          	neg	t0,a0
    798c:	00f2f433          	and	s0,t0,a5
    7990:	001edf93          	srli	t6,t4,0x1
    7994:	01f443b3          	xor	t2,s0,t6
    7998:	01039f13          	slli	t5,t2,0x10
    799c:	010f5e93          	srli	t4,t5,0x10
    79a0:	01d34333          	xor	t1,t1,t4
    79a4:	00137713          	andi	a4,t1,1
    79a8:	40e00e33          	neg	t3,a4
    79ac:	00fe72b3          	and	t0,t3,a5
    79b0:	001ed513          	srli	a0,t4,0x1
    79b4:	00a2c433          	xor	s0,t0,a0
    79b8:	01041f93          	slli	t6,s0,0x10
    79bc:	010fd393          	srli	t2,t6,0x10
    79c0:	0078c8b3          	xor	a7,a7,t2
    79c4:	0018ff13          	andi	t5,a7,1
    79c8:	41e00eb3          	neg	t4,t5
    79cc:	00fef333          	and	t1,t4,a5
    79d0:	0013d713          	srli	a4,t2,0x1
    79d4:	00e34e33          	xor	t3,t1,a4
    79d8:	010e1293          	slli	t0,t3,0x10
    79dc:	0102d513          	srli	a0,t0,0x10
    79e0:	00a84833          	xor	a6,a6,a0
    79e4:	00187413          	andi	s0,a6,1
    79e8:	40800fb3          	neg	t6,s0
    79ec:	00fff3b3          	and	t2,t6,a5
    79f0:	00155893          	srli	a7,a0,0x1
    79f4:	0113cf33          	xor	t5,t2,a7
    79f8:	010f1e93          	slli	t4,t5,0x10
    79fc:	010ed313          	srli	t1,t4,0x10
    7a00:	00664633          	xor	a2,a2,t1
    7a04:	00167713          	andi	a4,a2,1
    7a08:	40e00e33          	neg	t3,a4
    7a0c:	00fe72b3          	and	t0,t3,a5
    7a10:	00135513          	srli	a0,t1,0x1
    7a14:	00a2c833          	xor	a6,t0,a0
    7a18:	01081413          	slli	s0,a6,0x10
    7a1c:	01045f93          	srli	t6,s0,0x10
    7a20:	01f6c6b3          	xor	a3,a3,t6
    7a24:	0016f393          	andi	t2,a3,1
    7a28:	407008b3          	neg	a7,t2
    7a2c:	00f8ff33          	and	t5,a7,a5
    7a30:	001fde93          	srli	t4,t6,0x1
    7a34:	01df4333          	xor	t1,t5,t4
    7a38:	01031613          	slli	a2,t1,0x10
    7a3c:	01065713          	srli	a4,a2,0x10
    7a40:	00e5c5b3          	xor	a1,a1,a4
    7a44:	0015fe13          	andi	t3,a1,1
    7a48:	41c002b3          	neg	t0,t3
    7a4c:	00175513          	srli	a0,a4,0x1
    7a50:	00f2f7b3          	and	a5,t0,a5
    7a54:	00a7c833          	xor	a6,a5,a0
    7a58:	01081413          	slli	s0,a6,0x10
    7a5c:	01045513          	srli	a0,s0,0x10
    7a60:	00c12403          	lw	s0,12(sp)
    7a64:	01010113          	addi	sp,sp,16
    7a68:	00008067          	ret
    7a6c:	0ff57313          	zext.b	t1,a0
    7a70:	00b346b3          	xor	a3,t1,a1
    7a74:	0016f293          	andi	t0,a3,1
    7a78:	ffffa737          	lui	a4,0xffffa
    7a7c:	00170f13          	addi	t5,a4,1 # 0xffffa001
    7a80:	405003b3          	neg	t2,t0
    7a84:	01e3f633          	and	a2,t2,t5
    7a88:	0015d593          	srli	a1,a1,0x1
    7a8c:	00b647b3          	xor	a5,a2,a1
    7a90:	01079813          	slli	a6,a5,0x10
    7a94:	01085893          	srli	a7,a6,0x10
    7a98:	00135e13          	srli	t3,t1,0x1
    7a9c:	011e4fb3          	xor	t6,t3,a7
    7aa0:	001ff693          	andi	a3,t6,1
    7aa4:	40d002b3          	neg	t0,a3
    7aa8:	01e2f733          	and	a4,t0,t5
    7aac:	0018d393          	srli	t2,a7,0x1
    7ab0:	007745b3          	xor	a1,a4,t2
    7ab4:	01059613          	slli	a2,a1,0x10
    7ab8:	01065793          	srli	a5,a2,0x10
    7abc:	00235e93          	srli	t4,t1,0x2
    7ac0:	00fec833          	xor	a6,t4,a5
    7ac4:	00187e93          	andi	t4,a6,1
    7ac8:	41d00fb3          	neg	t6,t4
    7acc:	01eff6b3          	and	a3,t6,t5
    7ad0:	0017d293          	srli	t0,a5,0x1
    7ad4:	0056c733          	xor	a4,a3,t0
    7ad8:	01071393          	slli	t2,a4,0x10
    7adc:	0103d613          	srli	a2,t2,0x10
    7ae0:	00335893          	srli	a7,t1,0x3
    7ae4:	00c8c5b3          	xor	a1,a7,a2
    7ae8:	0015f893          	andi	a7,a1,1
    7aec:	41100833          	neg	a6,a7
    7af0:	01e87eb3          	and	t4,a6,t5
    7af4:	00165693          	srli	a3,a2,0x1
    7af8:	00dec2b3          	xor	t0,t4,a3
    7afc:	01029713          	slli	a4,t0,0x10
    7b00:	01075393          	srli	t2,a4,0x10
    7b04:	00435e13          	srli	t3,t1,0x4
    7b08:	007e4e33          	xor	t3,t3,t2
    7b0c:	001e7613          	andi	a2,t3,1
    7b10:	40c005b3          	neg	a1,a2
    7b14:	01e5f833          	and	a6,a1,t5
    7b18:	0013de93          	srli	t4,t2,0x1
    7b1c:	01d846b3          	xor	a3,a6,t4
    7b20:	01069293          	slli	t0,a3,0x10
    7b24:	0102d713          	srli	a4,t0,0x10
    7b28:	00535f93          	srli	t6,t1,0x5
    7b2c:	01051513          	slli	a0,a0,0x10
    7b30:	01055893          	srli	a7,a0,0x10
    7b34:	00efcfb3          	xor	t6,t6,a4
    7b38:	0088d393          	srli	t2,a7,0x8
    7b3c:	001ff893          	andi	a7,t6,1
    7b40:	41100e33          	neg	t3,a7
    7b44:	01ee75b3          	and	a1,t3,t5
    7b48:	00175613          	srli	a2,a4,0x1
    7b4c:	00c5c833          	xor	a6,a1,a2
    7b50:	01081e93          	slli	t4,a6,0x10
    7b54:	010ed693          	srli	a3,t4,0x10
    7b58:	00635793          	srli	a5,t1,0x6
    7b5c:	00d7c7b3          	xor	a5,a5,a3
    7b60:	0017ff93          	andi	t6,a5,1
    7b64:	41f008b3          	neg	a7,t6
    7b68:	01e8fe33          	and	t3,a7,t5
    7b6c:	0016d593          	srli	a1,a3,0x1
    7b70:	00be4633          	xor	a2,t3,a1
    7b74:	01061813          	slli	a6,a2,0x10
    7b78:	01085e93          	srli	t4,a6,0x10
    7b7c:	00735313          	srli	t1,t1,0x7
    7b80:	01d34333          	xor	t1,t1,t4
    7b84:	00137693          	andi	a3,t1,1
    7b88:	40d007b3          	neg	a5,a3
    7b8c:	01e7fe33          	and	t3,a5,t5
    7b90:	001ed593          	srli	a1,t4,0x1
    7b94:	00be4633          	xor	a2,t3,a1
    7b98:	01061813          	slli	a6,a2,0x10
    7b9c:	01085e93          	srli	t4,a6,0x10
    7ba0:	0013d513          	srli	a0,t2,0x1
    7ba4:	0023d293          	srli	t0,t2,0x2
    7ba8:	0033d713          	srli	a4,t2,0x3
    7bac:	0043df93          	srli	t6,t2,0x4
    7bb0:	0053d893          	srli	a7,t2,0x5
    7bb4:	0063d693          	srli	a3,t2,0x6
    7bb8:	0073de13          	srli	t3,t2,0x7
    7bbc:	01d3c3b3          	xor	t2,t2,t4
    7bc0:	0013f313          	andi	t1,t2,1
    7bc4:	406007b3          	neg	a5,t1
    7bc8:	01e7f5b3          	and	a1,a5,t5
    7bcc:	001ed613          	srli	a2,t4,0x1
    7bd0:	00c5c833          	xor	a6,a1,a2
    7bd4:	01081e93          	slli	t4,a6,0x10
    7bd8:	010ed393          	srli	t2,t4,0x10
    7bdc:	00754533          	xor	a0,a0,t2
    7be0:	00157313          	andi	t1,a0,1
    7be4:	406007b3          	neg	a5,t1
    7be8:	01e7f5b3          	and	a1,a5,t5
    7bec:	0013d613          	srli	a2,t2,0x1
    7bf0:	00c5c833          	xor	a6,a1,a2
    7bf4:	01081e93          	slli	t4,a6,0x10
    7bf8:	010ed393          	srli	t2,t4,0x10
    7bfc:	0072c2b3          	xor	t0,t0,t2
    7c00:	0012f513          	andi	a0,t0,1
    7c04:	40a00333          	neg	t1,a0
    7c08:	01e377b3          	and	a5,t1,t5
    7c0c:	0013d593          	srli	a1,t2,0x1
    7c10:	00b7c633          	xor	a2,a5,a1
    7c14:	01061813          	slli	a6,a2,0x10
    7c18:	01085e93          	srli	t4,a6,0x10
    7c1c:	01d74733          	xor	a4,a4,t4
    7c20:	00177393          	andi	t2,a4,1
    7c24:	407002b3          	neg	t0,t2
    7c28:	01e2f533          	and	a0,t0,t5
    7c2c:	001ed313          	srli	t1,t4,0x1
    7c30:	006547b3          	xor	a5,a0,t1
    7c34:	01079593          	slli	a1,a5,0x10
    7c38:	0105d613          	srli	a2,a1,0x10
    7c3c:	00cfcfb3          	xor	t6,t6,a2
    7c40:	001ff813          	andi	a6,t6,1
    7c44:	41000eb3          	neg	t4,a6
    7c48:	01eef733          	and	a4,t4,t5
    7c4c:	00165393          	srli	t2,a2,0x1
    7c50:	007742b3          	xor	t0,a4,t2
    7c54:	01029513          	slli	a0,t0,0x10
    7c58:	01055313          	srli	t1,a0,0x10
    7c5c:	0068c8b3          	xor	a7,a7,t1
    7c60:	0018f793          	andi	a5,a7,1
    7c64:	40f005b3          	neg	a1,a5
    7c68:	01e5f633          	and	a2,a1,t5
    7c6c:	00135f93          	srli	t6,t1,0x1
    7c70:	01f64833          	xor	a6,a2,t6
    7c74:	01081e93          	slli	t4,a6,0x10
    7c78:	010ed713          	srli	a4,t4,0x10
    7c7c:	00e6c6b3          	xor	a3,a3,a4
    7c80:	0016f393          	andi	t2,a3,1
    7c84:	407002b3          	neg	t0,t2
    7c88:	01e2f533          	and	a0,t0,t5
    7c8c:	00175313          	srli	t1,a4,0x1
    7c90:	006548b3          	xor	a7,a0,t1
    7c94:	01089793          	slli	a5,a7,0x10
    7c98:	0107d593          	srli	a1,a5,0x10
    7c9c:	00be4e33          	xor	t3,t3,a1
    7ca0:	001e7613          	andi	a2,t3,1
    7ca4:	40c00fb3          	neg	t6,a2
    7ca8:	01efff33          	and	t5,t6,t5
    7cac:	0015d813          	srli	a6,a1,0x1
    7cb0:	010f4eb3          	xor	t4,t5,a6
    7cb4:	010e9713          	slli	a4,t4,0x10
    7cb8:	01075513          	srli	a0,a4,0x10
    7cbc:	00008067          	ret

Disassembly of section .text.startup:

00007cc0 <.text.startup>:
    7cc0:	f8010113          	addi	sp,sp,-128
    7cc4:	00810613          	addi	a2,sp,8
    7cc8:	00410593          	addi	a1,sp,4
    7ccc:	04e10513          	addi	a0,sp,78
    7cd0:	06112e23          	sw	ra,124(sp)
    7cd4:	06812c23          	sw	s0,120(sp)
    7cd8:	06912a23          	sw	s1,116(sp)
    7cdc:	07212823          	sw	s2,112(sp)
    7ce0:	07312623          	sw	s3,108(sp)
    7ce4:	07412423          	sw	s4,104(sp)
    7ce8:	05812c23          	sw	s8,88(sp)
    7cec:	00012223          	sw	zero,4(sp)
    7cf0:	cf8f80ef          	jal	0x1e8
    7cf4:	00100513          	li	a0,1
    7cf8:	9bdfb0ef          	jal	0x36b4
    7cfc:	00050793          	mv	a5,a0
    7d00:	00200513          	li	a0,2
    7d04:	00f11623          	sh	a5,12(sp)
    7d08:	9adfb0ef          	jal	0x36b4
    7d0c:	00050293          	mv	t0,a0
    7d10:	00300513          	li	a0,3
    7d14:	00511723          	sh	t0,14(sp)
    7d18:	99dfb0ef          	jal	0x36b4
    7d1c:	00050313          	mv	t1,a0
    7d20:	00400513          	li	a0,4
    7d24:	00611823          	sh	t1,16(sp)
    7d28:	98dfb0ef          	jal	0x36b4
    7d2c:	00050393          	mv	t2,a0
    7d30:	00500513          	li	a0,5
    7d34:	02712423          	sw	t2,40(sp)
    7d38:	97dfb0ef          	jal	0x36b4
    7d3c:	00051463          	bnez	a0,0x7d44
    7d40:	00700513          	li	a0,7
    7d44:	00c12403          	lw	s0,12(sp)
    7d48:	02a12623          	sw	a0,44(sp)
    7d4c:	18041663          	bnez	s0,0x7ed8
    7d50:	01011803          	lh	a6,16(sp)
    7d54:	22080063          	beqz	a6,0x7f74
    7d58:	00010937          	lui	s2,0x10
    7d5c:	01890c13          	addi	s8,s2,24 # 0x10018
    7d60:	00157993          	andi	s3,a0,1
    7d64:	04011623          	sh	zero,76(sp)
    7d68:	01812a23          	sw	s8,20(sp)
    7d6c:	00257e13          	andi	t3,a0,2
    7d70:	00098a13          	mv	s4,s3
    7d74:	180e1663          	bnez	t3,0x7f00
    7d78:	00457513          	andi	a0,a0,4
    7d7c:	1e050263          	beqz	a0,0x7f60
    7d80:	00198593          	addi	a1,s3,1
    7d84:	7d000513          	li	a0,2000
    7d88:	b48fe0ef          	jal	0x60d0
    7d8c:	02a12223          	sw	a0,36(sp)
    7d90:	00050493          	mv	s1,a0
    7d94:	5c099863          	bnez	s3,0x8364
    7d98:	00050593          	mv	a1,a0
    7d9c:	00098513          	mv	a0,s3
    7da0:	b04fe0ef          	jal	0x60a4
    7da4:	00ac07b3          	add	a5,s8,a0
    7da8:	02f12023          	sw	a5,32(sp)
    7dac:	02c12583          	lw	a1,44(sp)
    7db0:	0015f293          	andi	t0,a1,1
    7db4:	00028e63          	beqz	t0,0x7dd0
    7db8:	01812583          	lw	a1,24(sp)
    7dbc:	00c11603          	lh	a2,12(sp)
    7dc0:	00048513          	mv	a0,s1
    7dc4:	a69f90ef          	jal	0x182c
    7dc8:	02c12583          	lw	a1,44(sp)
    7dcc:	02a12823          	sw	a0,48(sp)
    7dd0:	0025f313          	andi	t1,a1,2
    7dd4:	1a031663          	bnez	t1,0x7f80
    7dd8:	0045f693          	andi	a3,a1,4
    7ddc:	00068a63          	beqz	a3,0x7df0
    7de0:	02012603          	lw	a2,32(sp)
    7de4:	00c11583          	lh	a1,12(sp)
    7de8:	02412503          	lw	a0,36(sp)
    7dec:	935fb0ef          	jal	0x3720
    7df0:	02812803          	lw	a6,40(sp)
    7df4:	04081e63          	bnez	a6,0x7e50
    7df8:	00100f13          	li	t5,1
    7dfc:	0080006f          	j	0x7e04
    7e00:	02812f03          	lw	t5,40(sp)
    7e04:	002f1893          	slli	a7,t5,0x2
    7e08:	01e88933          	add	s2,a7,t5
    7e0c:	00191c13          	slli	s8,s2,0x1
    7e10:	03812423          	sw	s8,40(sp)
    7e14:	aacf80ef          	jal	0xc0
    7e18:	00c10513          	addi	a0,sp,12
    7e1c:	e50fb0ef          	jal	0x346c
    7e20:	ad8f80ef          	jal	0xf8
    7e24:	b00f80ef          	jal	0x124
    7e28:	b14f80ef          	jal	0x13c
    7e2c:	fc050ae3          	beqz	a0,0x7e00
    7e30:	00050593          	mv	a1,a0
    7e34:	00a00513          	li	a0,10
    7e38:	a98fe0ef          	jal	0x60d0
    7e3c:	00050e13          	mv	t3,a0
    7e40:	02812503          	lw	a0,40(sp)
    7e44:	001e0593          	addi	a1,t3,1
    7e48:	a5cfe0ef          	jal	0x60a4
    7e4c:	02a12423          	sw	a0,40(sp)
    7e50:	a70f80ef          	jal	0xc0
    7e54:	00c10513          	addi	a0,sp,12
    7e58:	e14fb0ef          	jal	0x346c
    7e5c:	a9cf80ef          	jal	0xf8
    7e60:	ac4f80ef          	jal	0x124
    7e64:	00050913          	mv	s2,a0
    7e68:	00c11503          	lh	a0,12(sp)
    7e6c:	00000593          	li	a1,0
    7e70:	00008a37          	lui	s4,0x8
    7e74:	bf9ff0ef          	jal	0x7a6c
    7e78:	00050593          	mv	a1,a0
    7e7c:	00e11503          	lh	a0,14(sp)
    7e80:	bedff0ef          	jal	0x7a6c
    7e84:	00050593          	mv	a1,a0
    7e88:	01011503          	lh	a0,16(sp)
    7e8c:	be1ff0ef          	jal	0x7a6c
    7e90:	00050593          	mv	a1,a0
    7e94:	02411503          	lh	a0,36(sp)
    7e98:	bd5ff0ef          	jal	0x7a6c
    7e9c:	00050993          	mv	s3,a0
    7ea0:	b05a0513          	addi	a0,s4,-1275 # 0x7b05
    7ea4:	58a98263          	beq	s3,a0,0x8428
    7ea8:	11356063          	bltu	a0,s3,0x7fa8
    7eac:	00002337          	lui	t1,0x2
    7eb0:	8f230393          	addi	t2,t1,-1806 # 0x18f2
    7eb4:	56798063          	beq	s3,t2,0x8414
    7eb8:	000055b7          	lui	a1,0x5
    7ebc:	eaf58693          	addi	a3,a1,-337 # 0x4eaf
    7ec0:	24d99063          	bne	s3,a3,0x8100
    7ec4:	00019837          	lui	a6,0x19
    7ec8:	bd480513          	addi	a0,a6,-1068 # 0x18bd4
    7ecc:	d44f80ef          	jal	0x410
    7ed0:	00200613          	li	a2,2
    7ed4:	0fc0006f          	j	0x7fd0
    7ed8:	00100713          	li	a4,1
    7edc:	e6e41ee3          	bne	s0,a4,0x7d58
    7ee0:	01011483          	lh	s1,16(sp)
    7ee4:	e6049ae3          	bnez	s1,0x7d58
    7ee8:	341535b7          	lui	a1,0x34153
    7eec:	41558613          	addi	a2,a1,1045 # 0x34153415
    7ef0:	06600693          	li	a3,102
    7ef4:	00c12623          	sw	a2,12(sp)
    7ef8:	00d11823          	sh	a3,16(sp)
    7efc:	e5dff06f          	j	0x7d58
    7f00:	00457413          	andi	s0,a0,4
    7f04:	00198993          	addi	s3,s3,1
    7f08:	02040c63          	beqz	s0,0x7f40
    7f0c:	002a0593          	addi	a1,s4,2
    7f10:	7d000513          	li	a0,2000
    7f14:	9bcfe0ef          	jal	0x60d0
    7f18:	02a12223          	sw	a0,36(sp)
    7f1c:	00050493          	mv	s1,a0
    7f20:	420a1c63          	bnez	s4,0x8358
    7f24:	00400413          	li	s0,4
    7f28:	41400eb3          	neg	t4,s4
    7f2c:	00aeff33          	and	t5,t4,a0
    7f30:	01ec0fb3          	add	t6,s8,t5
    7f34:	01f12e23          	sw	t6,28(sp)
    7f38:	e6040ae3          	beqz	s0,0x7dac
    7f3c:	e5dff06f          	j	0x7d98
    7f40:	00098593          	mv	a1,s3
    7f44:	7d000513          	li	a0,2000
    7f48:	988fe0ef          	jal	0x60d0
    7f4c:	02a12223          	sw	a0,36(sp)
    7f50:	00050493          	mv	s1,a0
    7f54:	fc0a0ae3          	beqz	s4,0x7f28
    7f58:	01812c23          	sw	s8,24(sp)
    7f5c:	fcdff06f          	j	0x7f28
    7f60:	7d000493          	li	s1,2000
    7f64:	02912223          	sw	s1,36(sp)
    7f68:	e40982e3          	beqz	s3,0x7dac
    7f6c:	01812c23          	sw	s8,24(sp)
    7f70:	e3dff06f          	j	0x7dac
    7f74:	06600893          	li	a7,102
    7f78:	01111823          	sh	a7,16(sp)
    7f7c:	dddff06f          	j	0x7d58
    7f80:	00e11383          	lh	t2,14(sp)
    7f84:	00c11703          	lh	a4,12(sp)
    7f88:	01c12583          	lw	a1,28(sp)
    7f8c:	02412503          	lw	a0,36(sp)
    7f90:	01039613          	slli	a2,t2,0x10
    7f94:	00e66633          	or	a2,a2,a4
    7f98:	03410693          	addi	a3,sp,52
    7f9c:	c55f90ef          	jal	0x1bf0
    7fa0:	02c12583          	lw	a1,44(sp)
    7fa4:	e35ff06f          	j	0x7dd8
    7fa8:	00009437          	lui	s0,0x9
    7fac:	a0240e93          	addi	t4,s0,-1534 # 0x8a02
    7fb0:	49d98663          	beq	s3,t4,0x843c
    7fb4:	0000ffb7          	lui	t6,0xf
    7fb8:	9f5f8793          	addi	a5,t6,-1547 # 0xe9f5
    7fbc:	14f99263          	bne	s3,a5,0x8100
    7fc0:	000192b7          	lui	t0,0x19
    7fc4:	c0828513          	addi	a0,t0,-1016 # 0x18c08
    7fc8:	c48f80ef          	jal	0x410
    7fcc:	00300613          	li	a2,3
    7fd0:	00010c37          	lui	s8,0x10
    7fd4:	00cc2883          	lw	a7,12(s8) # 0x1000c
    7fd8:	46088c63          	beqz	a7,0x8450
    7fdc:	05912a23          	sw	s9,84(sp)
    7fe0:	00019cb7          	lui	s9,0x19
    7fe4:	07512223          	sw	s5,100(sp)
    7fe8:	07612023          	sw	s6,96(sp)
    7fec:	00161a93          	slli	s5,a2,0x1
    7ff0:	954c8b13          	addi	s6,s9,-1708 # 0x18954
    7ff4:	015b0cb3          	add	s9,s6,s5
    7ff8:	05712e23          	sw	s7,92(sp)
    7ffc:	05a12823          	sw	s10,80(sp)
    8000:	00000b93          	li	s7,0
    8004:	00000d13          	li	s10,0
    8008:	00019b37          	lui	s6,0x19
    800c:	00019ab7          	lui	s5,0x19
    8010:	00019a37          	lui	s4,0x19
    8014:	0340006f          	j	0x8048
    8018:	00240533          	add	a0,s0,sp
    801c:	04c55303          	lhu	t1,76(a0)
    8020:	001b8b93          	addi	s7,s7,1
    8024:	00cc2703          	lw	a4,12(s8)
    8028:	01a30d33          	add	s10,t1,s10
    802c:	010b9393          	slli	t2,s7,0x10
    8030:	010d1613          	slli	a2,s10,0x10
    8034:	010d1593          	slli	a1,s10,0x10
    8038:	0103db93          	srli	s7,t2,0x10
    803c:	01065493          	srli	s1,a2,0x10
    8040:	4105dd13          	srai	s10,a1,0x10
    8044:	34ebf663          	bgeu	s7,a4,0x8390
    8048:	004b9413          	slli	s0,s7,0x4
    804c:	01740e33          	add	t3,s0,s7
    8050:	002e1513          	slli	a0,t3,0x2
    8054:	05050e93          	addi	t4,a0,80
    8058:	002e84b3          	add	s1,t4,sp
    805c:	fdc4a783          	lw	a5,-36(s1)
    8060:	fe049e23          	sh	zero,-4(s1)
    8064:	0017ff13          	andi	t5,a5,1
    8068:	020f0663          	beqz	t5,0x8094
    806c:	ff64d603          	lhu	a2,-10(s1)
    8070:	000cd683          	lhu	a3,0(s9)
    8074:	02d60063          	beq	a2,a3,0x8094
    8078:	000b8593          	mv	a1,s7
    807c:	c64b0513          	addi	a0,s6,-924 # 0x18c64
    8080:	b90f80ef          	jal	0x410
    8084:	ffc4df83          	lhu	t6,-4(s1)
    8088:	fdc4a783          	lw	a5,-36(s1)
    808c:	001f8293          	addi	t0,t6,1
    8090:	fe549e23          	sh	t0,-4(s1)
    8094:	0027f313          	andi	t1,a5,2
    8098:	02030e63          	beqz	t1,0x80d4
    809c:	017403b3          	add	t2,s0,s7
    80a0:	00239713          	slli	a4,t2,0x2
    80a4:	05070613          	addi	a2,a4,80
    80a8:	002604b3          	add	s1,a2,sp
    80ac:	ff84d603          	lhu	a2,-8(s1)
    80b0:	00ccd683          	lhu	a3,12(s9)
    80b4:	02d60063          	beq	a2,a3,0x80d4
    80b8:	000b8593          	mv	a1,s7
    80bc:	c94a8513          	addi	a0,s5,-876 # 0x18c94
    80c0:	b50f80ef          	jal	0x410
    80c4:	ffc4d583          	lhu	a1,-4(s1)
    80c8:	fdc4a783          	lw	a5,-36(s1)
    80cc:	00158693          	addi	a3,a1,1
    80d0:	fed49e23          	sh	a3,-4(s1)
    80d4:	017408b3          	add	a7,s0,s7
    80d8:	0047f813          	andi	a6,a5,4
    80dc:	00289413          	slli	s0,a7,0x2
    80e0:	f2080ce3          	beqz	a6,0x8018
    80e4:	05040e93          	addi	t4,s0,80
    80e8:	002e84b3          	add	s1,t4,sp
    80ec:	ffa4d603          	lhu	a2,-6(s1)
    80f0:	018cd683          	lhu	a3,24(s9)
    80f4:	26d61c63          	bne	a2,a3,0x836c
    80f8:	ffc4d303          	lhu	t1,-4(s1)
    80fc:	f25ff06f          	j	0x8020
    8100:	00010c37          	lui	s8,0x10
    8104:	fffc0493          	addi	s1,s8,-1 # 0xffff
    8108:	00010c37          	lui	s8,0x10
    810c:	e0cfb0ef          	jal	0x3718
    8110:	02412583          	lw	a1,36(sp)
    8114:	009507b3          	add	a5,a0,s1
    8118:	00019a37          	lui	s4,0x19
    811c:	01079693          	slli	a3,a5,0x10
    8120:	cf8a0513          	addi	a0,s4,-776 # 0x18cf8
    8124:	0106d493          	srli	s1,a3,0x10
    8128:	ae8f80ef          	jal	0x410
    812c:	00019837          	lui	a6,0x19
    8130:	00090593          	mv	a1,s2
    8134:	d1080513          	addi	a0,a6,-752 # 0x18d10
    8138:	ad8f80ef          	jal	0x410
    813c:	00090513          	mv	a0,s2
    8140:	ffdf70ef          	jal	0x13c
    8144:	000198b7          	lui	a7,0x19
    8148:	00050593          	mv	a1,a0
    814c:	d2888513          	addi	a0,a7,-728 # 0x18d28
    8150:	ac0f80ef          	jal	0x410
    8154:	00090513          	mv	a0,s2
    8158:	fe5f70ef          	jal	0x13c
    815c:	28051063          	bnez	a0,0x83dc
    8160:	00090513          	mv	a0,s2
    8164:	fd9f70ef          	jal	0x13c
    8168:	00900913          	li	s2,9
    816c:	24a97e63          	bgeu	s2,a0,0x83c8
    8170:	00cc2583          	lw	a1,12(s8) # 0x1000c
    8174:	02812503          	lw	a0,40(sp)
    8178:	01049e93          	slli	t4,s1,0x10
    817c:	410eda13          	srai	s4,t4,0x10
    8180:	f25fd0ef          	jal	0x60a4
    8184:	00019f37          	lui	t5,0x19
    8188:	00050593          	mv	a1,a0
    818c:	d98f0513          	addi	a0,t5,-616 # 0x18d98
    8190:	a80f80ef          	jal	0x410
    8194:	00019fb7          	lui	t6,0x19
    8198:	000192b7          	lui	t0,0x19
    819c:	db0f8593          	addi	a1,t6,-592 # 0x18db0
    81a0:	dbc28513          	addi	a0,t0,-580 # 0x18dbc
    81a4:	a6cf80ef          	jal	0x410
    81a8:	00019337          	lui	t1,0x19
    81ac:	000193b7          	lui	t2,0x19
    81b0:	dd430593          	addi	a1,t1,-556 # 0x18dd4
    81b4:	e0c38513          	addi	a0,t2,-500 # 0x18e0c
    81b8:	a58f80ef          	jal	0x410
    81bc:	00019737          	lui	a4,0x19
    81c0:	00019637          	lui	a2,0x19
    81c4:	e2470593          	addi	a1,a4,-476 # 0x18e24
    81c8:	e2c60513          	addi	a0,a2,-468 # 0x18e2c
    81cc:	a44f80ef          	jal	0x410
    81d0:	00098593          	mv	a1,s3
    81d4:	000199b7          	lui	s3,0x19
    81d8:	e4498513          	addi	a0,s3,-444 # 0x18e44
    81dc:	a34f80ef          	jal	0x410
    81e0:	02c12883          	lw	a7,44(sp)
    81e4:	0018f593          	andi	a1,a7,1
    81e8:	04058663          	beqz	a1,0x8234
    81ec:	00cc2683          	lw	a3,12(s8)
    81f0:	04068263          	beqz	a3,0x8234
    81f4:	00000993          	li	s3,0
    81f8:	00019937          	lui	s2,0x19
    81fc:	00499793          	slli	a5,s3,0x4
    8200:	01378833          	add	a6,a5,s3
    8204:	00281893          	slli	a7,a6,0x2
    8208:	00288533          	add	a0,a7,sp
    820c:	04655603          	lhu	a2,70(a0)
    8210:	00098593          	mv	a1,s3
    8214:	e6090513          	addi	a0,s2,-416 # 0x18e60
    8218:	9f8f80ef          	jal	0x410
    821c:	00198413          	addi	s0,s3,1
    8220:	00cc2e83          	lw	t4,12(s8)
    8224:	01041493          	slli	s1,s0,0x10
    8228:	0104d993          	srli	s3,s1,0x10
    822c:	fdd9e8e3          	bltu	s3,t4,0x81fc
    8230:	02c12883          	lw	a7,44(sp)
    8234:	0028ff13          	andi	t5,a7,2
    8238:	040f0663          	beqz	t5,0x8284
    823c:	00cc2f83          	lw	t6,12(s8)
    8240:	200f8c63          	beqz	t6,0x8458
    8244:	00000413          	li	s0,0
    8248:	00019937          	lui	s2,0x19
    824c:	00441313          	slli	t1,s0,0x4
    8250:	008303b3          	add	t2,t1,s0
    8254:	00239713          	slli	a4,t2,0x2
    8258:	002705b3          	add	a1,a4,sp
    825c:	0485d603          	lhu	a2,72(a1)
    8260:	e7c90513          	addi	a0,s2,-388 # 0x18e7c
    8264:	00040593          	mv	a1,s0
    8268:	9a8f80ef          	jal	0x410
    826c:	00140693          	addi	a3,s0,1
    8270:	00cc2803          	lw	a6,12(s8)
    8274:	01069793          	slli	a5,a3,0x10
    8278:	0107d413          	srli	s0,a5,0x10
    827c:	fd0468e3          	bltu	s0,a6,0x824c
    8280:	02c12883          	lw	a7,44(sp)
    8284:	0048fe13          	andi	t3,a7,4
    8288:	040e0463          	beqz	t3,0x82d0
    828c:	00cc2503          	lw	a0,12(s8)
    8290:	08050263          	beqz	a0,0x8314
    8294:	00000413          	li	s0,0
    8298:	000194b7          	lui	s1,0x19
    829c:	00441993          	slli	s3,s0,0x4
    82a0:	00898eb3          	add	t4,s3,s0
    82a4:	002e9f13          	slli	t5,t4,0x2
    82a8:	002f02b3          	add	t0,t5,sp
    82ac:	04a2d603          	lhu	a2,74(t0)
    82b0:	00040593          	mv	a1,s0
    82b4:	e9848513          	addi	a0,s1,-360 # 0x18e98
    82b8:	958f80ef          	jal	0x410
    82bc:	00140913          	addi	s2,s0,1
    82c0:	00cc2383          	lw	t2,12(s8)
    82c4:	01091313          	slli	t1,s2,0x10
    82c8:	01035413          	srli	s0,t1,0x10
    82cc:	fc7468e3          	bltu	s0,t2,0x829c
    82d0:	00cc2703          	lw	a4,12(s8)
    82d4:	00000993          	li	s3,0
    82d8:	000194b7          	lui	s1,0x19
    82dc:	02070c63          	beqz	a4,0x8314
    82e0:	00499613          	slli	a2,s3,0x4
    82e4:	013605b3          	add	a1,a2,s3
    82e8:	00259693          	slli	a3,a1,0x2
    82ec:	00268833          	add	a6,a3,sp
    82f0:	04485603          	lhu	a2,68(a6)
    82f4:	00098593          	mv	a1,s3
    82f8:	eb448513          	addi	a0,s1,-332 # 0x18eb4
    82fc:	914f80ef          	jal	0x410
    8300:	00198893          	addi	a7,s3,1
    8304:	00cc2503          	lw	a0,12(s8)
    8308:	01089e13          	slli	t3,a7,0x10
    830c:	010e5993          	srli	s3,t3,0x10
    8310:	fca9e8e3          	bltu	s3,a0,0x82e0
    8314:	0a0a0263          	beqz	s4,0x83b8
    8318:	09404863          	bgtz	s4,0x83a8
    831c:	00019c37          	lui	s8,0x19
    8320:	f1cc0513          	addi	a0,s8,-228 # 0x18f1c
    8324:	8ecf80ef          	jal	0x410
    8328:	04e10513          	addi	a0,sp,78
    832c:	f49f70ef          	jal	0x274
    8330:	07c12083          	lw	ra,124(sp)
    8334:	07812403          	lw	s0,120(sp)
    8338:	07412483          	lw	s1,116(sp)
    833c:	07012903          	lw	s2,112(sp)
    8340:	06c12983          	lw	s3,108(sp)
    8344:	06812a03          	lw	s4,104(sp)
    8348:	05812c03          	lw	s8,88(sp)
    834c:	00000513          	li	a0,0
    8350:	08010113          	addi	sp,sp,128
    8354:	00008067          	ret
    8358:	01812c23          	sw	s8,24(sp)
    835c:	00400413          	li	s0,4
    8360:	bc9ff06f          	j	0x7f28
    8364:	01812c23          	sw	s8,24(sp)
    8368:	a31ff06f          	j	0x7d98
    836c:	000b8593          	mv	a1,s7
    8370:	cc8a0513          	addi	a0,s4,-824
    8374:	89cf80ef          	jal	0x410
    8378:	ffc4df03          	lhu	t5,-4(s1)
    837c:	001f0f93          	addi	t6,t5,1
    8380:	010f9293          	slli	t0,t6,0x10
    8384:	0102d313          	srli	t1,t0,0x10
    8388:	fe649e23          	sh	t1,-4(s1)
    838c:	c95ff06f          	j	0x8020
    8390:	06412a83          	lw	s5,100(sp)
    8394:	06012b03          	lw	s6,96(sp)
    8398:	05c12b83          	lw	s7,92(sp)
    839c:	05412c83          	lw	s9,84(sp)
    83a0:	05012d03          	lw	s10,80(sp)
    83a4:	d69ff06f          	j	0x810c
    83a8:	00019a37          	lui	s4,0x19
    83ac:	f80a0513          	addi	a0,s4,-128 # 0x18f80
    83b0:	860f80ef          	jal	0x410
    83b4:	f75ff06f          	j	0x8328
    83b8:	00019eb7          	lui	t4,0x19
    83bc:	ed0e8513          	addi	a0,t4,-304 # 0x18ed0
    83c0:	850f80ef          	jal	0x410
    83c4:	f65ff06f          	j	0x8328
    83c8:	00019537          	lui	a0,0x19
    83cc:	d5850513          	addi	a0,a0,-680 # 0x18d58
    83d0:	840f80ef          	jal	0x410
    83d4:	00148493          	addi	s1,s1,1
    83d8:	d99ff06f          	j	0x8170
    83dc:	00cc2583          	lw	a1,12(s8)
    83e0:	02812503          	lw	a0,40(sp)
    83e4:	cc1fd0ef          	jal	0x60a4
    83e8:	00050413          	mv	s0,a0
    83ec:	00090513          	mv	a0,s2
    83f0:	d4df70ef          	jal	0x13c
    83f4:	00050593          	mv	a1,a0
    83f8:	00040513          	mv	a0,s0
    83fc:	cd5fd0ef          	jal	0x60d0
    8400:	00019e37          	lui	t3,0x19
    8404:	00050593          	mv	a1,a0
    8408:	d40e0513          	addi	a0,t3,-704 # 0x18d40
    840c:	804f80ef          	jal	0x410
    8410:	d51ff06f          	j	0x8160
    8414:	00019737          	lui	a4,0x19
    8418:	c3870513          	addi	a0,a4,-968 # 0x18c38
    841c:	ff5f70ef          	jal	0x410
    8420:	00400613          	li	a2,4
    8424:	badff06f          	j	0x7fd0
    8428:	000194b7          	lui	s1,0x19
    842c:	ba848513          	addi	a0,s1,-1112 # 0x18ba8
    8430:	fe1f70ef          	jal	0x410
    8434:	00100613          	li	a2,1
    8438:	b99ff06f          	j	0x7fd0
    843c:	00019f37          	lui	t5,0x19
    8440:	b78f0513          	addi	a0,t5,-1160 # 0x18b78
    8444:	fcdf70ef          	jal	0x410
    8448:	00000613          	li	a2,0
    844c:	b85ff06f          	j	0x7fd0
    8450:	00000493          	li	s1,0
    8454:	cb9ff06f          	j	0x810c
    8458:	0048f293          	andi	t0,a7,4
    845c:	e6028ae3          	beqz	t0,0x82d0
    8460:	eb5ff06f          	j	0x8314

Disassembly of section .text.strnlen:

00008464 <.text.strnlen>:
    8464:	00b506b3          	add	a3,a0,a1
    8468:	00050793          	mv	a5,a0
    846c:	00059863          	bnez	a1,0x847c
    8470:	01c0006f          	j	0x848c
    8474:	00178793          	addi	a5,a5,1
    8478:	00d78663          	beq	a5,a3,0x8484
    847c:	0007c703          	lbu	a4,0(a5)
    8480:	fe071ae3          	bnez	a4,0x8474
    8484:	40a78533          	sub	a0,a5,a0
    8488:	00008067          	ret
    848c:	00000513          	li	a0,0
    8490:	00008067          	ret

Disassembly of section .data:

00010000 <.data>:
   10000:	8f94                	.insn	2, 0x8f94
   10002:	0001                	nop
   10004:	8f9c                	.insn	2, 0x8f9c
   10006:	0001                	nop
   10008:	8fa4                	.insn	2, 0x8fa4
   1000a:	0001                	nop

Disassembly of section .sdata:

0001000c <.sdata>:
   1000c:	0001                	nop
   1000e:	0000                	unimp
   10010:	000a                	c.slli	zero,0x2
   10012:	0000                	unimp
   10014:	0066                	c.slli	zero,0x19
	...

Disassembly of section .rodata:

000107fc <.rodata>:
	...
   187fc:	0ba8                	addi	a0,sp,472
   187fe:	0000                	unimp
   18800:	0558                	addi	a4,sp,644
   18802:	0000                	unimp
   18804:	0bf8                	addi	a4,sp,476
   18806:	0000                	unimp
   18808:	0558                	addi	a4,sp,644
   1880a:	0000                	unimp
   1880c:	0558                	addi	a4,sp,644
   1880e:	0000                	unimp
   18810:	0558                	addi	a4,sp,644
   18812:	0000                	unimp
   18814:	0558                	addi	a4,sp,644
   18816:	0000                	unimp
   18818:	0bb4                	addi	a3,sp,472
   1881a:	0000                	unimp
   1881c:	0558                	addi	a4,sp,644
   1881e:	0000                	unimp
   18820:	0558                	addi	a4,sp,644
   18822:	0000                	unimp
   18824:	0538                	addi	a4,sp,648
   18826:	0000                	unimp
   18828:	0a44                	addi	s1,sp,276
   1882a:	0000                	unimp
   1882c:	0558                	addi	a4,sp,644
   1882e:	0000                	unimp
   18830:	0538                	addi	a4,sp,648
   18832:	0000                	unimp
   18834:	0568                	addi	a0,sp,652
   18836:	0000                	unimp
   18838:	0568                	addi	a0,sp,652
   1883a:	0000                	unimp
   1883c:	0568                	addi	a0,sp,652
   1883e:	0000                	unimp
   18840:	0568                	addi	a0,sp,652
   18842:	0000                	unimp
   18844:	0568                	addi	a0,sp,652
   18846:	0000                	unimp
   18848:	0568                	addi	a0,sp,652
   1884a:	0000                	unimp
   1884c:	0568                	addi	a0,sp,652
   1884e:	0000                	unimp
   18850:	0568                	addi	a0,sp,652
   18852:	0000                	unimp
   18854:	0568                	addi	a0,sp,652
   18856:	0000                	unimp
   18858:	0558                	addi	a4,sp,644
   1885a:	0000                	unimp
   1885c:	0558                	addi	a4,sp,644
   1885e:	0000                	unimp
   18860:	0558                	addi	a4,sp,644
   18862:	0000                	unimp
   18864:	0558                	addi	a4,sp,644
   18866:	0000                	unimp
   18868:	0558                	addi	a4,sp,644
   1886a:	0000                	unimp
   1886c:	0558                	addi	a4,sp,644
   1886e:	0000                	unimp
   18870:	0558                	addi	a4,sp,644
   18872:	0000                	unimp
   18874:	0558                	addi	a4,sp,644
   18876:	0000                	unimp
   18878:	0558                	addi	a4,sp,644
   1887a:	0000                	unimp
   1887c:	0558                	addi	a4,sp,644
   1887e:	0000                	unimp
   18880:	0558                	addi	a4,sp,644
   18882:	0000                	unimp
   18884:	0558                	addi	a4,sp,644
   18886:	0000                	unimp
   18888:	0558                	addi	a4,sp,644
   1888a:	0000                	unimp
   1888c:	0558                	addi	a4,sp,644
   1888e:	0000                	unimp
   18890:	0558                	addi	a4,sp,644
   18892:	0000                	unimp
   18894:	0558                	addi	a4,sp,644
   18896:	0000                	unimp
   18898:	0558                	addi	a4,sp,644
   1889a:	0000                	unimp
   1889c:	0558                	addi	a4,sp,644
   1889e:	0000                	unimp
   188a0:	0558                	addi	a4,sp,644
   188a2:	0000                	unimp
   188a4:	0558                	addi	a4,sp,644
   188a6:	0000                	unimp
   188a8:	0558                	addi	a4,sp,644
   188aa:	0000                	unimp
   188ac:	0558                	addi	a4,sp,644
   188ae:	0000                	unimp
   188b0:	0558                	addi	a4,sp,644
   188b2:	0000                	unimp
   188b4:	0558                	addi	a4,sp,644
   188b6:	0000                	unimp
   188b8:	0558                	addi	a4,sp,644
   188ba:	0000                	unimp
   188bc:	0558                	addi	a4,sp,644
   188be:	0000                	unimp
   188c0:	0558                	addi	a4,sp,644
   188c2:	0000                	unimp
   188c4:	0558                	addi	a4,sp,644
   188c6:	0000                	unimp
   188c8:	0558                	addi	a4,sp,644
   188ca:	0000                	unimp
   188cc:	0558                	addi	a4,sp,644
   188ce:	0000                	unimp
   188d0:	0d30                	addi	a2,sp,664
   188d2:	0000                	unimp
   188d4:	0558                	addi	a4,sp,644
   188d6:	0000                	unimp
   188d8:	0558                	addi	a4,sp,644
   188da:	0000                	unimp
   188dc:	0558                	addi	a4,sp,644
   188de:	0000                	unimp
   188e0:	0558                	addi	a4,sp,644
   188e2:	0000                	unimp
   188e4:	0558                	addi	a4,sp,644
   188e6:	0000                	unimp
   188e8:	0558                	addi	a4,sp,644
   188ea:	0000                	unimp
   188ec:	0558                	addi	a4,sp,644
   188ee:	0000                	unimp
   188f0:	0558                	addi	a4,sp,644
   188f2:	0000                	unimp
   188f4:	0558                	addi	a4,sp,644
   188f6:	0000                	unimp
   188f8:	0558                	addi	a4,sp,644
   188fa:	0000                	unimp
   188fc:	05bc                	addi	a5,sp,712
   188fe:	0000                	unimp
   18900:	05cc                	addi	a1,sp,708
   18902:	0000                	unimp
   18904:	0558                	addi	a4,sp,644
   18906:	0000                	unimp
   18908:	0984                	addi	s1,sp,208
   1890a:	0000                	unimp
   1890c:	0558                	addi	a4,sp,644
   1890e:	0000                	unimp
   18910:	0558                	addi	a4,sp,644
   18912:	0000                	unimp
   18914:	0558                	addi	a4,sp,644
   18916:	0000                	unimp
   18918:	0558                	addi	a4,sp,644
   1891a:	0000                	unimp
   1891c:	0558                	addi	a4,sp,644
   1891e:	0000                	unimp
   18920:	09ec                	addi	a1,sp,220
   18922:	0000                	unimp
   18924:	0558                	addi	a4,sp,644
   18926:	0000                	unimp
   18928:	0558                	addi	a4,sp,644
   1892a:	0000                	unimp
   1892c:	09fc                	addi	a5,sp,220
   1892e:	0000                	unimp
   18930:	0a5c                	addi	a5,sp,276
   18932:	0000                	unimp
   18934:	0558                	addi	a4,sp,644
   18936:	0000                	unimp
   18938:	0558                	addi	a4,sp,644
   1893a:	0000                	unimp
   1893c:	0a80                	addi	s0,sp,336
   1893e:	0000                	unimp
   18940:	0558                	addi	a4,sp,644
   18942:	0000                	unimp
   18944:	0c04                	addi	s1,sp,528
   18946:	0000                	unimp
   18948:	0558                	addi	a4,sp,644
   1894a:	0000                	unimp
   1894c:	0558                	addi	a4,sp,644
   1894e:	0000                	unimp
   18950:	0bc8                	addi	a0,sp,468
   18952:	0000                	unimp
   18954:	d4b0                	sw	a2,104(s1)
   18956:	3340                	fld	fs0,160(a4)
   18958:	6a79                	lui	s4,0x1e
   1895a:	e714                	fsw	fa3,8(a4)
   1895c:	e3c1                	bnez	a5,0x189dc
   1895e:	0000                	unimp
   18960:	be52                	fsd	fs4,312(sp)
   18962:	1199                	addi	gp,gp,-26
   18964:	5608                	lw	a0,40(a2)
   18966:	07471fd7          	.insn	4, 0x07471fd7
   1896a:	0000                	unimp
   1896c:	39bf5e47          	fmsub.s	ft8,ft10,fs11,ft7,unknown
   18970:	e5a4                	fsw	fs1,72(a1)
   18972:	8e3a                	mv	t3,a4
   18974:	8d84                	.insn	2, 0x8d84
   18976:	ffff                	.insn	2, 0xffff
   18978:	3710                	fld	fa2,40(a4)
   1897a:	0000                	unimp
   1897c:	36e0                	fld	fs0,232(a3)
   1897e:	0000                	unimp
   18980:	36ec                	fld	fa1,232(a3)
   18982:	0000                	unimp
   18984:	36f8                	fld	fa4,232(a3)
   18986:	0000                	unimp
   18988:	3704                	fld	fs1,40(a4)
   1898a:	0000                	unimp
   1898c:	36d4                	fld	fa3,168(a3)
   1898e:	0000                	unimp
   18990:	903c                	.insn	2, 0x903c
   18992:	0001                	nop
   18994:	9044                	.insn	2, 0x9044
   18996:	0001                	nop
   18998:	904c                	.insn	2, 0x904c
   1899a:	0001                	nop
   1899c:	9054                	.insn	2, 0x9054
   1899e:	0001                	nop
   189a0:	900c                	.insn	2, 0x900c
   189a2:	0001                	nop
   189a4:	9018                	.insn	2, 0x9018
   189a6:	0001                	nop
   189a8:	9024                	.insn	2, 0x9024
   189aa:	0001                	nop
   189ac:	9030                	.insn	2, 0x9030
   189ae:	0001                	nop
   189b0:	8fdc                	.insn	2, 0x8fdc
   189b2:	0001                	nop
   189b4:	8fe8                	.insn	2, 0x8fe8
   189b6:	0001                	nop
   189b8:	8ff4                	.insn	2, 0x8ff4
   189ba:	0001                	nop
   189bc:	9000                	.insn	2, 0x9000
   189be:	0001                	nop
   189c0:	8fac                	.insn	2, 0x8fac
   189c2:	0001                	nop
   189c4:	8fb8                	.insn	2, 0x8fb8
   189c6:	0001                	nop
   189c8:	8fc4                	.insn	2, 0x8fc4
   189ca:	0001                	nop
   189cc:	8fd0                	.insn	2, 0x8fd0
   189ce:	0001                	nop
   189d0:	5b7c                	lw	a5,116(a4)
   189d2:	0000                	unimp
   189d4:	5af0                	lw	a2,116(a3)
   189d6:	0000                	unimp
   189d8:	5ad4                	lw	a3,52(a3)
   189da:	0000                	unimp
   189dc:	5af0                	lw	a2,116(a3)
   189de:	0000                	unimp
   189e0:	5b6c                	lw	a1,116(a4)
   189e2:	0000                	unimp
   189e4:	5af0                	lw	a2,116(a3)
   189e6:	0000                	unimp
   189e8:	5ad4                	lw	a3,52(a3)
   189ea:	0000                	unimp
   189ec:	5b7c                	lw	a5,116(a4)
   189ee:	0000                	unimp
   189f0:	5b7c                	lw	a5,116(a4)
   189f2:	0000                	unimp
   189f4:	5b6c                	lw	a1,116(a4)
   189f6:	0000                	unimp
   189f8:	5ad4                	lw	a3,52(a3)
   189fa:	0000                	unimp
   189fc:	5afc                	lw	a5,116(a3)
   189fe:	0000                	unimp
   18a00:	5afc                	lw	a5,116(a3)
   18a02:	0000                	unimp
   18a04:	5afc                	lw	a5,116(a3)
   18a06:	0000                	unimp
   18a08:	5b6c                	lw	a1,116(a4)
   18a0a:	0000                	unimp
   18a0c:	0100                	addi	s0,sp,128
   18a0e:	0202                	c.slli64	tp
   18a10:	03030303          	lb	t1,48(t1)
   18a14:	0404                	addi	s1,sp,512
   18a16:	0404                	addi	s1,sp,512
   18a18:	0404                	addi	s1,sp,512
   18a1a:	0404                	addi	s1,sp,512
   18a1c:	0505                	addi	a0,a0,1
   18a1e:	0505                	addi	a0,a0,1
   18a20:	0505                	addi	a0,a0,1
   18a22:	0505                	addi	a0,a0,1
   18a24:	0505                	addi	a0,a0,1
   18a26:	0505                	addi	a0,a0,1
   18a28:	0505                	addi	a0,a0,1
   18a2a:	0505                	addi	a0,a0,1
   18a2c:	0606                	slli	a2,a2,0x1
   18a2e:	0606                	slli	a2,a2,0x1
   18a30:	0606                	slli	a2,a2,0x1
   18a32:	0606                	slli	a2,a2,0x1
   18a34:	0606                	slli	a2,a2,0x1
   18a36:	0606                	slli	a2,a2,0x1
   18a38:	0606                	slli	a2,a2,0x1
   18a3a:	0606                	slli	a2,a2,0x1
   18a3c:	0606                	slli	a2,a2,0x1
   18a3e:	0606                	slli	a2,a2,0x1
   18a40:	0606                	slli	a2,a2,0x1
   18a42:	0606                	slli	a2,a2,0x1
   18a44:	0606                	slli	a2,a2,0x1
   18a46:	0606                	slli	a2,a2,0x1
   18a48:	0606                	slli	a2,a2,0x1
   18a4a:	0606                	slli	a2,a2,0x1
   18a4c:	07070707          	.insn	4, 0x07070707
   18a50:	07070707          	.insn	4, 0x07070707
   18a54:	07070707          	.insn	4, 0x07070707
   18a58:	07070707          	.insn	4, 0x07070707
   18a5c:	07070707          	.insn	4, 0x07070707
   18a60:	07070707          	.insn	4, 0x07070707
   18a64:	07070707          	.insn	4, 0x07070707
   18a68:	07070707          	.insn	4, 0x07070707
   18a6c:	07070707          	.insn	4, 0x07070707
   18a70:	07070707          	.insn	4, 0x07070707
   18a74:	07070707          	.insn	4, 0x07070707
   18a78:	07070707          	.insn	4, 0x07070707
   18a7c:	07070707          	.insn	4, 0x07070707
   18a80:	07070707          	.insn	4, 0x07070707
   18a84:	07070707          	.insn	4, 0x07070707
   18a88:	07070707          	.insn	4, 0x07070707
   18a8c:	0808                	addi	a0,sp,16
   18a8e:	0808                	addi	a0,sp,16
   18a90:	0808                	addi	a0,sp,16
   18a92:	0808                	addi	a0,sp,16
   18a94:	0808                	addi	a0,sp,16
   18a96:	0808                	addi	a0,sp,16
   18a98:	0808                	addi	a0,sp,16
   18a9a:	0808                	addi	a0,sp,16
   18a9c:	0808                	addi	a0,sp,16
   18a9e:	0808                	addi	a0,sp,16
   18aa0:	0808                	addi	a0,sp,16
   18aa2:	0808                	addi	a0,sp,16
   18aa4:	0808                	addi	a0,sp,16
   18aa6:	0808                	addi	a0,sp,16
   18aa8:	0808                	addi	a0,sp,16
   18aaa:	0808                	addi	a0,sp,16
   18aac:	0808                	addi	a0,sp,16
   18aae:	0808                	addi	a0,sp,16
   18ab0:	0808                	addi	a0,sp,16
   18ab2:	0808                	addi	a0,sp,16
   18ab4:	0808                	addi	a0,sp,16
   18ab6:	0808                	addi	a0,sp,16
   18ab8:	0808                	addi	a0,sp,16
   18aba:	0808                	addi	a0,sp,16
   18abc:	0808                	addi	a0,sp,16
   18abe:	0808                	addi	a0,sp,16
   18ac0:	0808                	addi	a0,sp,16
   18ac2:	0808                	addi	a0,sp,16
   18ac4:	0808                	addi	a0,sp,16
   18ac6:	0808                	addi	a0,sp,16
   18ac8:	0808                	addi	a0,sp,16
   18aca:	0808                	addi	a0,sp,16
   18acc:	0808                	addi	a0,sp,16
   18ace:	0808                	addi	a0,sp,16
   18ad0:	0808                	addi	a0,sp,16
   18ad2:	0808                	addi	a0,sp,16
   18ad4:	0808                	addi	a0,sp,16
   18ad6:	0808                	addi	a0,sp,16
   18ad8:	0808                	addi	a0,sp,16
   18ada:	0808                	addi	a0,sp,16
   18adc:	0808                	addi	a0,sp,16
   18ade:	0808                	addi	a0,sp,16
   18ae0:	0808                	addi	a0,sp,16
   18ae2:	0808                	addi	a0,sp,16
   18ae4:	0808                	addi	a0,sp,16
   18ae6:	0808                	addi	a0,sp,16
   18ae8:	0808                	addi	a0,sp,16
   18aea:	0808                	addi	a0,sp,16
   18aec:	0808                	addi	a0,sp,16
   18aee:	0808                	addi	a0,sp,16
   18af0:	0808                	addi	a0,sp,16
   18af2:	0808                	addi	a0,sp,16
   18af4:	0808                	addi	a0,sp,16
   18af6:	0808                	addi	a0,sp,16
   18af8:	0808                	addi	a0,sp,16
   18afa:	0808                	addi	a0,sp,16
   18afc:	0808                	addi	a0,sp,16
   18afe:	0808                	addi	a0,sp,16
   18b00:	0808                	addi	a0,sp,16
   18b02:	0808                	addi	a0,sp,16
   18b04:	0808                	addi	a0,sp,16
   18b06:	0808                	addi	a0,sp,16
   18b08:	0808                	addi	a0,sp,16
   18b0a:	0808                	addi	a0,sp,16

Disassembly of section .rodata.str1.4:

00018b0c <.rodata.str1.4>:
   18b0c:	65726f43          	.insn	4, 0x65726f43
   18b10:	614d                	addi	sp,sp,176
   18b12:	6b72                	flw	fs6,28(sp)
   18b14:	3120                	fld	fs0,96(a0)
   18b16:	302e                	fld	ft0,232(sp)
   18b18:	000a                	c.slli	zero,0x2
   18b1a:	0000                	unimp
   18b1c:	6c637943          	.insn	4, 0x6c637943
   18b20:	7365                	lui	t1,0xffff9
   18b22:	505f 7265 495f      	.insn	6, 0x495f7265505f
   18b28:	736e                	flw	ft6,248(sp)
   18b2a:	7274                	flw	fa3,100(a2)
   18b2c:	6375                	lui	t1,0x1d
   18b2e:	6974                	flw	fa3,84(a0)
   18b30:	203a6e6f          	jal	t3,0xbf532
   18b34:	6625                	lui	a2,0x9
   18b36:	000a                	c.slli	zero,0x2
   18b38:	65726f43          	.insn	4, 0x65726f43
   18b3c:	614d                	addi	sp,sp,176
   18b3e:	6b72                	flw	fs6,28(sp)
   18b40:	3120                	fld	fs0,96(a0)
   18b42:	302e                	fld	ft0,232(sp)
   18b44:	3a20                	fld	fs0,112(a2)
   18b46:	2520                	fld	fs0,72(a0)
   18b48:	0a66                	slli	s4,s4,0x19
   18b4a:	0000                	unimp
   18b4c:	65726f43          	.insn	4, 0x65726f43
   18b50:	614d                	addi	sp,sp,176
   18b52:	6b72                	flw	fs6,28(sp)
   18b54:	7a484d2f          	.insn	4, 0x7a484d2f
   18b58:	3a20                	fld	fs0,112(a2)
   18b5a:	2520                	fld	fs0,72(a0)
   18b5c:	0a66                	slli	s4,s4,0x19
   18b5e:	0000                	unimp
   18b60:	4946                	lw	s2,80(sp)
   18b62:	494e                	lw	s2,208(sp)
   18b64:	000a4853          	fadd.s	fa6,fs4,ft0,rmm
   18b68:	6e28                	flw	fa0,88(a2)
   18b6a:	6c75                	lui	s8,0x1d
   18b6c:	296c                	fld	fa1,208(a0)
   18b6e:	0000                	unimp
   18b70:	6425                	lui	s0,0x9
   18b72:	252c                	fld	fa1,72(a0)
   18b74:	0064                	addi	s1,sp,12
   18b76:	0000                	unimp
   18b78:	6b36                	flw	fs6,76(sp)
   18b7a:	7020                	flw	fs0,96(s0)
   18b7c:	7265                	lui	tp,0xffff9
   18b7e:	6f66                	flw	ft10,88(sp)
   18b80:	6d72                	flw	fs10,28(sp)
   18b82:	6e61                	lui	t3,0x18
   18b84:	72206563          	bltu	zero,sp,0x192ae
   18b88:	6e75                	lui	t3,0x1d
   18b8a:	7020                	flw	fs0,96(s0)
   18b8c:	7261                	lui	tp,0xffff8
   18b8e:	6d61                	lui	s10,0x18
   18b90:	7465                	lui	s0,0xffff9
   18b92:	7265                	lui	tp,0xffff9
   18b94:	6f662073          	csrs	0x6f6,a2
   18b98:	2072                	fld	ft0,280(sp)
   18b9a:	65726f63          	bltu	tp,s7,0x191f8
   18b9e:	616d                	addi	sp,sp,240
   18ba0:	6b72                	flw	fs6,28(sp)
   18ba2:	0a2e                	slli	s4,s4,0xb
   18ba4:	0000                	unimp
   18ba6:	0000                	unimp
   18ba8:	6b36                	flw	fs6,76(sp)
   18baa:	7620                	flw	fs0,104(a2)
   18bac:	6c61                	lui	s8,0x18
   18bae:	6469                	lui	s0,0x1a
   18bb0:	7461                	lui	s0,0xffff8
   18bb2:	6f69                	lui	t5,0x1a
   18bb4:	206e                	fld	ft0,216(sp)
   18bb6:	7572                	flw	fa0,60(sp)
   18bb8:	206e                	fld	ft0,216(sp)
   18bba:	6170                	flw	fa2,68(a0)
   18bbc:	6172                	flw	ft2,28(sp)
   18bbe:	656d                	lui	a0,0x1b
   18bc0:	6574                	flw	fa3,76(a0)
   18bc2:	7372                	flw	ft6,60(sp)
   18bc4:	6620                	flw	fs0,72(a2)
   18bc6:	6320726f          	jal	tp,0x201f8
   18bca:	6d65726f          	jal	tp,0x702a0
   18bce:	7261                	lui	tp,0xffff8
   18bd0:	000a2e6b          	.insn	4, 0x000a2e6b
   18bd4:	7250                	flw	fa2,36(a2)
   18bd6:	6c69666f          	jal	a2,0xaf29c
   18bda:	2065                	jal	0x18c82
   18bdc:	656e6567          	.insn	4, 0x656e6567
   18be0:	6172                	flw	ft2,28(sp)
   18be2:	6974                	flw	fa3,84(a0)
   18be4:	72206e6f          	jal	t3,0x1f306
   18be8:	6e75                	lui	t3,0x1d
   18bea:	7020                	flw	fs0,96(s0)
   18bec:	7261                	lui	tp,0xffff8
   18bee:	6d61                	lui	s10,0x18
   18bf0:	7465                	lui	s0,0xffff9
   18bf2:	7265                	lui	tp,0xffff9
   18bf4:	6f662073          	csrs	0x6f6,a2
   18bf8:	2072                	fld	ft0,280(sp)
   18bfa:	65726f63          	bltu	tp,s7,0x19258
   18bfe:	616d                	addi	sp,sp,240
   18c00:	6b72                	flw	fs6,28(sp)
   18c02:	0a2e                	slli	s4,s4,0xb
   18c04:	0000                	unimp
   18c06:	0000                	unimp
   18c08:	4b32                	lw	s6,12(sp)
   18c0a:	7020                	flw	fs0,96(s0)
   18c0c:	7265                	lui	tp,0xffff9
   18c0e:	6f66                	flw	ft10,88(sp)
   18c10:	6d72                	flw	fs10,28(sp)
   18c12:	6e61                	lui	t3,0x18
   18c14:	72206563          	bltu	zero,sp,0x1933e
   18c18:	6e75                	lui	t3,0x1d
   18c1a:	7020                	flw	fs0,96(s0)
   18c1c:	7261                	lui	tp,0xffff8
   18c1e:	6d61                	lui	s10,0x18
   18c20:	7465                	lui	s0,0xffff9
   18c22:	7265                	lui	tp,0xffff9
   18c24:	6f662073          	csrs	0x6f6,a2
   18c28:	2072                	fld	ft0,280(sp)
   18c2a:	65726f63          	bltu	tp,s7,0x19288
   18c2e:	616d                	addi	sp,sp,240
   18c30:	6b72                	flw	fs6,28(sp)
   18c32:	0a2e                	slli	s4,s4,0xb
   18c34:	0000                	unimp
   18c36:	0000                	unimp
   18c38:	4b32                	lw	s6,12(sp)
   18c3a:	7620                	flw	fs0,104(a2)
   18c3c:	6c61                	lui	s8,0x18
   18c3e:	6469                	lui	s0,0x1a
   18c40:	7461                	lui	s0,0xffff8
   18c42:	6f69                	lui	t5,0x1a
   18c44:	206e                	fld	ft0,216(sp)
   18c46:	7572                	flw	fa0,60(sp)
   18c48:	206e                	fld	ft0,216(sp)
   18c4a:	6170                	flw	fa2,68(a0)
   18c4c:	6172                	flw	ft2,28(sp)
   18c4e:	656d                	lui	a0,0x1b
   18c50:	6574                	flw	fa3,76(a0)
   18c52:	7372                	flw	ft6,60(sp)
   18c54:	6620                	flw	fs0,72(a2)
   18c56:	6320726f          	jal	tp,0x20288
   18c5a:	6d65726f          	jal	tp,0x70330
   18c5e:	7261                	lui	tp,0xffff8
   18c60:	000a2e6b          	.insn	4, 0x000a2e6b
   18c64:	5d75255b          	.insn	4, 0x5d75255b
   18c68:	5245                	li	tp,-15
   18c6a:	4f52                	lw	t5,20(sp)
   18c6c:	2152                	fld	ft2,272(sp)
   18c6e:	6c20                	flw	fs0,88(s0)
   18c70:	7369                	lui	t1,0xffffa
   18c72:	2074                	fld	fa3,192(s0)
   18c74:	20637263          	bgeu	t1,t1,0x18e78
   18c78:	7830                	flw	fa2,112(s0)
   18c7a:	3025                	jal	0x184a2
   18c7c:	7834                	flw	fa3,112(s0)
   18c7e:	2d20                	fld	fs0,88(a0)
   18c80:	7320                	flw	fs0,96(a4)
   18c82:	6f68                	flw	fa0,92(a4)
   18c84:	6c75                	lui	s8,0x1d
   18c86:	2064                	fld	fs1,192(s0)
   18c88:	6562                	flw	fa0,24(sp)
   18c8a:	3020                	fld	fs0,96(s0)
   18c8c:	2578                	fld	fa4,200(a0)
   18c8e:	3430                	fld	fa2,104(s0)
   18c90:	0a78                	addi	a4,sp,284
   18c92:	0000                	unimp
   18c94:	5d75255b          	.insn	4, 0x5d75255b
   18c98:	5245                	li	tp,-15
   18c9a:	4f52                	lw	t5,20(sp)
   18c9c:	2152                	fld	ft2,272(sp)
   18c9e:	6d20                	flw	fs0,88(a0)
   18ca0:	7461                	lui	s0,0xffff8
   18ca2:	6972                	flw	fs2,28(sp)
   18ca4:	2078                	fld	fa4,192(s0)
   18ca6:	20637263          	bgeu	t1,t1,0x18eaa
   18caa:	7830                	flw	fa2,112(s0)
   18cac:	3025                	jal	0x184d4
   18cae:	7834                	flw	fa3,112(s0)
   18cb0:	2d20                	fld	fs0,88(a0)
   18cb2:	7320                	flw	fs0,96(a4)
   18cb4:	6f68                	flw	fa0,92(a4)
   18cb6:	6c75                	lui	s8,0x1d
   18cb8:	2064                	fld	fs1,192(s0)
   18cba:	6562                	flw	fa0,24(sp)
   18cbc:	3020                	fld	fs0,96(s0)
   18cbe:	2578                	fld	fa4,200(a0)
   18cc0:	3430                	fld	fa2,104(s0)
   18cc2:	0a78                	addi	a4,sp,284
   18cc4:	0000                	unimp
   18cc6:	0000                	unimp
   18cc8:	5d75255b          	.insn	4, 0x5d75255b
   18ccc:	5245                	li	tp,-15
   18cce:	4f52                	lw	t5,20(sp)
   18cd0:	2152                	fld	ft2,272(sp)
   18cd2:	7320                	flw	fs0,96(a4)
   18cd4:	6174                	flw	fa3,68(a0)
   18cd6:	6574                	flw	fa3,76(a0)
   18cd8:	6320                	flw	fs0,64(a4)
   18cda:	6372                	flw	ft6,28(sp)
   18cdc:	3020                	fld	fs0,96(s0)
   18cde:	2578                	fld	fa4,200(a0)
   18ce0:	3430                	fld	fa2,104(s0)
   18ce2:	2078                	fld	fa4,192(s0)
   18ce4:	202d                	jal	0x18d0e
   18ce6:	756f6873          	csrrsi	a6,0x756,30
   18cea:	646c                	flw	fa1,76(s0)
   18cec:	6220                	flw	fs0,64(a2)
   18cee:	2065                	jal	0x18d96
   18cf0:	7830                	flw	fa2,112(s0)
   18cf2:	3025                	jal	0x1851a
   18cf4:	7834                	flw	fa3,112(s0)
   18cf6:	000a                	c.slli	zero,0x2
   18cf8:	65726f43          	.insn	4, 0x65726f43
   18cfc:	614d                	addi	sp,sp,176
   18cfe:	6b72                	flw	fs6,28(sp)
   18d00:	5320                	lw	s0,96(a4)
   18d02:	7a69                	lui	s4,0xffffa
   18d04:	2065                	jal	0x18dac
   18d06:	2020                	fld	fs0,64(s0)
   18d08:	3a20                	fld	fs0,112(a2)
   18d0a:	2520                	fld	fs0,72(a0)
   18d0c:	756c                	flw	fa1,108(a0)
   18d0e:	000a                	c.slli	zero,0x2
   18d10:	6f54                	flw	fa3,28(a4)
   18d12:	6174                	flw	fa3,68(a0)
   18d14:	206c                	fld	fa1,192(s0)
   18d16:	6974                	flw	fa3,84(a0)
   18d18:	20736b63          	bltu	t1,t2,0x18f2e
   18d1c:	2020                	fld	fs0,64(s0)
   18d1e:	2020                	fld	fs0,64(s0)
   18d20:	3a20                	fld	fs0,112(a2)
   18d22:	2520                	fld	fs0,72(a0)
   18d24:	756c                	flw	fa1,108(a0)
   18d26:	000a                	c.slli	zero,0x2
   18d28:	6f54                	flw	fa3,28(a4)
   18d2a:	6174                	flw	fa3,68(a0)
   18d2c:	206c                	fld	fa1,192(s0)
   18d2e:	6974                	flw	fa3,84(a0)
   18d30:	656d                	lui	a0,0x1b
   18d32:	2820                	fld	fs0,80(s0)
   18d34:	73636573          	csrrsi	a0,mhpmevent22h,6
   18d38:	3a29                	jal	0x18652
   18d3a:	2520                	fld	fs0,72(a0)
   18d3c:	0a64                	addi	s1,sp,284
   18d3e:	0000                	unimp
   18d40:	7449                	lui	s0,0xffff2
   18d42:	7265                	lui	tp,0xffff9
   18d44:	7461                	lui	s0,0xffff8
   18d46:	6f69                	lui	t5,0x1a
   18d48:	736e                	flw	ft6,248(sp)
   18d4a:	6365532f          	.insn	4, 0x6365532f
   18d4e:	2020                	fld	fs0,64(s0)
   18d50:	3a20                	fld	fs0,112(a2)
   18d52:	2520                	fld	fs0,72(a0)
   18d54:	0a64                	addi	s1,sp,284
   18d56:	0000                	unimp
   18d58:	5245                	li	tp,-15
   18d5a:	4f52                	lw	t5,20(sp)
   18d5c:	2152                	fld	ft2,272(sp)
   18d5e:	4d20                	lw	s0,88(a0)
   18d60:	7375                	lui	t1,0xffffd
   18d62:	2074                	fld	fa3,192(s0)
   18d64:	7865                	lui	a6,0xffff9
   18d66:	6365                	lui	t1,0x19
   18d68:	7475                	lui	s0,0xffffd
   18d6a:	2065                	jal	0x18e12
   18d6c:	6f66                	flw	ft10,88(sp)
   18d6e:	2072                	fld	ft0,280(sp)
   18d70:	7461                	lui	s0,0xffff8
   18d72:	6c20                	flw	fs0,88(s0)
   18d74:	6165                	addi	sp,sp,112
   18d76:	31207473          	csrrci	s0,0x312,0
   18d7a:	2030                	fld	fa2,64(s0)
   18d7c:	73636573          	csrrsi	a0,mhpmevent22h,6
   18d80:	6620                	flw	fs0,72(a2)
   18d82:	6120726f          	jal	tp,0x20394
   18d86:	7620                	flw	fs0,104(a2)
   18d88:	6c61                	lui	s8,0x18
   18d8a:	6469                	lui	s0,0x1a
   18d8c:	7220                	flw	fs0,96(a2)
   18d8e:	7365                	lui	t1,0xffff9
   18d90:	6c75                	lui	s8,0x1d
   18d92:	2174                	fld	fa3,192(a0)
   18d94:	000a                	c.slli	zero,0x2
   18d96:	0000                	unimp
   18d98:	7449                	lui	s0,0xffff2
   18d9a:	7265                	lui	tp,0xffff9
   18d9c:	7461                	lui	s0,0xffff8
   18d9e:	6f69                	lui	t5,0x1a
   18da0:	736e                	flw	ft6,248(sp)
   18da2:	2020                	fld	fs0,64(s0)
   18da4:	2020                	fld	fs0,64(s0)
   18da6:	2020                	fld	fs0,64(s0)
   18da8:	3a20                	fld	fs0,112(a2)
   18daa:	2520                	fld	fs0,72(a0)
   18dac:	756c                	flw	fa1,108(a0)
   18dae:	000a                	c.slli	zero,0x2
   18db0:	31434347          	fmsub.s	ft6,ft6,fs4,ft6,rmm
   18db4:	2e34                	fld	fa3,88(a2)
   18db6:	2e32                	fld	ft8,264(sp)
   18db8:	0030                	addi	a2,sp,8
   18dba:	0000                	unimp
   18dbc:	706d6f43          	fmadd.s	ft10,fs10,ft6,fa4,unknown
   18dc0:	6c69                	lui	s8,0x1a
   18dc2:	7265                	lui	tp,0xffff9
   18dc4:	7620                	flw	fs0,104(a2)
   18dc6:	7265                	lui	tp,0xffff9
   18dc8:	6e6f6973          	csrrsi	s2,0x6e6,30
   18dcc:	3a20                	fld	fs0,112(a2)
   18dce:	2520                	fld	fs0,72(a0)
   18dd0:	00000a73          	.insn	4, 0x0a73
   18dd4:	4f2d                	li	t5,11
   18dd6:	2032                	fld	ft0,264(sp)
   18dd8:	662d                	lui	a2,0xb
   18dda:	6e75                	lui	t3,0x1d
   18ddc:	6f72                	flw	ft10,28(sp)
   18dde:	6c6c                	flw	fa1,92(s0)
   18de0:	6c2d                	lui	s8,0xb
   18de2:	73706f6f          	jal	t5,0x1fd18
   18de6:	2d20                	fld	fs0,88(a0)
   18de8:	7066                	flw	ft0,120(sp)
   18dea:	6565                	lui	a0,0x19
   18dec:	2d6c                	fld	fa1,216(a0)
   18dee:	6f6c                	flw	fa1,92(a4)
   18df0:	2073706f          	j	0x507f6
   18df4:	662d                	lui	a2,0xb
   18df6:	65736367          	.insn	4, 0x65736367
   18dfa:	732d                	lui	t1,0xfffeb
   18dfc:	206d                	jal	0x18ea6
   18dfe:	662d                	lui	a2,0xb
   18e00:	65736367          	.insn	4, 0x65736367
   18e04:	6c2d                	lui	s8,0xb
   18e06:	7361                	lui	t1,0xffff8
   18e08:	0020                	addi	s0,sp,8
   18e0a:	0000                	unimp
   18e0c:	706d6f43          	fmadd.s	ft10,fs10,ft6,fa4,unknown
   18e10:	6c69                	lui	s8,0x1a
   18e12:	7265                	lui	tp,0xffff9
   18e14:	6620                	flw	fs0,72(a2)
   18e16:	616c                	flw	fa1,68(a0)
   18e18:	20207367          	.insn	4, 0x20207367
   18e1c:	3a20                	fld	fs0,112(a2)
   18e1e:	2520                	fld	fs0,72(a0)
   18e20:	00000a73          	.insn	4, 0x0a73
   18e24:	54415453          	.insn	4, 0x54415453
   18e28:	4349                	li	t1,18
   18e2a:	0000                	unimp
   18e2c:	654d                	lui	a0,0x13
   18e2e:	6f6d                	lui	t5,0x1b
   18e30:	7972                	flw	fs2,60(sp)
   18e32:	6c20                	flw	fs0,88(s0)
   18e34:	7461636f          	jal	t1,0x2f57a
   18e38:	6f69                	lui	t5,0x1a
   18e3a:	206e                	fld	ft0,216(sp)
   18e3c:	3a20                	fld	fs0,112(a2)
   18e3e:	2520                	fld	fs0,72(a0)
   18e40:	00000a73          	.insn	4, 0x0a73
   18e44:	64656573          	csrrsi	a0,hviprio1,10
   18e48:	20637263          	bgeu	t1,t1,0x1904c
   18e4c:	2020                	fld	fs0,64(s0)
   18e4e:	2020                	fld	fs0,64(s0)
   18e50:	2020                	fld	fs0,64(s0)
   18e52:	2020                	fld	fs0,64(s0)
   18e54:	3a20                	fld	fs0,112(a2)
   18e56:	3020                	fld	fs0,96(s0)
   18e58:	2578                	fld	fa4,200(a0)
   18e5a:	3430                	fld	fa2,104(s0)
   18e5c:	0a78                	addi	a4,sp,284
   18e5e:	0000                	unimp
   18e60:	5d64255b          	.insn	4, 0x5d64255b
   18e64:	6c637263          	bgeu	t1,t1,0x19528
   18e68:	7369                	lui	t1,0xffffa
   18e6a:	2074                	fld	fa3,192(s0)
   18e6c:	2020                	fld	fs0,64(s0)
   18e6e:	2020                	fld	fs0,64(s0)
   18e70:	2020                	fld	fs0,64(s0)
   18e72:	203a                	fld	ft0,392(sp)
   18e74:	7830                	flw	fa2,112(s0)
   18e76:	3025                	jal	0x1869e
   18e78:	7834                	flw	fa3,112(s0)
   18e7a:	000a                	c.slli	zero,0x2
   18e7c:	5d64255b          	.insn	4, 0x5d64255b
   18e80:	6d637263          	bgeu	t1,s6,0x19544
   18e84:	7461                	lui	s0,0xffff8
   18e86:	6972                	flw	fs2,28(sp)
   18e88:	2078                	fld	fa4,192(s0)
   18e8a:	2020                	fld	fs0,64(s0)
   18e8c:	2020                	fld	fs0,64(s0)
   18e8e:	203a                	fld	ft0,392(sp)
   18e90:	7830                	flw	fa2,112(s0)
   18e92:	3025                	jal	0x186ba
   18e94:	7834                	flw	fa3,112(s0)
   18e96:	000a                	c.slli	zero,0x2
   18e98:	5d64255b          	.insn	4, 0x5d64255b
   18e9c:	73637263          	bgeu	t1,s6,0x195c0
   18ea0:	6174                	flw	fa3,68(a0)
   18ea2:	6574                	flw	fa3,76(a0)
   18ea4:	2020                	fld	fs0,64(s0)
   18ea6:	2020                	fld	fs0,64(s0)
   18ea8:	2020                	fld	fs0,64(s0)
   18eaa:	203a                	fld	ft0,392(sp)
   18eac:	7830                	flw	fa2,112(s0)
   18eae:	3025                	jal	0x186d6
   18eb0:	7834                	flw	fa3,112(s0)
   18eb2:	000a                	c.slli	zero,0x2
   18eb4:	5d64255b          	.insn	4, 0x5d64255b
   18eb8:	66637263          	bgeu	t1,t1,0x1951c
   18ebc:	6e69                	lui	t3,0x1a
   18ebe:	6c61                	lui	s8,0x18
   18ec0:	2020                	fld	fs0,64(s0)
   18ec2:	2020                	fld	fs0,64(s0)
   18ec4:	2020                	fld	fs0,64(s0)
   18ec6:	203a                	fld	ft0,392(sp)
   18ec8:	7830                	flw	fa2,112(s0)
   18eca:	3025                	jal	0x186f2
   18ecc:	7834                	flw	fa3,112(s0)
   18ece:	000a                	c.slli	zero,0x2
   18ed0:	72726f43          	fmadd.d	ft10,ft4,ft7,fa4,unknown
   18ed4:	6365                	lui	t1,0x19
   18ed6:	2074                	fld	fa3,192(s0)
   18ed8:	7265706f          	j	0x705fe
   18edc:	7461                	lui	s0,0xffff8
   18ede:	6f69                	lui	t5,0x1a
   18ee0:	206e                	fld	ft0,216(sp)
   18ee2:	6176                	flw	ft2,92(sp)
   18ee4:	696c                	flw	fa1,84(a0)
   18ee6:	6164                	flw	fs1,68(a0)
   18ee8:	6574                	flw	fa3,76(a0)
   18eea:	2e64                	fld	fs1,216(a2)
   18eec:	5320                	lw	s0,96(a4)
   18eee:	6565                	lui	a0,0x19
   18ef0:	5220                	lw	s0,96(a2)
   18ef2:	4145                	li	sp,17
   18ef4:	4d44                	lw	s1,28(a0)
   18ef6:	2e45                	jal	0x192a6
   18ef8:	646d                	lui	s0,0x1b
   18efa:	6620                	flw	fs0,72(a2)
   18efc:	7220726f          	jal	tp,0x2061e
   18f00:	6e75                	lui	t3,0x1d
   18f02:	6120                	flw	fs0,64(a0)
   18f04:	646e                	flw	fs0,216(sp)
   18f06:	7220                	flw	fs0,96(a2)
   18f08:	7065                	c.lui	zero,0xffff9
   18f0a:	6974726f          	jal	tp,0x60da0
   18f0e:	676e                	flw	fa4,216(sp)
   18f10:	7220                	flw	fs0,96(a2)
   18f12:	6c75                	lui	s8,0x1d
   18f14:	7365                	lui	t1,0xffff9
   18f16:	0a2e                	slli	s4,s4,0xb
   18f18:	0000                	unimp
   18f1a:	0000                	unimp
   18f1c:	6e6e6143          	.insn	4, 0x6e6e6143
   18f20:	7620746f          	jal	s0,0x20682
   18f24:	6c61                	lui	s8,0x18
   18f26:	6469                	lui	s0,0x1a
   18f28:	7461                	lui	s0,0xffff8
   18f2a:	2065                	jal	0x18fd2
   18f2c:	7265706f          	j	0x70652
   18f30:	7461                	lui	s0,0xffff8
   18f32:	6f69                	lui	t5,0x1a
   18f34:	206e                	fld	ft0,216(sp)
   18f36:	6f66                	flw	ft10,88(sp)
   18f38:	2072                	fld	ft0,280(sp)
   18f3a:	6874                	flw	fa3,84(s0)
   18f3c:	7365                	lui	t1,0xffff9
   18f3e:	2065                	jal	0x18fe6
   18f40:	64656573          	csrrsi	a0,hviprio1,10
   18f44:	7620                	flw	fs0,104(a2)
   18f46:	6c61                	lui	s8,0x18
   18f48:	6575                	lui	a0,0x1d
   18f4a:	70202c73          	csrr	s8,0x702
   18f4e:	656c                	flw	fa1,76(a0)
   18f50:	7361                	lui	t1,0xffff8
   18f52:	2065                	jal	0x18ffa
   18f54:	706d6f63          	bltu	s10,t1,0x19672
   18f58:	7261                	lui	tp,0xffff8
   18f5a:	2065                	jal	0x19002
   18f5c:	68746977          	.insn	4, 0x68746977
   18f60:	7220                	flw	fs0,96(a2)
   18f62:	7365                	lui	t1,0xffff9
   18f64:	6c75                	lui	s8,0x1d
   18f66:	7374                	flw	fa3,100(a4)
   18f68:	6f20                	flw	fs0,88(a4)
   18f6a:	206e                	fld	ft0,216(sp)
   18f6c:	2061                	jal	0x18ff4
   18f6e:	776f6e6b          	.insn	4, 0x776f6e6b
   18f72:	206e                	fld	ft0,216(sp)
   18f74:	6c70                	flw	fa2,92(s0)
   18f76:	7461                	lui	s0,0xffff8
   18f78:	6f66                	flw	ft10,88(sp)
   18f7a:	6d72                	flw	fs10,28(sp)
   18f7c:	0a2e                	slli	s4,s4,0xb
   18f7e:	0000                	unimp
   18f80:	7245                	lui	tp,0xffff1
   18f82:	6f72                	flw	ft10,28(sp)
   18f84:	7372                	flw	ft6,60(sp)
   18f86:	6420                	flw	fs0,72(s0)
   18f88:	7465                	lui	s0,0xffff9
   18f8a:	6365                	lui	t1,0x19
   18f8c:	6574                	flw	fa3,76(a0)
   18f8e:	0a64                	addi	s1,sp,284
   18f90:	0000                	unimp
   18f92:	0000                	unimp
   18f94:	74617453          	.insn	4, 0x74617453
   18f98:	6369                	lui	t1,0x1a
   18f9a:	0000                	unimp
   18f9c:	6548                	flw	fa0,12(a0)
   18f9e:	7061                	c.lui	zero,0xffff8
   18fa0:	0000                	unimp
   18fa2:	0000                	unimp
   18fa4:	63617453          	.insn	4, 0x63617453
   18fa8:	0000006b          	.insn	4, 0x006b
   18fac:	3054                	fld	fa3,160(s0)
   18fae:	332e                	fld	ft6,232(sp)
   18fb0:	2d65                	jal	0x19668
   18fb2:	4631                	li	a2,12
   18fb4:	0000                	unimp
   18fb6:	0000                	unimp
   18fb8:	542d                	li	s0,-21
   18fba:	542e                	lw	s0,232(sp)
   18fbc:	71542b2b          	.insn	4, 0x71542b2b
   18fc0:	0000                	unimp
   18fc2:	0000                	unimp
   18fc4:	5431                	li	s0,-20
   18fc6:	65342e33          	.insn	4, 0x65342e33
   18fca:	7a34                	flw	fa3,112(a2)
   18fcc:	0000                	unimp
   18fce:	0000                	unimp
   18fd0:	302e3433          	.insn	4, 0x302e3433
   18fd4:	2d65                	jal	0x1968c
   18fd6:	5e54                	lw	a3,60(a2)
   18fd8:	0000                	unimp
   18fda:	0000                	unimp
   18fdc:	2e35                	jal	0x19318
   18fde:	3035                	jal	0x1880a
   18fe0:	6530                	flw	fa2,72(a0)
   18fe2:	0000332b          	.insn	4, 0x332b
   18fe6:	0000                	unimp
   18fe8:	2e2d                	jal	0x19322
   18fea:	3231                	jal	0x188f6
   18fec:	322d6533          	.insn	4, 0x322d6533
   18ff0:	0000                	unimp
   18ff2:	0000                	unimp
   18ff4:	382d                	jal	0x1882e
   18ff6:	382b6537          	lui	a0,0x382b6
   18ffa:	00003233          	snez	tp,zero
   18ffe:	0000                	unimp
   19000:	362e302b          	.insn	4, 0x362e302b
   19004:	2d65                	jal	0x196bc
   19006:	3231                	jal	0x18912
   19008:	0000                	unimp
   1900a:	0000                	unimp
   1900c:	352e3533          	.insn	4, 0x352e3533
   19010:	3434                	fld	fa3,104(s0)
   19012:	3030                	fld	fa2,96(s0)
   19014:	0000                	unimp
   19016:	0000                	unimp
   19018:	312e                	fld	ft2,232(sp)
   1901a:	3332                	fld	ft6,296(sp)
   1901c:	3534                	fld	fa3,104(a0)
   1901e:	3030                	fld	fa2,96(s0)
   19020:	0000                	unimp
   19022:	0000                	unimp
   19024:	312d                	jal	0x18c4e
   19026:	3031                	jal	0x18832
   19028:	372e                	fld	fa4,232(sp)
   1902a:	3030                	fld	fa2,96(s0)
   1902c:	0000                	unimp
   1902e:	0000                	unimp
   19030:	362e302b          	.insn	4, 0x362e302b
   19034:	3434                	fld	fa3,104(s0)
   19036:	3030                	fld	fa2,96(s0)
   19038:	0000                	unimp
   1903a:	0000                	unimp
   1903c:	3035                	jal	0x18868
   1903e:	3231                	jal	0x1894a
   19040:	0000                	unimp
   19042:	0000                	unimp
   19044:	3231                	jal	0x18950
   19046:	00003433          	snez	s0,zero
   1904a:	0000                	unimp
   1904c:	382d                	jal	0x18886
   1904e:	00003437          	lui	s0,0x3
   19052:	0000                	unimp
   19054:	3232312b          	.insn	4, 0x3232312b
	...

Disassembly of section .srodata.cst4:

0001905c <.srodata.cst4>:
   1905c:	9680                	.insn	2, 0x9680
   1905e:	4b18                	lw	a4,16(a4)
   19060:	2400                	fld	fs0,8(s0)
   19062:	4974                	lw	a3,84(a0)

Disassembly of section .srodata.cst8:

00019068 <.srodata.cst8>:
   19068:	0000                	unimp
   1906a:	0000                	unimp
   1906c:	8800                	.insn	2, 0x8800
   1906e:	Address 0x1906e is out of bounds.


Disassembly of section .eh_frame:

00019070 <.eh_frame>:
   19070:	0010                	.insn	2, 0x0010
   19072:	0000                	unimp
   19074:	0000                	unimp
   19076:	0000                	unimp
   19078:	00527a03          	.insn	4, 0x00527a03
   1907c:	7c01                	lui	s8,0xfffe0
   1907e:	0101                	addi	sp,sp,0
   19080:	00020c1b          	.insn	4, 0x00020c1b
   19084:	004c                	addi	a1,sp,4
   19086:	0000                	unimp
   19088:	0018                	.insn	2, 0x0018
   1908a:	0000                	unimp
   1908c:	ad78                	fsd	fa4,216(a0)
   1908e:	fffe                	fsw	ft11,252(sp)
   19090:	05c8                	addi	a0,sp,708
   19092:	0000                	unimp
   19094:	4400                	lw	s0,8(s0)
   19096:	300e                	fld	ft0,224(sp)
   19098:	9470                	.insn	2, 0x9470
   1909a:	8106                	mv	sp,ra
   1909c:	8801                	andi	s0,s0,0
   1909e:	8902                	jr	s2
   190a0:	93049203          	lh	tp,-1744(s1)
   190a4:	9505                	srai	a0,a0,0x21
   190a6:	97089607          	.insn	4, 0x97089607
   190aa:	9809                	andi	s0,s0,-30
   190ac:	990a                	add	s2,s2,sp
   190ae:	030c9a0b          	.insn	4, 0x030c9a0b
   190b2:	0254                	addi	a3,sp,260
   190b4:	c10a                	sw	sp,128(sp)
   190b6:	c844                	sw	s1,20(s0)
   190b8:	c944                	sw	s1,20(a0)
   190ba:	d344                	sw	s1,36(a4)
   190bc:	d444                	sw	s1,44(s0)
   190be:	d544                	sw	s1,44(a0)
   190c0:	d644                	sw	s1,44(a2)
   190c2:	d744                	sw	s1,44(a4)
   190c4:	d844                	sw	s1,52(s0)
   190c6:	d944                	sw	s1,52(a0)
   190c8:	da44                	sw	s1,52(a2)
   190ca:	d24c                	sw	a1,36(a2)
   190cc:	0e44                	addi	s1,sp,788
   190ce:	4400                	lw	s0,8(s0)
   190d0:	0000000b          	.insn	4, 0x000b
   190d4:	004c                	addi	a1,sp,4
   190d6:	0000                	unimp
   190d8:	0068                	addi	a0,sp,12
   190da:	0000                	unimp
   190dc:	b2f0                	fsd	fa2,224(a3)
   190de:	fffe                	fsw	ft11,252(sp)
   190e0:	04d0                	addi	a2,sp,580
   190e2:	0000                	unimp
   190e4:	4400                	lw	s0,8(s0)
   190e6:	300e                	fld	ft0,224(sp)
   190e8:	8870                	.insn	2, 0x8870
   190ea:	8902                	jr	s2
   190ec:	92018103          	lb	sp,-1760(gp)
   190f0:	9304                	.insn	2, 0x9304
   190f2:	9405                	srai	s0,s0,0x21
   190f4:	9506                	add	a0,a0,ra
   190f6:	97089607          	.insn	4, 0x97089607
   190fa:	9809                	andi	s0,s0,-30
   190fc:	990a                	add	s2,s2,sp
   190fe:	030c9a0b          	.insn	4, 0x030c9a0b
   19102:	010c                	addi	a1,sp,128
   19104:	c10a                	sw	sp,128(sp)
   19106:	c844                	sw	s1,20(s0)
   19108:	c944                	sw	s1,20(a0)
   1910a:	d244                	sw	s1,36(a2)
   1910c:	d344                	sw	s1,36(a4)
   1910e:	d444                	sw	s1,44(s0)
   19110:	d544                	sw	s1,44(a0)
   19112:	d644                	sw	s1,44(a2)
   19114:	d744                	sw	s1,44(a4)
   19116:	d844                	sw	s1,52(s0)
   19118:	d944                	sw	s1,52(a0)
   1911a:	da44                	sw	s1,52(a2)
   1911c:	0e44                	addi	s1,sp,788
   1911e:	4400                	lw	s0,8(s0)
   19120:	0000000b          	.insn	4, 0x000b
